
OpenTelem_Aux.elf:     file format elf32-littlearm

Sections:
Idx Name          Size      VMA       LMA       File off  Algn
  0 .isr_vector   000000c0  08000000  08000000  00010000  2**0
                  CONTENTS, ALLOC, LOAD, READONLY, DATA
  1 .text         00005920  080000c0  080000c0  000100c0  2**4
                  CONTENTS, ALLOC, LOAD, READONLY, CODE
  2 .rodata       00000870  080059e0  080059e0  000159e0  2**2
                  CONTENTS, ALLOC, LOAD, READONLY, DATA
  3 .ARM.extab    00000000  08006250  08006250  00020084  2**0
                  CONTENTS
  4 .ARM          00000000  08006250  08006250  00020084  2**0
                  CONTENTS
  5 .preinit_array 00000000  08006250  08006250  00020084  2**0
                  CONTENTS, ALLOC, LOAD, DATA
  6 .init_array   00000008  08006250  08006250  00016250  2**2
                  CONTENTS, ALLOC, LOAD, DATA
  7 .fini_array   00000008  08006258  08006258  00016258  2**2
                  CONTENTS, ALLOC, LOAD, DATA
  8 .data         00000084  20000000  08006260  00020000  2**2
                  CONTENTS, ALLOC, LOAD, DATA
  9 .bss          00002cf0  20000084  080062e4  00020084  2**2
                  ALLOC
 10 ._user_heap_stack 00000604  20002d74  080062e4  00022d74  2**0
                  ALLOC
 11 .ARM.attributes 00000028  00000000  00000000  00020084  2**0
                  CONTENTS, READONLY
 12 .comment      00000053  00000000  00000000  000200ac  2**0
                  CONTENTS, READONLY
 13 .debug_frame  00000708  00000000  00000000  00020100  2**2
                  CONTENTS, READONLY, DEBUGGING, OCTETS

Disassembly of section .text:

080000c0 <__do_global_dtors_aux>:
 80000c0:	b510      	push	{r4, lr}
 80000c2:	4c06      	ldr	r4, [pc, #24]	; (80000dc <__do_global_dtors_aux+0x1c>)
 80000c4:	7823      	ldrb	r3, [r4, #0]
 80000c6:	2b00      	cmp	r3, #0
 80000c8:	d107      	bne.n	80000da <__do_global_dtors_aux+0x1a>
 80000ca:	4b05      	ldr	r3, [pc, #20]	; (80000e0 <__do_global_dtors_aux+0x20>)
 80000cc:	2b00      	cmp	r3, #0
 80000ce:	d002      	beq.n	80000d6 <__do_global_dtors_aux+0x16>
 80000d0:	4804      	ldr	r0, [pc, #16]	; (80000e4 <__do_global_dtors_aux+0x24>)
 80000d2:	e000      	b.n	80000d6 <__do_global_dtors_aux+0x16>
 80000d4:	bf00      	nop
 80000d6:	2301      	movs	r3, #1
 80000d8:	7023      	strb	r3, [r4, #0]
 80000da:	bd10      	pop	{r4, pc}
 80000dc:	20000084 	.word	0x20000084
 80000e0:	00000000 	.word	0x00000000
 80000e4:	080059c8 	.word	0x080059c8

080000e8 <frame_dummy>:
 80000e8:	4b04      	ldr	r3, [pc, #16]	; (80000fc <frame_dummy+0x14>)
 80000ea:	b510      	push	{r4, lr}
 80000ec:	2b00      	cmp	r3, #0
 80000ee:	d003      	beq.n	80000f8 <frame_dummy+0x10>
 80000f0:	4903      	ldr	r1, [pc, #12]	; (8000100 <frame_dummy+0x18>)
 80000f2:	4804      	ldr	r0, [pc, #16]	; (8000104 <frame_dummy+0x1c>)
 80000f4:	e000      	b.n	80000f8 <frame_dummy+0x10>
 80000f6:	bf00      	nop
 80000f8:	bd10      	pop	{r4, pc}
 80000fa:	46c0      	nop			; (mov r8, r8)
 80000fc:	00000000 	.word	0x00000000
 8000100:	20000088 	.word	0x20000088
 8000104:	080059c8 	.word	0x080059c8

08000108 <__gnu_thumb1_case_sqi>:
 8000108:	b402      	push	{r1}
 800010a:	4671      	mov	r1, lr
 800010c:	0849      	lsrs	r1, r1, #1
 800010e:	0049      	lsls	r1, r1, #1
 8000110:	5609      	ldrsb	r1, [r1, r0]
 8000112:	0049      	lsls	r1, r1, #1
 8000114:	448e      	add	lr, r1
 8000116:	bc02      	pop	{r1}
 8000118:	4770      	bx	lr
 800011a:	46c0      	nop			; (mov r8, r8)

0800011c <__udivsi3>:
 800011c:	2200      	movs	r2, #0
 800011e:	0843      	lsrs	r3, r0, #1
 8000120:	428b      	cmp	r3, r1
 8000122:	d374      	bcc.n	800020e <__udivsi3+0xf2>
 8000124:	0903      	lsrs	r3, r0, #4
 8000126:	428b      	cmp	r3, r1
 8000128:	d35f      	bcc.n	80001ea <__udivsi3+0xce>
 800012a:	0a03      	lsrs	r3, r0, #8
 800012c:	428b      	cmp	r3, r1
 800012e:	d344      	bcc.n	80001ba <__udivsi3+0x9e>
 8000130:	0b03      	lsrs	r3, r0, #12
 8000132:	428b      	cmp	r3, r1
 8000134:	d328      	bcc.n	8000188 <__udivsi3+0x6c>
 8000136:	0c03      	lsrs	r3, r0, #16
 8000138:	428b      	cmp	r3, r1
 800013a:	d30d      	bcc.n	8000158 <__udivsi3+0x3c>
 800013c:	22ff      	movs	r2, #255	; 0xff
 800013e:	0209      	lsls	r1, r1, #8
 8000140:	ba12      	rev	r2, r2
 8000142:	0c03      	lsrs	r3, r0, #16
 8000144:	428b      	cmp	r3, r1
 8000146:	d302      	bcc.n	800014e <__udivsi3+0x32>
 8000148:	1212      	asrs	r2, r2, #8
 800014a:	0209      	lsls	r1, r1, #8
 800014c:	d065      	beq.n	800021a <__udivsi3+0xfe>
 800014e:	0b03      	lsrs	r3, r0, #12
 8000150:	428b      	cmp	r3, r1
 8000152:	d319      	bcc.n	8000188 <__udivsi3+0x6c>
 8000154:	e000      	b.n	8000158 <__udivsi3+0x3c>
 8000156:	0a09      	lsrs	r1, r1, #8
 8000158:	0bc3      	lsrs	r3, r0, #15
 800015a:	428b      	cmp	r3, r1
 800015c:	d301      	bcc.n	8000162 <__udivsi3+0x46>
 800015e:	03cb      	lsls	r3, r1, #15
 8000160:	1ac0      	subs	r0, r0, r3
 8000162:	4152      	adcs	r2, r2
 8000164:	0b83      	lsrs	r3, r0, #14
 8000166:	428b      	cmp	r3, r1
 8000168:	d301      	bcc.n	800016e <__udivsi3+0x52>
 800016a:	038b      	lsls	r3, r1, #14
 800016c:	1ac0      	subs	r0, r0, r3
 800016e:	4152      	adcs	r2, r2
 8000170:	0b43      	lsrs	r3, r0, #13
 8000172:	428b      	cmp	r3, r1
 8000174:	d301      	bcc.n	800017a <__udivsi3+0x5e>
 8000176:	034b      	lsls	r3, r1, #13
 8000178:	1ac0      	subs	r0, r0, r3
 800017a:	4152      	adcs	r2, r2
 800017c:	0b03      	lsrs	r3, r0, #12
 800017e:	428b      	cmp	r3, r1
 8000180:	d301      	bcc.n	8000186 <__udivsi3+0x6a>
 8000182:	030b      	lsls	r3, r1, #12
 8000184:	1ac0      	subs	r0, r0, r3
 8000186:	4152      	adcs	r2, r2
 8000188:	0ac3      	lsrs	r3, r0, #11
 800018a:	428b      	cmp	r3, r1
 800018c:	d301      	bcc.n	8000192 <__udivsi3+0x76>
 800018e:	02cb      	lsls	r3, r1, #11
 8000190:	1ac0      	subs	r0, r0, r3
 8000192:	4152      	adcs	r2, r2
 8000194:	0a83      	lsrs	r3, r0, #10
 8000196:	428b      	cmp	r3, r1
 8000198:	d301      	bcc.n	800019e <__udivsi3+0x82>
 800019a:	028b      	lsls	r3, r1, #10
 800019c:	1ac0      	subs	r0, r0, r3
 800019e:	4152      	adcs	r2, r2
 80001a0:	0a43      	lsrs	r3, r0, #9
 80001a2:	428b      	cmp	r3, r1
 80001a4:	d301      	bcc.n	80001aa <__udivsi3+0x8e>
 80001a6:	024b      	lsls	r3, r1, #9
 80001a8:	1ac0      	subs	r0, r0, r3
 80001aa:	4152      	adcs	r2, r2
 80001ac:	0a03      	lsrs	r3, r0, #8
 80001ae:	428b      	cmp	r3, r1
 80001b0:	d301      	bcc.n	80001b6 <__udivsi3+0x9a>
 80001b2:	020b      	lsls	r3, r1, #8
 80001b4:	1ac0      	subs	r0, r0, r3
 80001b6:	4152      	adcs	r2, r2
 80001b8:	d2cd      	bcs.n	8000156 <__udivsi3+0x3a>
 80001ba:	09c3      	lsrs	r3, r0, #7
 80001bc:	428b      	cmp	r3, r1
 80001be:	d301      	bcc.n	80001c4 <__udivsi3+0xa8>
 80001c0:	01cb      	lsls	r3, r1, #7
 80001c2:	1ac0      	subs	r0, r0, r3
 80001c4:	4152      	adcs	r2, r2
 80001c6:	0983      	lsrs	r3, r0, #6
 80001c8:	428b      	cmp	r3, r1
 80001ca:	d301      	bcc.n	80001d0 <__udivsi3+0xb4>
 80001cc:	018b      	lsls	r3, r1, #6
 80001ce:	1ac0      	subs	r0, r0, r3
 80001d0:	4152      	adcs	r2, r2
 80001d2:	0943      	lsrs	r3, r0, #5
 80001d4:	428b      	cmp	r3, r1
 80001d6:	d301      	bcc.n	80001dc <__udivsi3+0xc0>
 80001d8:	014b      	lsls	r3, r1, #5
 80001da:	1ac0      	subs	r0, r0, r3
 80001dc:	4152      	adcs	r2, r2
 80001de:	0903      	lsrs	r3, r0, #4
 80001e0:	428b      	cmp	r3, r1
 80001e2:	d301      	bcc.n	80001e8 <__udivsi3+0xcc>
 80001e4:	010b      	lsls	r3, r1, #4
 80001e6:	1ac0      	subs	r0, r0, r3
 80001e8:	4152      	adcs	r2, r2
 80001ea:	08c3      	lsrs	r3, r0, #3
 80001ec:	428b      	cmp	r3, r1
 80001ee:	d301      	bcc.n	80001f4 <__udivsi3+0xd8>
 80001f0:	00cb      	lsls	r3, r1, #3
 80001f2:	1ac0      	subs	r0, r0, r3
 80001f4:	4152      	adcs	r2, r2
 80001f6:	0883      	lsrs	r3, r0, #2
 80001f8:	428b      	cmp	r3, r1
 80001fa:	d301      	bcc.n	8000200 <__udivsi3+0xe4>
 80001fc:	008b      	lsls	r3, r1, #2
 80001fe:	1ac0      	subs	r0, r0, r3
 8000200:	4152      	adcs	r2, r2
 8000202:	0843      	lsrs	r3, r0, #1
 8000204:	428b      	cmp	r3, r1
 8000206:	d301      	bcc.n	800020c <__udivsi3+0xf0>
 8000208:	004b      	lsls	r3, r1, #1
 800020a:	1ac0      	subs	r0, r0, r3
 800020c:	4152      	adcs	r2, r2
 800020e:	1a41      	subs	r1, r0, r1
 8000210:	d200      	bcs.n	8000214 <__udivsi3+0xf8>
 8000212:	4601      	mov	r1, r0
 8000214:	4152      	adcs	r2, r2
 8000216:	4610      	mov	r0, r2
 8000218:	4770      	bx	lr
 800021a:	e7ff      	b.n	800021c <__udivsi3+0x100>
 800021c:	b501      	push	{r0, lr}
 800021e:	2000      	movs	r0, #0
 8000220:	f000 f806 	bl	8000230 <__aeabi_idiv0>
 8000224:	bd02      	pop	{r1, pc}
 8000226:	46c0      	nop			; (mov r8, r8)

08000228 <__aeabi_uidivmod>:
 8000228:	2900      	cmp	r1, #0
 800022a:	d0f7      	beq.n	800021c <__udivsi3+0x100>
 800022c:	e776      	b.n	800011c <__udivsi3>
 800022e:	4770      	bx	lr

08000230 <__aeabi_idiv0>:
 8000230:	4770      	bx	lr
 8000232:	46c0      	nop			; (mov r8, r8)

08000234 <StartDefaultTask>:
 8000234:	b510      	push	{r4, lr}
 8000236:	2001      	movs	r0, #1
 8000238:	f003 f8a8 	bl	800338c <osDelay>
 800023c:	e7fb      	b.n	8000236 <StartDefaultTask+0x2>
	...

08000240 <StartBlink>:
 8000240:	b510      	push	{r4, lr}
 8000242:	24fa      	movs	r4, #250	; 0xfa
 8000244:	0064      	lsls	r4, r4, #1
 8000246:	2120      	movs	r1, #32
 8000248:	4803      	ldr	r0, [pc, #12]	; (8000258 <StartBlink+0x18>)
 800024a:	f001 f981 	bl	8001550 <HAL_GPIO_TogglePin>
 800024e:	0020      	movs	r0, r4
 8000250:	f003 f89c 	bl	800338c <osDelay>
 8000254:	e7f7      	b.n	8000246 <StartBlink+0x6>
 8000256:	46c0      	nop			; (mov r8, r8)
 8000258:	48000800 	.word	0x48000800

0800025c <HAL_GPIO_EXTI_Callback>:
 800025c:	b510      	push	{r4, lr}
 800025e:	f000 fb97 	bl	8000990 <CPP_HandleGPIOInterrupt>
 8000262:	bd10      	pop	{r4, pc}

08000264 <HAL_TIM_PeriodElapsedCallback>:
 8000264:	4b03      	ldr	r3, [pc, #12]	; (8000274 <HAL_TIM_PeriodElapsedCallback+0x10>)
 8000266:	6802      	ldr	r2, [r0, #0]
 8000268:	b510      	push	{r4, lr}
 800026a:	429a      	cmp	r2, r3
 800026c:	d101      	bne.n	8000272 <HAL_TIM_PeriodElapsedCallback+0xe>
 800026e:	f000 fe31 	bl	8000ed4 <HAL_IncTick>
 8000272:	bd10      	pop	{r4, pc}
 8000274:	40012c00 	.word	0x40012c00

08000278 <Error_Handler>:
 8000278:	b510      	push	{r4, lr}
 800027a:	b672      	cpsid	i
 800027c:	24fa      	movs	r4, #250	; 0xfa
 800027e:	0064      	lsls	r4, r4, #1
 8000280:	2101      	movs	r1, #1
 8000282:	4803      	ldr	r0, [pc, #12]	; (8000290 <Error_Handler+0x18>)
 8000284:	f001 f964 	bl	8001550 <HAL_GPIO_TogglePin>
 8000288:	0020      	movs	r0, r4
 800028a:	f003 f87f 	bl	800338c <osDelay>
 800028e:	e7f7      	b.n	8000280 <Error_Handler+0x8>
 8000290:	48000400 	.word	0x48000400

08000294 <SystemClock_Config>:
 8000294:	b510      	push	{r4, lr}
 8000296:	b098      	sub	sp, #96	; 0x60
 8000298:	2230      	movs	r2, #48	; 0x30
 800029a:	2100      	movs	r1, #0
 800029c:	a80c      	add	r0, sp, #48	; 0x30
 800029e:	f005 fa02 	bl	80056a6 <memset>
 80002a2:	2210      	movs	r2, #16
 80002a4:	2100      	movs	r1, #0
 80002a6:	4668      	mov	r0, sp
 80002a8:	f005 f9fd 	bl	80056a6 <memset>
 80002ac:	221c      	movs	r2, #28
 80002ae:	2100      	movs	r1, #0
 80002b0:	a804      	add	r0, sp, #16
 80002b2:	f005 f9f8 	bl	80056a6 <memset>
 80002b6:	2401      	movs	r4, #1
 80002b8:	2320      	movs	r3, #32
 80002ba:	a80b      	add	r0, sp, #44	; 0x2c
 80002bc:	930b      	str	r3, [sp, #44]	; 0x2c
 80002be:	9413      	str	r4, [sp, #76]	; 0x4c
 80002c0:	f001 f9da 	bl	8001678 <HAL_RCC_OscConfig>
 80002c4:	2800      	cmp	r0, #0
 80002c6:	d001      	beq.n	80002cc <SystemClock_Config+0x38>
 80002c8:	f7ff ffd6 	bl	8000278 <Error_Handler>
 80002cc:	2307      	movs	r3, #7
 80002ce:	9002      	str	r0, [sp, #8]
 80002d0:	9300      	str	r3, [sp, #0]
 80002d2:	9003      	str	r0, [sp, #12]
 80002d4:	3b04      	subs	r3, #4
 80002d6:	0021      	movs	r1, r4
 80002d8:	4668      	mov	r0, sp
 80002da:	9301      	str	r3, [sp, #4]
 80002dc:	f001 fc5e 	bl	8001b9c <HAL_RCC_ClockConfig>
 80002e0:	2800      	cmp	r0, #0
 80002e2:	d1f1      	bne.n	80002c8 <SystemClock_Config+0x34>
 80002e4:	2380      	movs	r3, #128	; 0x80
 80002e6:	900a      	str	r0, [sp, #40]	; 0x28
 80002e8:	029b      	lsls	r3, r3, #10
 80002ea:	a804      	add	r0, sp, #16
 80002ec:	9304      	str	r3, [sp, #16]
 80002ee:	f001 fd0d 	bl	8001d0c <HAL_RCCEx_PeriphCLKConfig>
 80002f2:	2800      	cmp	r0, #0
 80002f4:	d1e8      	bne.n	80002c8 <SystemClock_Config+0x34>
 80002f6:	b018      	add	sp, #96	; 0x60
 80002f8:	bd10      	pop	{r4, pc}
	...

080002fc <main>:
 80002fc:	b5f0      	push	{r4, r5, r6, r7, lr}
 80002fe:	b08b      	sub	sp, #44	; 0x2c
 8000300:	f000 fdd8 	bl	8000eb4 <HAL_Init>
 8000304:	f7ff ffc6 	bl	8000294 <SystemClock_Config>
 8000308:	2214      	movs	r2, #20
 800030a:	2100      	movs	r1, #0
 800030c:	a805      	add	r0, sp, #20
 800030e:	f005 f9ca 	bl	80056a6 <memset>
 8000312:	2080      	movs	r0, #128	; 0x80
 8000314:	4b7d      	ldr	r3, [pc, #500]	; (800050c <main+0x210>)
 8000316:	0300      	lsls	r0, r0, #12
 8000318:	6959      	ldr	r1, [r3, #20]
 800031a:	4c7d      	ldr	r4, [pc, #500]	; (8000510 <main+0x214>)
 800031c:	4301      	orrs	r1, r0
 800031e:	6159      	str	r1, [r3, #20]
 8000320:	695a      	ldr	r2, [r3, #20]
 8000322:	2788      	movs	r7, #136	; 0x88
 8000324:	4002      	ands	r2, r0
 8000326:	2080      	movs	r0, #128	; 0x80
 8000328:	9201      	str	r2, [sp, #4]
 800032a:	9a01      	ldr	r2, [sp, #4]
 800032c:	6959      	ldr	r1, [r3, #20]
 800032e:	0280      	lsls	r0, r0, #10
 8000330:	4301      	orrs	r1, r0
 8000332:	6159      	str	r1, [r3, #20]
 8000334:	695a      	ldr	r2, [r3, #20]
 8000336:	2502      	movs	r5, #2
 8000338:	4002      	ands	r2, r0
 800033a:	2080      	movs	r0, #128	; 0x80
 800033c:	9202      	str	r2, [sp, #8]
 800033e:	9a02      	ldr	r2, [sp, #8]
 8000340:	6959      	ldr	r1, [r3, #20]
 8000342:	02c0      	lsls	r0, r0, #11
 8000344:	4301      	orrs	r1, r0
 8000346:	6159      	str	r1, [r3, #20]
 8000348:	2180      	movs	r1, #128	; 0x80
 800034a:	695a      	ldr	r2, [r3, #20]
 800034c:	0349      	lsls	r1, r1, #13
 800034e:	4002      	ands	r2, r0
 8000350:	9203      	str	r2, [sp, #12]
 8000352:	9a03      	ldr	r2, [sp, #12]
 8000354:	695a      	ldr	r2, [r3, #20]
 8000356:	486f      	ldr	r0, [pc, #444]	; (8000514 <main+0x218>)
 8000358:	430a      	orrs	r2, r1
 800035a:	615a      	str	r2, [r3, #20]
 800035c:	695b      	ldr	r3, [r3, #20]
 800035e:	2200      	movs	r2, #0
 8000360:	400b      	ands	r3, r1
 8000362:	9304      	str	r3, [sp, #16]
 8000364:	0021      	movs	r1, r4
 8000366:	9b04      	ldr	r3, [sp, #16]
 8000368:	f001 f8ec 	bl	8001544 <HAL_GPIO_WritePin>
 800036c:	2090      	movs	r0, #144	; 0x90
 800036e:	2200      	movs	r2, #0
 8000370:	4969      	ldr	r1, [pc, #420]	; (8000518 <main+0x21c>)
 8000372:	05c0      	lsls	r0, r0, #23
 8000374:	f001 f8e6 	bl	8001544 <HAL_GPIO_WritePin>
 8000378:	2200      	movs	r2, #0
 800037a:	4968      	ldr	r1, [pc, #416]	; (800051c <main+0x220>)
 800037c:	4868      	ldr	r0, [pc, #416]	; (8000520 <main+0x224>)
 800037e:	f001 f8e1 	bl	8001544 <HAL_GPIO_WritePin>
 8000382:	2200      	movs	r2, #0
 8000384:	2104      	movs	r1, #4
 8000386:	4867      	ldr	r0, [pc, #412]	; (8000524 <main+0x228>)
 8000388:	f001 f8dc 	bl	8001544 <HAL_GPIO_WritePin>
 800038c:	4b66      	ldr	r3, [pc, #408]	; (8000528 <main+0x22c>)
 800038e:	037f      	lsls	r7, r7, #13
 8000390:	9305      	str	r3, [sp, #20]
 8000392:	ab05      	add	r3, sp, #20
 8000394:	0019      	movs	r1, r3
 8000396:	485f      	ldr	r0, [pc, #380]	; (8000514 <main+0x218>)
 8000398:	2601      	movs	r6, #1
 800039a:	9706      	str	r7, [sp, #24]
 800039c:	9507      	str	r5, [sp, #28]
 800039e:	f001 f80b 	bl	80013b8 <HAL_GPIO_Init>
 80003a2:	9405      	str	r4, [sp, #20]
 80003a4:	2400      	movs	r4, #0
 80003a6:	ab05      	add	r3, sp, #20
 80003a8:	0019      	movs	r1, r3
 80003aa:	485a      	ldr	r0, [pc, #360]	; (8000514 <main+0x218>)
 80003ac:	9606      	str	r6, [sp, #24]
 80003ae:	9407      	str	r4, [sp, #28]
 80003b0:	9408      	str	r4, [sp, #32]
 80003b2:	f001 f801 	bl	80013b8 <HAL_GPIO_Init>
 80003b6:	2090      	movs	r0, #144	; 0x90
 80003b8:	4b57      	ldr	r3, [pc, #348]	; (8000518 <main+0x21c>)
 80003ba:	05c0      	lsls	r0, r0, #23
 80003bc:	9305      	str	r3, [sp, #20]
 80003be:	ab05      	add	r3, sp, #20
 80003c0:	0019      	movs	r1, r3
 80003c2:	9606      	str	r6, [sp, #24]
 80003c4:	9407      	str	r4, [sp, #28]
 80003c6:	9408      	str	r4, [sp, #32]
 80003c8:	f000 fff6 	bl	80013b8 <HAL_GPIO_Init>
 80003cc:	4b53      	ldr	r3, [pc, #332]	; (800051c <main+0x220>)
 80003ce:	4854      	ldr	r0, [pc, #336]	; (8000520 <main+0x224>)
 80003d0:	9305      	str	r3, [sp, #20]
 80003d2:	ab05      	add	r3, sp, #20
 80003d4:	0019      	movs	r1, r3
 80003d6:	9606      	str	r6, [sp, #24]
 80003d8:	9407      	str	r4, [sp, #28]
 80003da:	9408      	str	r4, [sp, #32]
 80003dc:	f000 ffec 	bl	80013b8 <HAL_GPIO_Init>
 80003e0:	2380      	movs	r3, #128	; 0x80
 80003e2:	015b      	lsls	r3, r3, #5
 80003e4:	9305      	str	r3, [sp, #20]
 80003e6:	ab05      	add	r3, sp, #20
 80003e8:	0019      	movs	r1, r3
 80003ea:	484d      	ldr	r0, [pc, #308]	; (8000520 <main+0x224>)
 80003ec:	9706      	str	r7, [sp, #24]
 80003ee:	9507      	str	r5, [sp, #28]
 80003f0:	f000 ffe2 	bl	80013b8 <HAL_GPIO_Init>
 80003f4:	2380      	movs	r3, #128	; 0x80
 80003f6:	2090      	movs	r0, #144	; 0x90
 80003f8:	005b      	lsls	r3, r3, #1
 80003fa:	9305      	str	r3, [sp, #20]
 80003fc:	ab05      	add	r3, sp, #20
 80003fe:	0019      	movs	r1, r3
 8000400:	05c0      	lsls	r0, r0, #23
 8000402:	9706      	str	r7, [sp, #24]
 8000404:	9507      	str	r5, [sp, #28]
 8000406:	f000 ffd7 	bl	80013b8 <HAL_GPIO_Init>
 800040a:	2304      	movs	r3, #4
 800040c:	9305      	str	r3, [sp, #20]
 800040e:	ab05      	add	r3, sp, #20
 8000410:	0019      	movs	r1, r3
 8000412:	4844      	ldr	r0, [pc, #272]	; (8000524 <main+0x228>)
 8000414:	9606      	str	r6, [sp, #24]
 8000416:	9407      	str	r4, [sp, #28]
 8000418:	9408      	str	r4, [sp, #32]
 800041a:	f000 ffcd 	bl	80013b8 <HAL_GPIO_Init>
 800041e:	2310      	movs	r3, #16
 8000420:	9305      	str	r3, [sp, #20]
 8000422:	ab05      	add	r3, sp, #20
 8000424:	0019      	movs	r1, r3
 8000426:	483e      	ldr	r0, [pc, #248]	; (8000520 <main+0x224>)
 8000428:	9706      	str	r7, [sp, #24]
 800042a:	9407      	str	r4, [sp, #28]
 800042c:	f000 ffc4 	bl	80013b8 <HAL_GPIO_Init>
 8000430:	0022      	movs	r2, r4
 8000432:	2103      	movs	r1, #3
 8000434:	2005      	movs	r0, #5
 8000436:	f000 ff89 	bl	800134c <HAL_NVIC_SetPriority>
 800043a:	2005      	movs	r0, #5
 800043c:	f000 ffb0 	bl	80013a0 <HAL_NVIC_EnableIRQ>
 8000440:	0022      	movs	r2, r4
 8000442:	2103      	movs	r1, #3
 8000444:	2006      	movs	r0, #6
 8000446:	f000 ff81 	bl	800134c <HAL_NVIC_SetPriority>
 800044a:	2006      	movs	r0, #6
 800044c:	f000 ffa8 	bl	80013a0 <HAL_NVIC_EnableIRQ>
 8000450:	0022      	movs	r2, r4
 8000452:	2103      	movs	r1, #3
 8000454:	2007      	movs	r0, #7
 8000456:	f000 ff79 	bl	800134c <HAL_NVIC_SetPriority>
 800045a:	2007      	movs	r0, #7
 800045c:	f000 ffa0 	bl	80013a0 <HAL_NVIC_EnableIRQ>
 8000460:	4832      	ldr	r0, [pc, #200]	; (800052c <main+0x230>)
 8000462:	4b33      	ldr	r3, [pc, #204]	; (8000530 <main+0x234>)
 8000464:	2180      	movs	r1, #128	; 0x80
 8000466:	6003      	str	r3, [r0, #0]
 8000468:	2306      	movs	r3, #6
 800046a:	6043      	str	r3, [r0, #4]
 800046c:	23c0      	movs	r3, #192	; 0xc0
 800046e:	0349      	lsls	r1, r1, #13
 8000470:	031b      	lsls	r3, r3, #12
 8000472:	6184      	str	r4, [r0, #24]
 8000474:	8384      	strh	r4, [r0, #28]
 8000476:	6103      	str	r3, [r0, #16]
 8000478:	6084      	str	r4, [r0, #8]
 800047a:	60c4      	str	r4, [r0, #12]
 800047c:	6141      	str	r1, [r0, #20]
 800047e:	f000 fd3b 	bl	8000ef8 <HAL_CAN_Init>
 8000482:	0003      	movs	r3, r0
 8000484:	42a0      	cmp	r0, r4
 8000486:	d001      	beq.n	800048c <main+0x190>
 8000488:	f7ff fef6 	bl	8000278 <Error_Handler>
 800048c:	4829      	ldr	r0, [pc, #164]	; (8000534 <main+0x238>)
 800048e:	4a2a      	ldr	r2, [pc, #168]	; (8000538 <main+0x23c>)
 8000490:	2408      	movs	r4, #8
 8000492:	6002      	str	r2, [r0, #0]
 8000494:	2282      	movs	r2, #130	; 0x82
 8000496:	0052      	lsls	r2, r2, #1
 8000498:	6042      	str	r2, [r0, #4]
 800049a:	22e0      	movs	r2, #224	; 0xe0
 800049c:	00d2      	lsls	r2, r2, #3
 800049e:	60c2      	str	r2, [r0, #12]
 80004a0:	2280      	movs	r2, #128	; 0x80
 80004a2:	0092      	lsls	r2, r2, #2
 80004a4:	6182      	str	r2, [r0, #24]
 80004a6:	3afa      	subs	r2, #250	; 0xfa
 80004a8:	3aff      	subs	r2, #255	; 0xff
 80004aa:	6083      	str	r3, [r0, #8]
 80004ac:	6203      	str	r3, [r0, #32]
 80004ae:	6243      	str	r3, [r0, #36]	; 0x24
 80004b0:	6283      	str	r3, [r0, #40]	; 0x28
 80004b2:	6303      	str	r3, [r0, #48]	; 0x30
 80004b4:	6343      	str	r3, [r0, #52]	; 0x34
 80004b6:	6105      	str	r5, [r0, #16]
 80004b8:	6146      	str	r6, [r0, #20]
 80004ba:	61c4      	str	r4, [r0, #28]
 80004bc:	62c2      	str	r2, [r0, #44]	; 0x2c
 80004be:	f001 fdb3 	bl	8002028 <HAL_SPI_Init>
 80004c2:	1e03      	subs	r3, r0, #0
 80004c4:	d1e0      	bne.n	8000488 <main+0x18c>
 80004c6:	481d      	ldr	r0, [pc, #116]	; (800053c <main+0x240>)
 80004c8:	4a1d      	ldr	r2, [pc, #116]	; (8000540 <main+0x244>)
 80004ca:	6044      	str	r4, [r0, #4]
 80004cc:	6002      	str	r2, [r0, #0]
 80004ce:	6085      	str	r5, [r0, #8]
 80004d0:	6105      	str	r5, [r0, #16]
 80004d2:	6183      	str	r3, [r0, #24]
 80004d4:	61c3      	str	r3, [r0, #28]
 80004d6:	6203      	str	r3, [r0, #32]
 80004d8:	f001 f84e 	bl	8001578 <HAL_PCD_Init>
 80004dc:	1e04      	subs	r4, r0, #0
 80004de:	d1d3      	bne.n	8000488 <main+0x18c>
 80004e0:	f002 fea2 	bl	8003228 <osKernelInitialize>
 80004e4:	0021      	movs	r1, r4
 80004e6:	4a17      	ldr	r2, [pc, #92]	; (8000544 <main+0x248>)
 80004e8:	4817      	ldr	r0, [pc, #92]	; (8000548 <main+0x24c>)
 80004ea:	f002 feeb 	bl	80032c4 <osThreadNew>
 80004ee:	4b17      	ldr	r3, [pc, #92]	; (800054c <main+0x250>)
 80004f0:	0021      	movs	r1, r4
 80004f2:	6018      	str	r0, [r3, #0]
 80004f4:	4a16      	ldr	r2, [pc, #88]	; (8000550 <main+0x254>)
 80004f6:	4817      	ldr	r0, [pc, #92]	; (8000554 <main+0x258>)
 80004f8:	f002 fee4 	bl	80032c4 <osThreadNew>
 80004fc:	4b16      	ldr	r3, [pc, #88]	; (8000558 <main+0x25c>)
 80004fe:	6018      	str	r0, [r3, #0]
 8000500:	f000 fb86 	bl	8000c10 <CPP_UserSetup>
 8000504:	f002 feaa 	bl	800325c <osKernelStart>
 8000508:	e7fe      	b.n	8000508 <main+0x20c>
 800050a:	46c0      	nop			; (mov r8, r8)
 800050c:	40021000 	.word	0x40021000
 8000510:	00004164 	.word	0x00004164
 8000514:	48000800 	.word	0x48000800
 8000518:	00000201 	.word	0x00000201
 800051c:	00004061 	.word	0x00004061
 8000520:	48000400 	.word	0x48000400
 8000524:	48000c00 	.word	0x48000c00
 8000528:	0000a68b 	.word	0x0000a68b
 800052c:	200023e0 	.word	0x200023e0
 8000530:	40006400 	.word	0x40006400
 8000534:	200028c4 	.word	0x200028c4
 8000538:	40013000 	.word	0x40013000
 800053c:	200029e4 	.word	0x200029e4
 8000540:	40005c00 	.word	0x40005c00
 8000544:	08005a18 	.word	0x08005a18
 8000548:	08000235 	.word	0x08000235
 800054c:	200023d8 	.word	0x200023d8
 8000550:	080059f4 	.word	0x080059f4
 8000554:	08000241 	.word	0x08000241
 8000558:	200023dc 	.word	0x200023dc

0800055c <HAL_MspInit>:
 800055c:	b507      	push	{r0, r1, r2, lr}
 800055e:	2001      	movs	r0, #1
 8000560:	4b0b      	ldr	r3, [pc, #44]	; (8000590 <HAL_MspInit+0x34>)
 8000562:	6999      	ldr	r1, [r3, #24]
 8000564:	4301      	orrs	r1, r0
 8000566:	6199      	str	r1, [r3, #24]
 8000568:	2180      	movs	r1, #128	; 0x80
 800056a:	699a      	ldr	r2, [r3, #24]
 800056c:	0549      	lsls	r1, r1, #21
 800056e:	4002      	ands	r2, r0
 8000570:	9200      	str	r2, [sp, #0]
 8000572:	9a00      	ldr	r2, [sp, #0]
 8000574:	69da      	ldr	r2, [r3, #28]
 8000576:	1800      	adds	r0, r0, r0
 8000578:	430a      	orrs	r2, r1
 800057a:	61da      	str	r2, [r3, #28]
 800057c:	69db      	ldr	r3, [r3, #28]
 800057e:	2200      	movs	r2, #0
 8000580:	400b      	ands	r3, r1
 8000582:	9301      	str	r3, [sp, #4]
 8000584:	2103      	movs	r1, #3
 8000586:	4240      	negs	r0, r0
 8000588:	9b01      	ldr	r3, [sp, #4]
 800058a:	f000 fedf 	bl	800134c <HAL_NVIC_SetPriority>
 800058e:	bd07      	pop	{r0, r1, r2, pc}
 8000590:	40021000 	.word	0x40021000

08000594 <HAL_CAN_MspInit>:
 8000594:	b530      	push	{r4, r5, lr}
 8000596:	0004      	movs	r4, r0
 8000598:	b089      	sub	sp, #36	; 0x24
 800059a:	2214      	movs	r2, #20
 800059c:	2100      	movs	r1, #0
 800059e:	a803      	add	r0, sp, #12
 80005a0:	f005 f881 	bl	80056a6 <memset>
 80005a4:	4b17      	ldr	r3, [pc, #92]	; (8000604 <HAL_CAN_MspInit+0x70>)
 80005a6:	6822      	ldr	r2, [r4, #0]
 80005a8:	429a      	cmp	r2, r3
 80005aa:	d129      	bne.n	8000600 <HAL_CAN_MspInit+0x6c>
 80005ac:	2080      	movs	r0, #128	; 0x80
 80005ae:	4b16      	ldr	r3, [pc, #88]	; (8000608 <HAL_CAN_MspInit+0x74>)
 80005b0:	0480      	lsls	r0, r0, #18
 80005b2:	69d9      	ldr	r1, [r3, #28]
 80005b4:	2500      	movs	r5, #0
 80005b6:	4301      	orrs	r1, r0
 80005b8:	61d9      	str	r1, [r3, #28]
 80005ba:	2180      	movs	r1, #128	; 0x80
 80005bc:	69da      	ldr	r2, [r3, #28]
 80005be:	02c9      	lsls	r1, r1, #11
 80005c0:	4002      	ands	r2, r0
 80005c2:	9201      	str	r2, [sp, #4]
 80005c4:	9a01      	ldr	r2, [sp, #4]
 80005c6:	695a      	ldr	r2, [r3, #20]
 80005c8:	2403      	movs	r4, #3
 80005ca:	430a      	orrs	r2, r1
 80005cc:	615a      	str	r2, [r3, #20]
 80005ce:	695b      	ldr	r3, [r3, #20]
 80005d0:	480e      	ldr	r0, [pc, #56]	; (800060c <HAL_CAN_MspInit+0x78>)
 80005d2:	400b      	ands	r3, r1
 80005d4:	9302      	str	r3, [sp, #8]
 80005d6:	9b02      	ldr	r3, [sp, #8]
 80005d8:	23c0      	movs	r3, #192	; 0xc0
 80005da:	009b      	lsls	r3, r3, #2
 80005dc:	9303      	str	r3, [sp, #12]
 80005de:	2302      	movs	r3, #2
 80005e0:	a903      	add	r1, sp, #12
 80005e2:	9304      	str	r3, [sp, #16]
 80005e4:	18db      	adds	r3, r3, r3
 80005e6:	9307      	str	r3, [sp, #28]
 80005e8:	9505      	str	r5, [sp, #20]
 80005ea:	9406      	str	r4, [sp, #24]
 80005ec:	f000 fee4 	bl	80013b8 <HAL_GPIO_Init>
 80005f0:	201e      	movs	r0, #30
 80005f2:	002a      	movs	r2, r5
 80005f4:	0021      	movs	r1, r4
 80005f6:	f000 fea9 	bl	800134c <HAL_NVIC_SetPriority>
 80005fa:	201e      	movs	r0, #30
 80005fc:	f000 fed0 	bl	80013a0 <HAL_NVIC_EnableIRQ>
 8000600:	b009      	add	sp, #36	; 0x24
 8000602:	bd30      	pop	{r4, r5, pc}
 8000604:	40006400 	.word	0x40006400
 8000608:	40021000 	.word	0x40021000
 800060c:	48000400 	.word	0x48000400

08000610 <HAL_SPI_MspInit>:
 8000610:	b510      	push	{r4, lr}
 8000612:	0004      	movs	r4, r0
 8000614:	b088      	sub	sp, #32
 8000616:	2214      	movs	r2, #20
 8000618:	2100      	movs	r1, #0
 800061a:	a803      	add	r0, sp, #12
 800061c:	f005 f843 	bl	80056a6 <memset>
 8000620:	4b13      	ldr	r3, [pc, #76]	; (8000670 <HAL_SPI_MspInit+0x60>)
 8000622:	6822      	ldr	r2, [r4, #0]
 8000624:	429a      	cmp	r2, r3
 8000626:	d120      	bne.n	800066a <HAL_SPI_MspInit+0x5a>
 8000628:	2080      	movs	r0, #128	; 0x80
 800062a:	4b12      	ldr	r3, [pc, #72]	; (8000674 <HAL_SPI_MspInit+0x64>)
 800062c:	0140      	lsls	r0, r0, #5
 800062e:	6999      	ldr	r1, [r3, #24]
 8000630:	4301      	orrs	r1, r0
 8000632:	6199      	str	r1, [r3, #24]
 8000634:	2180      	movs	r1, #128	; 0x80
 8000636:	699a      	ldr	r2, [r3, #24]
 8000638:	0289      	lsls	r1, r1, #10
 800063a:	4002      	ands	r2, r0
 800063c:	9201      	str	r2, [sp, #4]
 800063e:	9a01      	ldr	r2, [sp, #4]
 8000640:	695a      	ldr	r2, [r3, #20]
 8000642:	2090      	movs	r0, #144	; 0x90
 8000644:	430a      	orrs	r2, r1
 8000646:	615a      	str	r2, [r3, #20]
 8000648:	695b      	ldr	r3, [r3, #20]
 800064a:	2203      	movs	r2, #3
 800064c:	400b      	ands	r3, r1
 800064e:	9302      	str	r3, [sp, #8]
 8000650:	9b02      	ldr	r3, [sp, #8]
 8000652:	23e0      	movs	r3, #224	; 0xe0
 8000654:	9303      	str	r3, [sp, #12]
 8000656:	3bde      	subs	r3, #222	; 0xde
 8000658:	9304      	str	r3, [sp, #16]
 800065a:	2300      	movs	r3, #0
 800065c:	a903      	add	r1, sp, #12
 800065e:	05c0      	lsls	r0, r0, #23
 8000660:	9305      	str	r3, [sp, #20]
 8000662:	9206      	str	r2, [sp, #24]
 8000664:	9307      	str	r3, [sp, #28]
 8000666:	f000 fea7 	bl	80013b8 <HAL_GPIO_Init>
 800066a:	b008      	add	sp, #32
 800066c:	bd10      	pop	{r4, pc}
 800066e:	46c0      	nop			; (mov r8, r8)
 8000670:	40013000 	.word	0x40013000
 8000674:	40021000 	.word	0x40021000

08000678 <HAL_PCD_MspInit>:
 8000678:	4b08      	ldr	r3, [pc, #32]	; (800069c <HAL_PCD_MspInit+0x24>)
 800067a:	6802      	ldr	r2, [r0, #0]
 800067c:	b082      	sub	sp, #8
 800067e:	429a      	cmp	r2, r3
 8000680:	d109      	bne.n	8000696 <HAL_PCD_MspInit+0x1e>
 8000682:	2080      	movs	r0, #128	; 0x80
 8000684:	4a06      	ldr	r2, [pc, #24]	; (80006a0 <HAL_PCD_MspInit+0x28>)
 8000686:	0400      	lsls	r0, r0, #16
 8000688:	69d1      	ldr	r1, [r2, #28]
 800068a:	4301      	orrs	r1, r0
 800068c:	61d1      	str	r1, [r2, #28]
 800068e:	69d3      	ldr	r3, [r2, #28]
 8000690:	4003      	ands	r3, r0
 8000692:	9301      	str	r3, [sp, #4]
 8000694:	9b01      	ldr	r3, [sp, #4]
 8000696:	b002      	add	sp, #8
 8000698:	4770      	bx	lr
 800069a:	46c0      	nop			; (mov r8, r8)
 800069c:	40005c00 	.word	0x40005c00
 80006a0:	40021000 	.word	0x40021000

080006a4 <HAL_InitTick>:
 80006a4:	b510      	push	{r4, lr}
 80006a6:	0001      	movs	r1, r0
 80006a8:	b086      	sub	sp, #24
 80006aa:	2200      	movs	r2, #0
 80006ac:	200d      	movs	r0, #13
 80006ae:	f000 fe4d 	bl	800134c <HAL_NVIC_SetPriority>
 80006b2:	200d      	movs	r0, #13
 80006b4:	f000 fe74 	bl	80013a0 <HAL_NVIC_EnableIRQ>
 80006b8:	2080      	movs	r0, #128	; 0x80
 80006ba:	4a14      	ldr	r2, [pc, #80]	; (800070c <HAL_InitTick+0x68>)
 80006bc:	0100      	lsls	r0, r0, #4
 80006be:	6991      	ldr	r1, [r2, #24]
 80006c0:	4301      	orrs	r1, r0
 80006c2:	6191      	str	r1, [r2, #24]
 80006c4:	6993      	ldr	r3, [r2, #24]
 80006c6:	4669      	mov	r1, sp
 80006c8:	4003      	ands	r3, r0
 80006ca:	9301      	str	r3, [sp, #4]
 80006cc:	a802      	add	r0, sp, #8
 80006ce:	9b01      	ldr	r3, [sp, #4]
 80006d0:	f001 fb00 	bl	8001cd4 <HAL_RCC_GetClockConfig>
 80006d4:	f001 faee 	bl	8001cb4 <HAL_RCC_GetPCLK1Freq>
 80006d8:	4c0d      	ldr	r4, [pc, #52]	; (8000710 <HAL_InitTick+0x6c>)
 80006da:	4b0e      	ldr	r3, [pc, #56]	; (8000714 <HAL_InitTick+0x70>)
 80006dc:	490e      	ldr	r1, [pc, #56]	; (8000718 <HAL_InitTick+0x74>)
 80006de:	6023      	str	r3, [r4, #0]
 80006e0:	4b0e      	ldr	r3, [pc, #56]	; (800071c <HAL_InitTick+0x78>)
 80006e2:	60e3      	str	r3, [r4, #12]
 80006e4:	f7ff fd1a 	bl	800011c <__udivsi3>
 80006e8:	2300      	movs	r3, #0
 80006ea:	3801      	subs	r0, #1
 80006ec:	6060      	str	r0, [r4, #4]
 80006ee:	0020      	movs	r0, r4
 80006f0:	6123      	str	r3, [r4, #16]
 80006f2:	60a3      	str	r3, [r4, #8]
 80006f4:	f001 ff40 	bl	8002578 <HAL_TIM_Base_Init>
 80006f8:	0003      	movs	r3, r0
 80006fa:	2001      	movs	r0, #1
 80006fc:	2b00      	cmp	r3, #0
 80006fe:	d102      	bne.n	8000706 <HAL_InitTick+0x62>
 8000700:	0020      	movs	r0, r4
 8000702:	f001 fe11 	bl	8002328 <HAL_TIM_Base_Start_IT>
 8000706:	b006      	add	sp, #24
 8000708:	bd10      	pop	{r4, pc}
 800070a:	46c0      	nop			; (mov r8, r8)
 800070c:	40021000 	.word	0x40021000
 8000710:	20002cd8 	.word	0x20002cd8
 8000714:	40012c00 	.word	0x40012c00
 8000718:	000f4240 	.word	0x000f4240
 800071c:	000003e7 	.word	0x000003e7

08000720 <NMI_Handler>:
 8000720:	e7fe      	b.n	8000720 <NMI_Handler>
	...

08000724 <HardFault_Handler>:
 8000724:	2201      	movs	r2, #1
 8000726:	b510      	push	{r4, lr}
 8000728:	0011      	movs	r1, r2
 800072a:	4802      	ldr	r0, [pc, #8]	; (8000734 <HardFault_Handler+0x10>)
 800072c:	f000 ff0a 	bl	8001544 <HAL_GPIO_WritePin>
 8000730:	e7fe      	b.n	8000730 <HardFault_Handler+0xc>
 8000732:	46c0      	nop			; (mov r8, r8)
 8000734:	48000400 	.word	0x48000400

08000738 <EXTI0_1_IRQHandler>:
 8000738:	b510      	push	{r4, lr}
 800073a:	2001      	movs	r0, #1
 800073c:	f000 ff10 	bl	8001560 <HAL_GPIO_EXTI_IRQHandler>
 8000740:	2002      	movs	r0, #2
 8000742:	f000 ff0d 	bl	8001560 <HAL_GPIO_EXTI_IRQHandler>
 8000746:	bd10      	pop	{r4, pc}

08000748 <EXTI2_3_IRQHandler>:
 8000748:	b510      	push	{r4, lr}
 800074a:	2008      	movs	r0, #8
 800074c:	f000 ff08 	bl	8001560 <HAL_GPIO_EXTI_IRQHandler>
 8000750:	bd10      	pop	{r4, pc}

08000752 <EXTI4_15_IRQHandler>:
 8000752:	b510      	push	{r4, lr}
 8000754:	2010      	movs	r0, #16
 8000756:	f000 ff03 	bl	8001560 <HAL_GPIO_EXTI_IRQHandler>
 800075a:	2080      	movs	r0, #128	; 0x80
 800075c:	f000 ff00 	bl	8001560 <HAL_GPIO_EXTI_IRQHandler>
 8000760:	2080      	movs	r0, #128	; 0x80
 8000762:	0040      	lsls	r0, r0, #1
 8000764:	f000 fefc 	bl	8001560 <HAL_GPIO_EXTI_IRQHandler>
 8000768:	2080      	movs	r0, #128	; 0x80
 800076a:	0080      	lsls	r0, r0, #2
 800076c:	f000 fef8 	bl	8001560 <HAL_GPIO_EXTI_IRQHandler>
 8000770:	2080      	movs	r0, #128	; 0x80
 8000772:	00c0      	lsls	r0, r0, #3
 8000774:	f000 fef4 	bl	8001560 <HAL_GPIO_EXTI_IRQHandler>
 8000778:	2080      	movs	r0, #128	; 0x80
 800077a:	0140      	lsls	r0, r0, #5
 800077c:	f000 fef0 	bl	8001560 <HAL_GPIO_EXTI_IRQHandler>
 8000780:	2080      	movs	r0, #128	; 0x80
 8000782:	0180      	lsls	r0, r0, #6
 8000784:	f000 feec 	bl	8001560 <HAL_GPIO_EXTI_IRQHandler>
 8000788:	2080      	movs	r0, #128	; 0x80
 800078a:	0200      	lsls	r0, r0, #8
 800078c:	f000 fee8 	bl	8001560 <HAL_GPIO_EXTI_IRQHandler>
 8000790:	bd10      	pop	{r4, pc}
	...

08000794 <TIM1_BRK_UP_TRG_COM_IRQHandler>:
 8000794:	b510      	push	{r4, lr}
 8000796:	4802      	ldr	r0, [pc, #8]	; (80007a0 <TIM1_BRK_UP_TRG_COM_IRQHandler+0xc>)
 8000798:	f001 fdfa 	bl	8002390 <HAL_TIM_IRQHandler>
 800079c:	bd10      	pop	{r4, pc}
 800079e:	46c0      	nop			; (mov r8, r8)
 80007a0:	20002cd8 	.word	0x20002cd8

080007a4 <CEC_CAN_IRQHandler>:
 80007a4:	b510      	push	{r4, lr}
 80007a6:	4803      	ldr	r0, [pc, #12]	; (80007b4 <CEC_CAN_IRQHandler+0x10>)
 80007a8:	f000 fccf 	bl	800114a <HAL_CAN_IRQHandler>
 80007ac:	f000 f8f8 	bl	80009a0 <CPP_HandleCANRxInterrupt>
 80007b0:	bd10      	pop	{r4, pc}
 80007b2:	46c0      	nop			; (mov r8, r8)
 80007b4:	200023e0 	.word	0x200023e0

080007b8 <_getpid>:
 80007b8:	2001      	movs	r0, #1
 80007ba:	4770      	bx	lr

080007bc <_kill>:
 80007bc:	b510      	push	{r4, lr}
 80007be:	f004 ff29 	bl	8005614 <__errno>
 80007c2:	2316      	movs	r3, #22
 80007c4:	6003      	str	r3, [r0, #0]
 80007c6:	2001      	movs	r0, #1
 80007c8:	4240      	negs	r0, r0
 80007ca:	bd10      	pop	{r4, pc}

080007cc <_exit>:
 80007cc:	b510      	push	{r4, lr}
 80007ce:	f004 ff21 	bl	8005614 <__errno>
 80007d2:	2316      	movs	r3, #22
 80007d4:	6003      	str	r3, [r0, #0]
 80007d6:	e7fe      	b.n	80007d6 <_exit+0xa>

080007d8 <_sbrk>:
 80007d8:	4a0b      	ldr	r2, [pc, #44]	; (8000808 <_sbrk+0x30>)
 80007da:	490c      	ldr	r1, [pc, #48]	; (800080c <_sbrk+0x34>)
 80007dc:	0003      	movs	r3, r0
 80007de:	1a89      	subs	r1, r1, r2
 80007e0:	4a0b      	ldr	r2, [pc, #44]	; (8000810 <_sbrk+0x38>)
 80007e2:	b510      	push	{r4, lr}
 80007e4:	6810      	ldr	r0, [r2, #0]
 80007e6:	2800      	cmp	r0, #0
 80007e8:	d101      	bne.n	80007ee <_sbrk+0x16>
 80007ea:	480a      	ldr	r0, [pc, #40]	; (8000814 <_sbrk+0x3c>)
 80007ec:	6010      	str	r0, [r2, #0]
 80007ee:	6810      	ldr	r0, [r2, #0]
 80007f0:	18c3      	adds	r3, r0, r3
 80007f2:	428b      	cmp	r3, r1
 80007f4:	d906      	bls.n	8000804 <_sbrk+0x2c>
 80007f6:	f004 ff0d 	bl	8005614 <__errno>
 80007fa:	230c      	movs	r3, #12
 80007fc:	6003      	str	r3, [r0, #0]
 80007fe:	2001      	movs	r0, #1
 8000800:	4240      	negs	r0, r0
 8000802:	bd10      	pop	{r4, pc}
 8000804:	6013      	str	r3, [r2, #0]
 8000806:	e7fc      	b.n	8000802 <_sbrk+0x2a>
 8000808:	00000400 	.word	0x00000400
 800080c:	20004000 	.word	0x20004000
 8000810:	200000a0 	.word	0x200000a0
 8000814:	20002d78 	.word	0x20002d78

08000818 <SystemInit>:
 8000818:	4770      	bx	lr

0800081a <_ZNSt17_Function_handlerIFvvEPS0_E9_M_invokeERKSt9_Any_data>:
 800081a:	b510      	push	{r4, lr}
 800081c:	6803      	ldr	r3, [r0, #0]
 800081e:	4798      	blx	r3
 8000820:	bd10      	pop	{r4, pc}

08000822 <_ZNSt14_Function_base13_Base_managerIPFvvEE10_M_managerERSt9_Any_dataRKS4_St18_Manager_operation>:
 8000822:	2a01      	cmp	r2, #1
 8000824:	d003      	beq.n	800082e <_ZNSt14_Function_base13_Base_managerIPFvvEE10_M_managerERSt9_Any_dataRKS4_St18_Manager_operation+0xc>
 8000826:	2a02      	cmp	r2, #2
 8000828:	d003      	beq.n	8000832 <_ZNSt14_Function_base13_Base_managerIPFvvEE10_M_managerERSt9_Any_dataRKS4_St18_Manager_operation+0x10>
 800082a:	2000      	movs	r0, #0
 800082c:	4770      	bx	lr
 800082e:	6001      	str	r1, [r0, #0]
 8000830:	e7fb      	b.n	800082a <_ZNSt14_Function_base13_Base_managerIPFvvEE10_M_managerERSt9_Any_dataRKS4_St18_Manager_operation+0x8>
 8000832:	680b      	ldr	r3, [r1, #0]
 8000834:	6003      	str	r3, [r0, #0]
 8000836:	e7f8      	b.n	800082a <_ZNSt14_Function_base13_Base_managerIPFvvEE10_M_managerERSt9_Any_dataRKS4_St18_Manager_operation+0x8>

08000838 <_Z17UpdateTurnSignalsv>:
 8000838:	2101      	movs	r1, #1
 800083a:	b510      	push	{r4, lr}
 800083c:	4c1e      	ldr	r4, [pc, #120]	; (80008b8 <_Z17UpdateTurnSignalsv+0x80>)
 800083e:	4249      	negs	r1, r1
 8000840:	68e0      	ldr	r0, [r4, #12]
 8000842:	f002 ff29 	bl	8003698 <osMutexAcquire>
 8000846:	0020      	movs	r0, r4
 8000848:	f001 ff70 	bl	800272c <_ZNK11SolarGators11DataModules8Steering16GetHazardsStatusEv>
 800084c:	2800      	cmp	r0, #0
 800084e:	d025      	beq.n	800089c <_Z17UpdateTurnSignalsv+0x64>
 8000850:	481a      	ldr	r0, [pc, #104]	; (80008bc <_Z17UpdateTurnSignalsv+0x84>)
 8000852:	f002 fcd5 	bl	8003200 <_ZN11SolarGators7Drivers3LED6ToggleEv>
 8000856:	0020      	movs	r0, r4
 8000858:	f001 ff68 	bl	800272c <_ZNK11SolarGators11DataModules8Steering16GetHazardsStatusEv>
 800085c:	2800      	cmp	r0, #0
 800085e:	d109      	bne.n	8000874 <_Z17UpdateTurnSignalsv+0x3c>
 8000860:	0020      	movs	r0, r4
 8000862:	f001 ff60 	bl	8002726 <_ZNK11SolarGators11DataModules8Steering18GetRightTurnStatusEv>
 8000866:	1e02      	subs	r2, r0, #0
 8000868:	d104      	bne.n	8000874 <_Z17UpdateTurnSignalsv+0x3c>
 800086a:	2180      	movs	r1, #128	; 0x80
 800086c:	4814      	ldr	r0, [pc, #80]	; (80008c0 <_Z17UpdateTurnSignalsv+0x88>)
 800086e:	01c9      	lsls	r1, r1, #7
 8000870:	f000 fe68 	bl	8001544 <HAL_GPIO_WritePin>
 8000874:	0020      	movs	r0, r4
 8000876:	f001 ff59 	bl	800272c <_ZNK11SolarGators11DataModules8Steering16GetHazardsStatusEv>
 800087a:	2800      	cmp	r0, #0
 800087c:	d10a      	bne.n	8000894 <_Z17UpdateTurnSignalsv+0x5c>
 800087e:	0020      	movs	r0, r4
 8000880:	f001 ff4e 	bl	8002720 <_ZNK11SolarGators11DataModules8Steering17GetLeftTurnStatusEv>
 8000884:	1e02      	subs	r2, r0, #0
 8000886:	d105      	bne.n	8000894 <_Z17UpdateTurnSignalsv+0x5c>
 8000888:	2180      	movs	r1, #128	; 0x80
 800088a:	2090      	movs	r0, #144	; 0x90
 800088c:	0089      	lsls	r1, r1, #2
 800088e:	05c0      	lsls	r0, r0, #23
 8000890:	f000 fe58 	bl	8001544 <HAL_GPIO_WritePin>
 8000894:	68e0      	ldr	r0, [r4, #12]
 8000896:	f002 ff2b 	bl	80036f0 <osMutexRelease>
 800089a:	bd10      	pop	{r4, pc}
 800089c:	0020      	movs	r0, r4
 800089e:	f001 ff42 	bl	8002726 <_ZNK11SolarGators11DataModules8Steering18GetRightTurnStatusEv>
 80008a2:	2800      	cmp	r0, #0
 80008a4:	d001      	beq.n	80008aa <_Z17UpdateTurnSignalsv+0x72>
 80008a6:	4807      	ldr	r0, [pc, #28]	; (80008c4 <_Z17UpdateTurnSignalsv+0x8c>)
 80008a8:	e7d3      	b.n	8000852 <_Z17UpdateTurnSignalsv+0x1a>
 80008aa:	0020      	movs	r0, r4
 80008ac:	f001 ff38 	bl	8002720 <_ZNK11SolarGators11DataModules8Steering17GetLeftTurnStatusEv>
 80008b0:	2800      	cmp	r0, #0
 80008b2:	d0d0      	beq.n	8000856 <_Z17UpdateTurnSignalsv+0x1e>
 80008b4:	e7cc      	b.n	8000850 <_Z17UpdateTurnSignalsv+0x18>
 80008b6:	46c0      	nop			; (mov r8, r8)
 80008b8:	20000298 	.word	0x20000298
 80008bc:	20000978 	.word	0x20000978
 80008c0:	48000800 	.word	0x48000800
 80008c4:	200009f8 	.word	0x200009f8

080008c8 <_Z9HandleEcov>:
 80008c8:	b510      	push	{r4, lr}
 80008ca:	4803      	ldr	r0, [pc, #12]	; (80008d8 <_Z9HandleEcov+0x10>)
 80008cc:	f002 f8a3 	bl	8002a16 <_ZN11SolarGators11DataModules18SteeringController9ToggleEcoEv>
 80008d0:	4802      	ldr	r0, [pc, #8]	; (80008dc <_Z9HandleEcov+0x14>)
 80008d2:	f002 fc95 	bl	8003200 <_ZN11SolarGators7Drivers3LED6ToggleEv>
 80008d6:	bd10      	pop	{r4, pc}
 80008d8:	20000298 	.word	0x20000298
 80008dc:	200008a0 	.word	0x200008a0

080008e0 <_Z16HandleHeadLightsv>:
 80008e0:	b510      	push	{r4, lr}
 80008e2:	4803      	ldr	r0, [pc, #12]	; (80008f0 <_Z16HandleHeadLightsv+0x10>)
 80008e4:	f002 f865 	bl	80029b2 <_ZN11SolarGators11DataModules18SteeringController16ToggleHeadlightsEv>
 80008e8:	4802      	ldr	r0, [pc, #8]	; (80008f4 <_Z16HandleHeadLightsv+0x14>)
 80008ea:	f002 fc89 	bl	8003200 <_ZN11SolarGators7Drivers3LED6ToggleEv>
 80008ee:	bd10      	pop	{r4, pc}
 80008f0:	20000298 	.word	0x20000298
 80008f4:	2000090c 	.word	0x2000090c

080008f8 <_Z12HandleCruisev>:
 80008f8:	b510      	push	{r4, lr}
 80008fa:	4803      	ldr	r0, [pc, #12]	; (8000908 <_Z12HandleCruisev+0x10>)
 80008fc:	f002 f84d 	bl	800299a <_ZN11SolarGators11DataModules18SteeringController12ToggleCruiseEv>
 8000900:	4802      	ldr	r0, [pc, #8]	; (800090c <_Z12HandleCruisev+0x14>)
 8000902:	f002 fc7d 	bl	8003200 <_ZN11SolarGators7Drivers3LED6ToggleEv>
 8000906:	bd10      	pop	{r4, pc}
 8000908:	20000298 	.word	0x20000298
 800090c:	200007d8 	.word	0x200007d8

08000910 <_Z13HandleReversev>:
 8000910:	b510      	push	{r4, lr}
 8000912:	4803      	ldr	r0, [pc, #12]	; (8000920 <_Z13HandleReversev+0x10>)
 8000914:	f002 f873 	bl	80029fe <_ZN11SolarGators11DataModules18SteeringController13ToggleReverseEv>
 8000918:	4802      	ldr	r0, [pc, #8]	; (8000924 <_Z13HandleReversev+0x14>)
 800091a:	f002 fc71 	bl	8003200 <_ZN11SolarGators7Drivers3LED6ToggleEv>
 800091e:	bd10      	pop	{r4, pc}
 8000920:	20000298 	.word	0x20000298
 8000924:	2000098c 	.word	0x2000098c

08000928 <_ZNSt14_Function_base13_Base_managerISt5_BindIFMN11SolarGators11DataModules18SteeringControllerEFvvEPS4_EEE10_M_managerERSt9_Any_dataRKSB_St18_Manager_operation>:
 8000928:	b570      	push	{r4, r5, r6, lr}
 800092a:	0004      	movs	r4, r0
 800092c:	2a02      	cmp	r2, #2
 800092e:	d007      	beq.n	8000940 <_ZNSt14_Function_base13_Base_managerISt5_BindIFMN11SolarGators11DataModules18SteeringControllerEFvvEPS4_EEE10_M_managerERSt9_Any_dataRKSB_St18_Manager_operation+0x18>
 8000930:	2a03      	cmp	r2, #3
 8000932:	d00e      	beq.n	8000952 <_ZNSt14_Function_base13_Base_managerISt5_BindIFMN11SolarGators11DataModules18SteeringControllerEFvvEPS4_EEE10_M_managerERSt9_Any_dataRKSB_St18_Manager_operation+0x2a>
 8000934:	2a01      	cmp	r2, #1
 8000936:	d101      	bne.n	800093c <_ZNSt14_Function_base13_Base_managerISt5_BindIFMN11SolarGators11DataModules18SteeringControllerEFvvEPS4_EEE10_M_managerERSt9_Any_dataRKSB_St18_Manager_operation+0x14>
 8000938:	680b      	ldr	r3, [r1, #0]
 800093a:	6003      	str	r3, [r0, #0]
 800093c:	2000      	movs	r0, #0
 800093e:	bd70      	pop	{r4, r5, r6, pc}
 8000940:	200c      	movs	r0, #12
 8000942:	680d      	ldr	r5, [r1, #0]
 8000944:	f004 fe32 	bl	80055ac <_Znwj>
 8000948:	0003      	movs	r3, r0
 800094a:	cd46      	ldmia	r5!, {r1, r2, r6}
 800094c:	c346      	stmia	r3!, {r1, r2, r6}
 800094e:	6020      	str	r0, [r4, #0]
 8000950:	e7f4      	b.n	800093c <_ZNSt14_Function_base13_Base_managerISt5_BindIFMN11SolarGators11DataModules18SteeringControllerEFvvEPS4_EEE10_M_managerERSt9_Any_dataRKSB_St18_Manager_operation+0x14>
 8000952:	6800      	ldr	r0, [r0, #0]
 8000954:	2800      	cmp	r0, #0
 8000956:	d0f1      	beq.n	800093c <_ZNSt14_Function_base13_Base_managerISt5_BindIFMN11SolarGators11DataModules18SteeringControllerEFvvEPS4_EEE10_M_managerERSt9_Any_dataRKSB_St18_Manager_operation+0x14>
 8000958:	210c      	movs	r1, #12
 800095a:	f004 fe23 	bl	80055a4 <_ZdlPvj>
 800095e:	e7ed      	b.n	800093c <_ZNSt14_Function_base13_Base_managerISt5_BindIFMN11SolarGators11DataModules18SteeringControllerEFvvEPS4_EEE10_M_managerERSt9_Any_dataRKSB_St18_Manager_operation+0x14>

08000960 <_ZNSt17_Function_handlerIFvvESt5_BindIFMN11SolarGators11DataModules18SteeringControllerEFvvEPS4_EEE9_M_invokeERKSt9_Any_data>:
 8000960:	b510      	push	{r4, lr}
 8000962:	6803      	ldr	r3, [r0, #0]
 8000964:	685a      	ldr	r2, [r3, #4]
 8000966:	6899      	ldr	r1, [r3, #8]
 8000968:	1050      	asrs	r0, r2, #1
 800096a:	681b      	ldr	r3, [r3, #0]
 800096c:	1808      	adds	r0, r1, r0
 800096e:	07d2      	lsls	r2, r2, #31
 8000970:	d501      	bpl.n	8000976 <_ZNSt17_Function_handlerIFvvESt5_BindIFMN11SolarGators11DataModules18SteeringControllerEFvvEPS4_EEE9_M_invokeERKSt9_Any_data+0x16>
 8000972:	6802      	ldr	r2, [r0, #0]
 8000974:	58d3      	ldr	r3, [r2, r3]
 8000976:	4798      	blx	r3
 8000978:	bd10      	pop	{r4, pc}

0800097a <_ZNSt14_Function_baseD1Ev>:
 800097a:	6883      	ldr	r3, [r0, #8]
 800097c:	b510      	push	{r4, lr}
 800097e:	0004      	movs	r4, r0
 8000980:	2b00      	cmp	r3, #0
 8000982:	d002      	beq.n	800098a <_ZNSt14_Function_baseD1Ev+0x10>
 8000984:	2203      	movs	r2, #3
 8000986:	0001      	movs	r1, r0
 8000988:	4798      	blx	r3
 800098a:	0020      	movs	r0, r4
 800098c:	bd10      	pop	{r4, pc}
	...

08000990 <CPP_HandleGPIOInterrupt>:
 8000990:	b510      	push	{r4, lr}
 8000992:	0001      	movs	r1, r0
 8000994:	4801      	ldr	r0, [pc, #4]	; (800099c <CPP_HandleGPIOInterrupt+0xc>)
 8000996:	f002 f844 	bl	8002a22 <_ZN11SolarGators11DataModules18SteeringController11HandlePressEt>
 800099a:	bd10      	pop	{r4, pc}
 800099c:	20000298 	.word	0x20000298

080009a0 <CPP_HandleCANRxInterrupt>:
 80009a0:	b510      	push	{r4, lr}
 80009a2:	4802      	ldr	r0, [pc, #8]	; (80009ac <CPP_HandleCANRxInterrupt+0xc>)
 80009a4:	f002 f972 	bl	8002c8c <_ZN11SolarGators7Drivers9CANDriver13HandleReceiveEv>
 80009a8:	bd10      	pop	{r4, pc}
 80009aa:	46c0      	nop			; (mov r8, r8)
 80009ac:	200000a4 	.word	0x200000a4

080009b0 <_ZSt4swapISt9_Any_dataENSt9enable_ifIXsrSt6__and_IJSt6__not_ISt15__is_tuple_likeIT_EESt21is_move_constructibleIS5_ESt18is_move_assignableIS5_EEE5valueEvE4typeERS5_SF_>:
 80009b0:	b573      	push	{r0, r1, r4, r5, r6, lr}
 80009b2:	466b      	mov	r3, sp
 80009b4:	0004      	movs	r4, r0
 80009b6:	001a      	movs	r2, r3
 80009b8:	cc60      	ldmia	r4!, {r5, r6}
 80009ba:	c260      	stmia	r2!, {r5, r6}
 80009bc:	000a      	movs	r2, r1
 80009be:	ca30      	ldmia	r2!, {r4, r5}
 80009c0:	c030      	stmia	r0!, {r4, r5}
 80009c2:	cb05      	ldmia	r3!, {r0, r2}
 80009c4:	c105      	stmia	r1!, {r0, r2}
 80009c6:	bd73      	pop	{r0, r1, r4, r5, r6, pc}

080009c8 <_ZNSt8functionIFvvEEaSISt5_BindIFMN11SolarGators11DataModules18SteeringControllerEFvvEPS6_EEEENSt9enable_ifIXsrNS1_9_CallableINSt5decayIT_E4typeESt15__invoke_resultIRSH_JEEEE5valueERS1_E4typeEOSF_>:
 80009c8:	b570      	push	{r4, r5, r6, lr}
 80009ca:	b088      	sub	sp, #32
 80009cc:	ad01      	add	r5, sp, #4
 80009ce:	000a      	movs	r2, r1
 80009d0:	002b      	movs	r3, r5
 80009d2:	0004      	movs	r4, r0
 80009d4:	ca41      	ldmia	r2!, {r0, r6}
 80009d6:	c341      	stmia	r3!, {r0, r6}
 80009d8:	2300      	movs	r3, #0
 80009da:	200c      	movs	r0, #12
 80009dc:	688e      	ldr	r6, [r1, #8]
 80009de:	9306      	str	r3, [sp, #24]
 80009e0:	f004 fde4 	bl	80055ac <_Znwj>
 80009e4:	0003      	movs	r3, r0
 80009e6:	cd06      	ldmia	r5!, {r1, r2}
 80009e8:	c306      	stmia	r3!, {r1, r2}
 80009ea:	4b0c      	ldr	r3, [pc, #48]	; (8000a1c <_ZNSt8functionIFvvEEaSISt5_BindIFMN11SolarGators11DataModules18SteeringControllerEFvvEPS6_EEEENSt9enable_ifIXsrNS1_9_CallableINSt5decayIT_E4typeESt15__invoke_resultIRSH_JEEEE5valueERS1_E4typeEOSF_+0x54>)
 80009ec:	0021      	movs	r1, r4
 80009ee:	9307      	str	r3, [sp, #28]
 80009f0:	4b0b      	ldr	r3, [pc, #44]	; (8000a20 <_ZNSt8functionIFvvEEaSISt5_BindIFMN11SolarGators11DataModules18SteeringControllerEFvvEPS6_EEEENSt9enable_ifIXsrNS1_9_CallableINSt5decayIT_E4typeESt15__invoke_resultIRSH_JEEEE5valueERS1_E4typeEOSF_+0x58>)
 80009f2:	6086      	str	r6, [r0, #8]
 80009f4:	9004      	str	r0, [sp, #16]
 80009f6:	a804      	add	r0, sp, #16
 80009f8:	9306      	str	r3, [sp, #24]
 80009fa:	f7ff ffd9 	bl	80009b0 <_ZSt4swapISt9_Any_dataENSt9enable_ifIXsrSt6__and_IJSt6__not_ISt15__is_tuple_likeIT_EESt21is_move_constructibleIS5_ESt18is_move_assignableIS5_EEE5valueEvE4typeERS5_SF_>
 80009fe:	9b06      	ldr	r3, [sp, #24]
 8000a00:	68a2      	ldr	r2, [r4, #8]
 8000a02:	60a3      	str	r3, [r4, #8]
 8000a04:	9b07      	ldr	r3, [sp, #28]
 8000a06:	9206      	str	r2, [sp, #24]
 8000a08:	68e2      	ldr	r2, [r4, #12]
 8000a0a:	a804      	add	r0, sp, #16
 8000a0c:	60e3      	str	r3, [r4, #12]
 8000a0e:	9207      	str	r2, [sp, #28]
 8000a10:	f7ff ffb3 	bl	800097a <_ZNSt14_Function_baseD1Ev>
 8000a14:	0020      	movs	r0, r4
 8000a16:	b008      	add	sp, #32
 8000a18:	bd70      	pop	{r4, r5, r6, pc}
 8000a1a:	46c0      	nop			; (mov r8, r8)
 8000a1c:	08000961 	.word	0x08000961
 8000a20:	08000929 	.word	0x08000929

08000a24 <_ZNSt8functionIFvvEEaSIRS0_EENSt9enable_ifIXsrNS1_9_CallableINSt5decayIT_E4typeESt15__invoke_resultIRS9_JEEEE5valueERS1_E4typeEOS7_>:
 8000a24:	b51f      	push	{r0, r1, r2, r3, r4, lr}
 8000a26:	0004      	movs	r4, r0
 8000a28:	4b0b      	ldr	r3, [pc, #44]	; (8000a58 <_ZNSt8functionIFvvEEaSIRS0_EENSt9enable_ifIXsrNS1_9_CallableINSt5decayIT_E4typeESt15__invoke_resultIRS9_JEEEE5valueERS1_E4typeEOS7_+0x34>)
 8000a2a:	9100      	str	r1, [sp, #0]
 8000a2c:	9303      	str	r3, [sp, #12]
 8000a2e:	4b0b      	ldr	r3, [pc, #44]	; (8000a5c <_ZNSt8functionIFvvEEaSIRS0_EENSt9enable_ifIXsrNS1_9_CallableINSt5decayIT_E4typeESt15__invoke_resultIRS9_JEEEE5valueERS1_E4typeEOS7_+0x38>)
 8000a30:	0001      	movs	r1, r0
 8000a32:	4668      	mov	r0, sp
 8000a34:	9302      	str	r3, [sp, #8]
 8000a36:	f7ff ffbb 	bl	80009b0 <_ZSt4swapISt9_Any_dataENSt9enable_ifIXsrSt6__and_IJSt6__not_ISt15__is_tuple_likeIT_EESt21is_move_constructibleIS5_ESt18is_move_assignableIS5_EEE5valueEvE4typeERS5_SF_>
 8000a3a:	9b02      	ldr	r3, [sp, #8]
 8000a3c:	68a2      	ldr	r2, [r4, #8]
 8000a3e:	60a3      	str	r3, [r4, #8]
 8000a40:	9b03      	ldr	r3, [sp, #12]
 8000a42:	9202      	str	r2, [sp, #8]
 8000a44:	68e2      	ldr	r2, [r4, #12]
 8000a46:	4668      	mov	r0, sp
 8000a48:	60e3      	str	r3, [r4, #12]
 8000a4a:	9203      	str	r2, [sp, #12]
 8000a4c:	f7ff ff95 	bl	800097a <_ZNSt14_Function_baseD1Ev>
 8000a50:	0020      	movs	r0, r4
 8000a52:	b004      	add	sp, #16
 8000a54:	bd10      	pop	{r4, pc}
 8000a56:	46c0      	nop			; (mov r8, r8)
 8000a58:	0800081b 	.word	0x0800081b
 8000a5c:	08000823 	.word	0x08000823

08000a60 <_GLOBAL__sub_I_Controller>:
 8000a60:	b5f7      	push	{r0, r1, r2, r4, r5, r6, r7, lr}
 8000a62:	4846      	ldr	r0, [pc, #280]	; (8000b7c <_GLOBAL__sub_I_Controller+0x11c>)
 8000a64:	f001 feea 	bl	800283c <_ZN11SolarGators11DataModules18SteeringControllerC1Ev>
 8000a68:	2201      	movs	r2, #1
 8000a6a:	4945      	ldr	r1, [pc, #276]	; (8000b80 <_GLOBAL__sub_I_Controller+0x120>)
 8000a6c:	4845      	ldr	r0, [pc, #276]	; (8000b84 <_GLOBAL__sub_I_Controller+0x124>)
 8000a6e:	2401      	movs	r4, #1
 8000a70:	2600      	movs	r6, #0
 8000a72:	f002 f8d5 	bl	8002c20 <_ZN11SolarGators7Drivers9CANDriverC1ER19__CAN_HandleTypeDefm>
 8000a76:	2380      	movs	r3, #128	; 0x80
 8000a78:	4d43      	ldr	r5, [pc, #268]	; (8000b88 <_GLOBAL__sub_I_Controller+0x128>)
 8000a7a:	9600      	str	r6, [sp, #0]
 8000a7c:	002a      	movs	r2, r5
 8000a7e:	4943      	ldr	r1, [pc, #268]	; (8000b8c <_GLOBAL__sub_I_Controller+0x12c>)
 8000a80:	9401      	str	r4, [sp, #4]
 8000a82:	00db      	lsls	r3, r3, #3
 8000a84:	2790      	movs	r7, #144	; 0x90
 8000a86:	4842      	ldr	r0, [pc, #264]	; (8000b90 <_GLOBAL__sub_I_Controller+0x130>)
 8000a88:	f002 f866 	bl	8002b58 <_ZN11SolarGators7Drivers6ButtonC1EPKcP12GPIO_TypeDeftt13GPIO_PinState>
 8000a8c:	2380      	movs	r3, #128	; 0x80
 8000a8e:	05ff      	lsls	r7, r7, #23
 8000a90:	003a      	movs	r2, r7
 8000a92:	9600      	str	r6, [sp, #0]
 8000a94:	493f      	ldr	r1, [pc, #252]	; (8000b94 <_GLOBAL__sub_I_Controller+0x134>)
 8000a96:	9401      	str	r4, [sp, #4]
 8000a98:	005b      	lsls	r3, r3, #1
 8000a9a:	483f      	ldr	r0, [pc, #252]	; (8000b98 <_GLOBAL__sub_I_Controller+0x138>)
 8000a9c:	f002 f85c 	bl	8002b58 <_ZN11SolarGators7Drivers6ButtonC1EPKcP12GPIO_TypeDeftt13GPIO_PinState>
 8000aa0:	2380      	movs	r3, #128	; 0x80
 8000aa2:	002a      	movs	r2, r5
 8000aa4:	9600      	str	r6, [sp, #0]
 8000aa6:	493d      	ldr	r1, [pc, #244]	; (8000b9c <_GLOBAL__sub_I_Controller+0x13c>)
 8000aa8:	9401      	str	r4, [sp, #4]
 8000aaa:	009b      	lsls	r3, r3, #2
 8000aac:	483c      	ldr	r0, [pc, #240]	; (8000ba0 <_GLOBAL__sub_I_Controller+0x140>)
 8000aae:	f002 f853 	bl	8002b58 <_ZN11SolarGators7Drivers6ButtonC1EPKcP12GPIO_TypeDeftt13GPIO_PinState>
 8000ab2:	002a      	movs	r2, r5
 8000ab4:	9600      	str	r6, [sp, #0]
 8000ab6:	2380      	movs	r3, #128	; 0x80
 8000ab8:	493a      	ldr	r1, [pc, #232]	; (8000ba4 <_GLOBAL__sub_I_Controller+0x144>)
 8000aba:	9401      	str	r4, [sp, #4]
 8000abc:	483a      	ldr	r0, [pc, #232]	; (8000ba8 <_GLOBAL__sub_I_Controller+0x148>)
 8000abe:	f002 f84b 	bl	8002b58 <_ZN11SolarGators7Drivers6ButtonC1EPKcP12GPIO_TypeDeftt13GPIO_PinState>
 8000ac2:	2380      	movs	r3, #128	; 0x80
 8000ac4:	9600      	str	r6, [sp, #0]
 8000ac6:	4a39      	ldr	r2, [pc, #228]	; (8000bac <_GLOBAL__sub_I_Controller+0x14c>)
 8000ac8:	4930      	ldr	r1, [pc, #192]	; (8000b8c <_GLOBAL__sub_I_Controller+0x12c>)
 8000aca:	9401      	str	r4, [sp, #4]
 8000acc:	015b      	lsls	r3, r3, #5
 8000ace:	4838      	ldr	r0, [pc, #224]	; (8000bb0 <_GLOBAL__sub_I_Controller+0x150>)
 8000ad0:	f002 f842 	bl	8002b58 <_ZN11SolarGators7Drivers6ButtonC1EPKcP12GPIO_TypeDeftt13GPIO_PinState>
 8000ad4:	2380      	movs	r3, #128	; 0x80
 8000ad6:	002a      	movs	r2, r5
 8000ad8:	9600      	str	r6, [sp, #0]
 8000ada:	4936      	ldr	r1, [pc, #216]	; (8000bb4 <_GLOBAL__sub_I_Controller+0x154>)
 8000adc:	9401      	str	r4, [sp, #4]
 8000ade:	019b      	lsls	r3, r3, #6
 8000ae0:	4835      	ldr	r0, [pc, #212]	; (8000bb8 <_GLOBAL__sub_I_Controller+0x158>)
 8000ae2:	f002 f839 	bl	8002b58 <_ZN11SolarGators7Drivers6ButtonC1EPKcP12GPIO_TypeDeftt13GPIO_PinState>
 8000ae6:	2380      	movs	r3, #128	; 0x80
 8000ae8:	002a      	movs	r2, r5
 8000aea:	9600      	str	r6, [sp, #0]
 8000aec:	4933      	ldr	r1, [pc, #204]	; (8000bbc <_GLOBAL__sub_I_Controller+0x15c>)
 8000aee:	9401      	str	r4, [sp, #4]
 8000af0:	021b      	lsls	r3, r3, #8
 8000af2:	4833      	ldr	r0, [pc, #204]	; (8000bc0 <_GLOBAL__sub_I_Controller+0x160>)
 8000af4:	f002 f830 	bl	8002b58 <_ZN11SolarGators7Drivers6ButtonC1EPKcP12GPIO_TypeDeftt13GPIO_PinState>
 8000af8:	002a      	movs	r2, r5
 8000afa:	0023      	movs	r3, r4
 8000afc:	9600      	str	r6, [sp, #0]
 8000afe:	4931      	ldr	r1, [pc, #196]	; (8000bc4 <_GLOBAL__sub_I_Controller+0x164>)
 8000b00:	9401      	str	r4, [sp, #4]
 8000b02:	4831      	ldr	r0, [pc, #196]	; (8000bc8 <_GLOBAL__sub_I_Controller+0x168>)
 8000b04:	f002 f828 	bl	8002b58 <_ZN11SolarGators7Drivers6ButtonC1EPKcP12GPIO_TypeDeftt13GPIO_PinState>
 8000b08:	002a      	movs	r2, r5
 8000b0a:	9600      	str	r6, [sp, #0]
 8000b0c:	2302      	movs	r3, #2
 8000b0e:	492f      	ldr	r1, [pc, #188]	; (8000bcc <_GLOBAL__sub_I_Controller+0x16c>)
 8000b10:	9401      	str	r4, [sp, #4]
 8000b12:	482f      	ldr	r0, [pc, #188]	; (8000bd0 <_GLOBAL__sub_I_Controller+0x170>)
 8000b14:	f002 f820 	bl	8002b58 <_ZN11SolarGators7Drivers6ButtonC1EPKcP12GPIO_TypeDeftt13GPIO_PinState>
 8000b18:	4b2e      	ldr	r3, [pc, #184]	; (8000bd4 <_GLOBAL__sub_I_Controller+0x174>)
 8000b1a:	002a      	movs	r2, r5
 8000b1c:	9300      	str	r3, [sp, #0]
 8000b1e:	492e      	ldr	r1, [pc, #184]	; (8000bd8 <_GLOBAL__sub_I_Controller+0x178>)
 8000b20:	2308      	movs	r3, #8
 8000b22:	9401      	str	r4, [sp, #4]
 8000b24:	482d      	ldr	r0, [pc, #180]	; (8000bdc <_GLOBAL__sub_I_Controller+0x17c>)
 8000b26:	f002 f817 	bl	8002b58 <_ZN11SolarGators7Drivers6ButtonC1EPKcP12GPIO_TypeDeftt13GPIO_PinState>
 8000b2a:	2380      	movs	r3, #128	; 0x80
 8000b2c:	003a      	movs	r2, r7
 8000b2e:	492c      	ldr	r1, [pc, #176]	; (8000be0 <_GLOBAL__sub_I_Controller+0x180>)
 8000b30:	009b      	lsls	r3, r3, #2
 8000b32:	482c      	ldr	r0, [pc, #176]	; (8000be4 <_GLOBAL__sub_I_Controller+0x184>)
 8000b34:	f002 fb52 	bl	80031dc <_ZN11SolarGators7Drivers3LEDC1EPKcP12GPIO_TypeDeft>
 8000b38:	2380      	movs	r3, #128	; 0x80
 8000b3a:	002a      	movs	r2, r5
 8000b3c:	492a      	ldr	r1, [pc, #168]	; (8000be8 <_GLOBAL__sub_I_Controller+0x188>)
 8000b3e:	005b      	lsls	r3, r3, #1
 8000b40:	482a      	ldr	r0, [pc, #168]	; (8000bec <_GLOBAL__sub_I_Controller+0x18c>)
 8000b42:	f002 fb4b 	bl	80031dc <_ZN11SolarGators7Drivers3LEDC1EPKcP12GPIO_TypeDeft>
 8000b46:	002a      	movs	r2, r5
 8000b48:	2340      	movs	r3, #64	; 0x40
 8000b4a:	4929      	ldr	r1, [pc, #164]	; (8000bf0 <_GLOBAL__sub_I_Controller+0x190>)
 8000b4c:	4829      	ldr	r0, [pc, #164]	; (8000bf4 <_GLOBAL__sub_I_Controller+0x194>)
 8000b4e:	f002 fb45 	bl	80031dc <_ZN11SolarGators7Drivers3LEDC1EPKcP12GPIO_TypeDeft>
 8000b52:	2380      	movs	r3, #128	; 0x80
 8000b54:	002a      	movs	r2, r5
 8000b56:	4928      	ldr	r1, [pc, #160]	; (8000bf8 <_GLOBAL__sub_I_Controller+0x198>)
 8000b58:	01db      	lsls	r3, r3, #7
 8000b5a:	4828      	ldr	r0, [pc, #160]	; (8000bfc <_GLOBAL__sub_I_Controller+0x19c>)
 8000b5c:	f002 fb3e 	bl	80031dc <_ZN11SolarGators7Drivers3LEDC1EPKcP12GPIO_TypeDeft>
 8000b60:	002a      	movs	r2, r5
 8000b62:	2304      	movs	r3, #4
 8000b64:	4926      	ldr	r1, [pc, #152]	; (8000c00 <_GLOBAL__sub_I_Controller+0x1a0>)
 8000b66:	4827      	ldr	r0, [pc, #156]	; (8000c04 <_GLOBAL__sub_I_Controller+0x1a4>)
 8000b68:	f002 fb38 	bl	80031dc <_ZN11SolarGators7Drivers3LEDC1EPKcP12GPIO_TypeDeft>
 8000b6c:	003a      	movs	r2, r7
 8000b6e:	0023      	movs	r3, r4
 8000b70:	4925      	ldr	r1, [pc, #148]	; (8000c08 <_GLOBAL__sub_I_Controller+0x1a8>)
 8000b72:	4826      	ldr	r0, [pc, #152]	; (8000c0c <_GLOBAL__sub_I_Controller+0x1ac>)
 8000b74:	f002 fb32 	bl	80031dc <_ZN11SolarGators7Drivers3LEDC1EPKcP12GPIO_TypeDeft>
 8000b78:	bdf7      	pop	{r0, r1, r2, r4, r5, r6, r7, pc}
 8000b7a:	46c0      	nop			; (mov r8, r8)
 8000b7c:	20000298 	.word	0x20000298
 8000b80:	200023e0 	.word	0x200023e0
 8000b84:	200000a4 	.word	0x200000a4
 8000b88:	48000800 	.word	0x48000800
 8000b8c:	08005a54 	.word	0x08005a54
 8000b90:	2000094c 	.word	0x2000094c
 8000b94:	08005a5e 	.word	0x08005a5e
 8000b98:	20000818 	.word	0x20000818
 8000b9c:	08005a6b 	.word	0x08005a6b
 8000ba0:	20000874 	.word	0x20000874
 8000ba4:	08005a74 	.word	0x08005a74
 8000ba8:	200008e0 	.word	0x200008e0
 8000bac:	48000400 	.word	0x48000400
 8000bb0:	200008b4 	.word	0x200008b4
 8000bb4:	08005a7f 	.word	0x08005a7f
 8000bb8:	200009cc 	.word	0x200009cc
 8000bbc:	08005a8a 	.word	0x08005a8a
 8000bc0:	20000844 	.word	0x20000844
 8000bc4:	08005a96 	.word	0x08005a96
 8000bc8:	20000920 	.word	0x20000920
 8000bcc:	08005a9b 	.word	0x08005a9b
 8000bd0:	200007ec 	.word	0x200007ec
 8000bd4:	00000bb8 	.word	0x00000bb8
 8000bd8:	08005aa2 	.word	0x08005aa2
 8000bdc:	200009a0 	.word	0x200009a0
 8000be0:	08005aaa 	.word	0x08005aaa
 8000be4:	20000978 	.word	0x20000978
 8000be8:	08005ab7 	.word	0x08005ab7
 8000bec:	200008a0 	.word	0x200008a0
 8000bf0:	08005ac5 	.word	0x08005ac5
 8000bf4:	2000090c 	.word	0x2000090c
 8000bf8:	08005ad2 	.word	0x08005ad2
 8000bfc:	200009f8 	.word	0x200009f8
 8000c00:	08005adf 	.word	0x08005adf
 8000c04:	200007d8 	.word	0x200007d8
 8000c08:	08005aec 	.word	0x08005aec
 8000c0c:	2000098c 	.word	0x2000098c

08000c10 <CPP_UserSetup>:
 8000c10:	b5f0      	push	{r4, r5, r6, r7, lr}
 8000c12:	2600      	movs	r6, #0
 8000c14:	b087      	sub	sp, #28
 8000c16:	4d48      	ldr	r5, [pc, #288]	; (8000d38 <CPP_UserSetup+0x128>)
 8000c18:	ac03      	add	r4, sp, #12
 8000c1a:	4b48      	ldr	r3, [pc, #288]	; (8000d3c <CPP_UserSetup+0x12c>)
 8000c1c:	0021      	movs	r1, r4
 8000c1e:	4848      	ldr	r0, [pc, #288]	; (8000d40 <CPP_UserSetup+0x130>)
 8000c20:	9303      	str	r3, [sp, #12]
 8000c22:	9604      	str	r6, [sp, #16]
 8000c24:	60a5      	str	r5, [r4, #8]
 8000c26:	f7ff fecf 	bl	80009c8 <_ZNSt8functionIFvvEEaSISt5_BindIFMN11SolarGators11DataModules18SteeringControllerEFvvEPS6_EEEENSt9enable_ifIXsrNS1_9_CallableINSt5decayIT_E4typeESt15__invoke_resultIRSH_JEEEE5valueERS1_E4typeEOSF_>
 8000c2a:	4b46      	ldr	r3, [pc, #280]	; (8000d44 <CPP_UserSetup+0x134>)
 8000c2c:	0021      	movs	r1, r4
 8000c2e:	4846      	ldr	r0, [pc, #280]	; (8000d48 <CPP_UserSetup+0x138>)
 8000c30:	9303      	str	r3, [sp, #12]
 8000c32:	9604      	str	r6, [sp, #16]
 8000c34:	60a5      	str	r5, [r4, #8]
 8000c36:	f7ff fec7 	bl	80009c8 <_ZNSt8functionIFvvEEaSISt5_BindIFMN11SolarGators11DataModules18SteeringControllerEFvvEPS6_EEEENSt9enable_ifIXsrNS1_9_CallableINSt5decayIT_E4typeESt15__invoke_resultIRSH_JEEEE5valueERS1_E4typeEOSF_>
 8000c3a:	4944      	ldr	r1, [pc, #272]	; (8000d4c <CPP_UserSetup+0x13c>)
 8000c3c:	4844      	ldr	r0, [pc, #272]	; (8000d50 <CPP_UserSetup+0x140>)
 8000c3e:	f7ff fef1 	bl	8000a24 <_ZNSt8functionIFvvEEaSIRS0_EENSt9enable_ifIXsrNS1_9_CallableINSt5decayIT_E4typeESt15__invoke_resultIRS9_JEEEE5valueERS1_E4typeEOS7_>
 8000c42:	4944      	ldr	r1, [pc, #272]	; (8000d54 <CPP_UserSetup+0x144>)
 8000c44:	4844      	ldr	r0, [pc, #272]	; (8000d58 <CPP_UserSetup+0x148>)
 8000c46:	f7ff feed 	bl	8000a24 <_ZNSt8functionIFvvEEaSIRS0_EENSt9enable_ifIXsrNS1_9_CallableINSt5decayIT_E4typeESt15__invoke_resultIRS9_JEEEE5valueERS1_E4typeEOS7_>
 8000c4a:	4b44      	ldr	r3, [pc, #272]	; (8000d5c <CPP_UserSetup+0x14c>)
 8000c4c:	0021      	movs	r1, r4
 8000c4e:	4844      	ldr	r0, [pc, #272]	; (8000d60 <CPP_UserSetup+0x150>)
 8000c50:	9303      	str	r3, [sp, #12]
 8000c52:	9604      	str	r6, [sp, #16]
 8000c54:	60a5      	str	r5, [r4, #8]
 8000c56:	f7ff feb7 	bl	80009c8 <_ZNSt8functionIFvvEEaSISt5_BindIFMN11SolarGators11DataModules18SteeringControllerEFvvEPS6_EEEENSt9enable_ifIXsrNS1_9_CallableINSt5decayIT_E4typeESt15__invoke_resultIRSH_JEEEE5valueERS1_E4typeEOSF_>
 8000c5a:	4b42      	ldr	r3, [pc, #264]	; (8000d64 <CPP_UserSetup+0x154>)
 8000c5c:	0021      	movs	r1, r4
 8000c5e:	4842      	ldr	r0, [pc, #264]	; (8000d68 <CPP_UserSetup+0x158>)
 8000c60:	9303      	str	r3, [sp, #12]
 8000c62:	9604      	str	r6, [sp, #16]
 8000c64:	60a5      	str	r5, [r4, #8]
 8000c66:	f7ff feaf 	bl	80009c8 <_ZNSt8functionIFvvEEaSISt5_BindIFMN11SolarGators11DataModules18SteeringControllerEFvvEPS6_EEEENSt9enable_ifIXsrNS1_9_CallableINSt5decayIT_E4typeESt15__invoke_resultIRSH_JEEEE5valueERS1_E4typeEOSF_>
 8000c6a:	4b40      	ldr	r3, [pc, #256]	; (8000d6c <CPP_UserSetup+0x15c>)
 8000c6c:	0021      	movs	r1, r4
 8000c6e:	4840      	ldr	r0, [pc, #256]	; (8000d70 <CPP_UserSetup+0x160>)
 8000c70:	9303      	str	r3, [sp, #12]
 8000c72:	9604      	str	r6, [sp, #16]
 8000c74:	60a5      	str	r5, [r4, #8]
 8000c76:	f7ff fea7 	bl	80009c8 <_ZNSt8functionIFvvEEaSISt5_BindIFMN11SolarGators11DataModules18SteeringControllerEFvvEPS6_EEEENSt9enable_ifIXsrNS1_9_CallableINSt5decayIT_E4typeESt15__invoke_resultIRSH_JEEEE5valueERS1_E4typeEOSF_>
 8000c7a:	4b3e      	ldr	r3, [pc, #248]	; (8000d74 <CPP_UserSetup+0x164>)
 8000c7c:	0021      	movs	r1, r4
 8000c7e:	483e      	ldr	r0, [pc, #248]	; (8000d78 <CPP_UserSetup+0x168>)
 8000c80:	9303      	str	r3, [sp, #12]
 8000c82:	9604      	str	r6, [sp, #16]
 8000c84:	60a5      	str	r5, [r4, #8]
 8000c86:	f7ff fe9f 	bl	80009c8 <_ZNSt8functionIFvvEEaSISt5_BindIFMN11SolarGators11DataModules18SteeringControllerEFvvEPS6_EEEENSt9enable_ifIXsrNS1_9_CallableINSt5decayIT_E4typeESt15__invoke_resultIRSH_JEEEE5valueERS1_E4typeEOSF_>
 8000c8a:	493c      	ldr	r1, [pc, #240]	; (8000d7c <CPP_UserSetup+0x16c>)
 8000c8c:	483c      	ldr	r0, [pc, #240]	; (8000d80 <CPP_UserSetup+0x170>)
 8000c8e:	f7ff fec9 	bl	8000a24 <_ZNSt8functionIFvvEEaSIRS0_EENSt9enable_ifIXsrNS1_9_CallableINSt5decayIT_E4typeESt15__invoke_resultIRS9_JEEEE5valueERS1_E4typeEOS7_>
 8000c92:	4f3c      	ldr	r7, [pc, #240]	; (8000d84 <CPP_UserSetup+0x174>)
 8000c94:	493c      	ldr	r1, [pc, #240]	; (8000d88 <CPP_UserSetup+0x178>)
 8000c96:	0038      	movs	r0, r7
 8000c98:	f7ff fec4 	bl	8000a24 <_ZNSt8functionIFvvEEaSIRS0_EENSt9enable_ifIXsrNS1_9_CallableINSt5decayIT_E4typeESt15__invoke_resultIRS9_JEEEE5valueERS1_E4typeEOS7_>
 8000c9c:	0028      	movs	r0, r5
 8000c9e:	4928      	ldr	r1, [pc, #160]	; (8000d40 <CPP_UserSetup+0x130>)
 8000ca0:	f001 ff20 	bl	8002ae4 <_ZN11SolarGators11DataModules18SteeringController9AddButtonEPNS_7Drivers6ButtonE>
 8000ca4:	0028      	movs	r0, r5
 8000ca6:	4928      	ldr	r1, [pc, #160]	; (8000d48 <CPP_UserSetup+0x138>)
 8000ca8:	f001 ff1c 	bl	8002ae4 <_ZN11SolarGators11DataModules18SteeringController9AddButtonEPNS_7Drivers6ButtonE>
 8000cac:	0028      	movs	r0, r5
 8000cae:	4928      	ldr	r1, [pc, #160]	; (8000d50 <CPP_UserSetup+0x140>)
 8000cb0:	f001 ff18 	bl	8002ae4 <_ZN11SolarGators11DataModules18SteeringController9AddButtonEPNS_7Drivers6ButtonE>
 8000cb4:	0028      	movs	r0, r5
 8000cb6:	4928      	ldr	r1, [pc, #160]	; (8000d58 <CPP_UserSetup+0x148>)
 8000cb8:	f001 ff14 	bl	8002ae4 <_ZN11SolarGators11DataModules18SteeringController9AddButtonEPNS_7Drivers6ButtonE>
 8000cbc:	0028      	movs	r0, r5
 8000cbe:	4928      	ldr	r1, [pc, #160]	; (8000d60 <CPP_UserSetup+0x150>)
 8000cc0:	f001 ff10 	bl	8002ae4 <_ZN11SolarGators11DataModules18SteeringController9AddButtonEPNS_7Drivers6ButtonE>
 8000cc4:	0028      	movs	r0, r5
 8000cc6:	4928      	ldr	r1, [pc, #160]	; (8000d68 <CPP_UserSetup+0x158>)
 8000cc8:	f001 ff0c 	bl	8002ae4 <_ZN11SolarGators11DataModules18SteeringController9AddButtonEPNS_7Drivers6ButtonE>
 8000ccc:	0028      	movs	r0, r5
 8000cce:	4928      	ldr	r1, [pc, #160]	; (8000d70 <CPP_UserSetup+0x160>)
 8000cd0:	f001 ff08 	bl	8002ae4 <_ZN11SolarGators11DataModules18SteeringController9AddButtonEPNS_7Drivers6ButtonE>
 8000cd4:	0028      	movs	r0, r5
 8000cd6:	4928      	ldr	r1, [pc, #160]	; (8000d78 <CPP_UserSetup+0x168>)
 8000cd8:	f001 ff04 	bl	8002ae4 <_ZN11SolarGators11DataModules18SteeringController9AddButtonEPNS_7Drivers6ButtonE>
 8000cdc:	0028      	movs	r0, r5
 8000cde:	4928      	ldr	r1, [pc, #160]	; (8000d80 <CPP_UserSetup+0x170>)
 8000ce0:	f001 ff00 	bl	8002ae4 <_ZN11SolarGators11DataModules18SteeringController9AddButtonEPNS_7Drivers6ButtonE>
 8000ce4:	0028      	movs	r0, r5
 8000ce6:	0039      	movs	r1, r7
 8000ce8:	f001 fefc 	bl	8002ae4 <_ZN11SolarGators11DataModules18SteeringController9AddButtonEPNS_7Drivers6ButtonE>
 8000cec:	0032      	movs	r2, r6
 8000cee:	4927      	ldr	r1, [pc, #156]	; (8000d8c <CPP_UserSetup+0x17c>)
 8000cf0:	0020      	movs	r0, r4
 8000cf2:	f002 f8d1 	bl	8002e98 <_ZN5HY28bC1EP19__SPI_HandleTypeDefb>
 8000cf6:	2214      	movs	r2, #20
 8000cf8:	4b25      	ldr	r3, [pc, #148]	; (8000d90 <CPP_UserSetup+0x180>)
 8000cfa:	0011      	movs	r1, r2
 8000cfc:	601c      	str	r4, [r3, #0]
 8000cfe:	4b25      	ldr	r3, [pc, #148]	; (8000d94 <CPP_UserSetup+0x184>)
 8000d00:	0020      	movs	r0, r4
 8000d02:	9300      	str	r3, [sp, #0]
 8000d04:	4b24      	ldr	r3, [pc, #144]	; (8000d98 <CPP_UserSetup+0x188>)
 8000d06:	f002 f86b 	bl	8002de0 <_ZN5HY28b8DrawTextEttPht>
 8000d0a:	0032      	movs	r2, r6
 8000d0c:	2101      	movs	r1, #1
 8000d0e:	4b23      	ldr	r3, [pc, #140]	; (8000d9c <CPP_UserSetup+0x18c>)
 8000d10:	4823      	ldr	r0, [pc, #140]	; (8000da0 <CPP_UserSetup+0x190>)
 8000d12:	f002 fb55 	bl	80033c0 <osTimerNew>
 8000d16:	4d23      	ldr	r5, [pc, #140]	; (8000da4 <CPP_UserSetup+0x194>)
 8000d18:	6028      	str	r0, [r5, #0]
 8000d1a:	42b0      	cmp	r0, r6
 8000d1c:	d101      	bne.n	8000d22 <CPP_UserSetup+0x112>
 8000d1e:	f7ff faab 	bl	8000278 <Error_Handler>
 8000d22:	21fa      	movs	r1, #250	; 0xfa
 8000d24:	6828      	ldr	r0, [r5, #0]
 8000d26:	0049      	lsls	r1, r1, #1
 8000d28:	f002 fb88 	bl	800343c <osTimerStart>
 8000d2c:	0020      	movs	r0, r4
 8000d2e:	f001 ffeb 	bl	8002d08 <_ZN5HY28bD1Ev>
 8000d32:	b007      	add	sp, #28
 8000d34:	bdf0      	pop	{r4, r5, r6, r7, pc}
 8000d36:	46c0      	nop			; (mov r8, r8)
 8000d38:	20000298 	.word	0x20000298
 8000d3c:	0800292f 	.word	0x0800292f
 8000d40:	2000094c 	.word	0x2000094c
 8000d44:	080029eb 	.word	0x080029eb
 8000d48:	20000818 	.word	0x20000818
 8000d4c:	080008c9 	.word	0x080008c9
 8000d50:	20000874 	.word	0x20000874
 8000d54:	080008e1 	.word	0x080008e1
 8000d58:	200008e0 	.word	0x200008e0
 8000d5c:	08002971 	.word	0x08002971
 8000d60:	200008b4 	.word	0x200008b4
 8000d64:	08002959 	.word	0x08002959
 8000d68:	200009cc 	.word	0x200009cc
 8000d6c:	080029d7 	.word	0x080029d7
 8000d70:	20000844 	.word	0x20000844
 8000d74:	080029bf 	.word	0x080029bf
 8000d78:	20000920 	.word	0x20000920
 8000d7c:	080008f9 	.word	0x080008f9
 8000d80:	200007ec 	.word	0x200007ec
 8000d84:	200009a0 	.word	0x200009a0
 8000d88:	08000911 	.word	0x08000911
 8000d8c:	200028c4 	.word	0x200028c4
 8000d90:	20000870 	.word	0x20000870
 8000d94:	0000fd20 	.word	0x0000fd20
 8000d98:	08005afa 	.word	0x08005afa
 8000d9c:	20000004 	.word	0x20000004
 8000da0:	08000839 	.word	0x08000839
 8000da4:	20000a0c 	.word	0x20000a0c

08000da8 <_GLOBAL__sub_D_Controller>:
 8000da8:	b510      	push	{r4, lr}
 8000daa:	481b      	ldr	r0, [pc, #108]	; (8000e18 <_GLOBAL__sub_D_Controller+0x70>)
 8000dac:	f002 fa04 	bl	80031b8 <_ZN11SolarGators7Drivers3LEDD1Ev>
 8000db0:	481a      	ldr	r0, [pc, #104]	; (8000e1c <_GLOBAL__sub_D_Controller+0x74>)
 8000db2:	f002 fa01 	bl	80031b8 <_ZN11SolarGators7Drivers3LEDD1Ev>
 8000db6:	481a      	ldr	r0, [pc, #104]	; (8000e20 <_GLOBAL__sub_D_Controller+0x78>)
 8000db8:	f002 f9fe 	bl	80031b8 <_ZN11SolarGators7Drivers3LEDD1Ev>
 8000dbc:	4819      	ldr	r0, [pc, #100]	; (8000e24 <_GLOBAL__sub_D_Controller+0x7c>)
 8000dbe:	f002 f9fb 	bl	80031b8 <_ZN11SolarGators7Drivers3LEDD1Ev>
 8000dc2:	4819      	ldr	r0, [pc, #100]	; (8000e28 <_GLOBAL__sub_D_Controller+0x80>)
 8000dc4:	f002 f9f8 	bl	80031b8 <_ZN11SolarGators7Drivers3LEDD1Ev>
 8000dc8:	4818      	ldr	r0, [pc, #96]	; (8000e2c <_GLOBAL__sub_D_Controller+0x84>)
 8000dca:	f002 f9f5 	bl	80031b8 <_ZN11SolarGators7Drivers3LEDD1Ev>
 8000dce:	4818      	ldr	r0, [pc, #96]	; (8000e30 <_GLOBAL__sub_D_Controller+0x88>)
 8000dd0:	f001 fed9 	bl	8002b86 <_ZN11SolarGators7Drivers6ButtonD1Ev>
 8000dd4:	4817      	ldr	r0, [pc, #92]	; (8000e34 <_GLOBAL__sub_D_Controller+0x8c>)
 8000dd6:	f001 fed6 	bl	8002b86 <_ZN11SolarGators7Drivers6ButtonD1Ev>
 8000dda:	4817      	ldr	r0, [pc, #92]	; (8000e38 <_GLOBAL__sub_D_Controller+0x90>)
 8000ddc:	f001 fed3 	bl	8002b86 <_ZN11SolarGators7Drivers6ButtonD1Ev>
 8000de0:	4816      	ldr	r0, [pc, #88]	; (8000e3c <_GLOBAL__sub_D_Controller+0x94>)
 8000de2:	f001 fed0 	bl	8002b86 <_ZN11SolarGators7Drivers6ButtonD1Ev>
 8000de6:	4816      	ldr	r0, [pc, #88]	; (8000e40 <_GLOBAL__sub_D_Controller+0x98>)
 8000de8:	f001 fecd 	bl	8002b86 <_ZN11SolarGators7Drivers6ButtonD1Ev>
 8000dec:	4815      	ldr	r0, [pc, #84]	; (8000e44 <_GLOBAL__sub_D_Controller+0x9c>)
 8000dee:	f001 feca 	bl	8002b86 <_ZN11SolarGators7Drivers6ButtonD1Ev>
 8000df2:	4815      	ldr	r0, [pc, #84]	; (8000e48 <_GLOBAL__sub_D_Controller+0xa0>)
 8000df4:	f001 fec7 	bl	8002b86 <_ZN11SolarGators7Drivers6ButtonD1Ev>
 8000df8:	4814      	ldr	r0, [pc, #80]	; (8000e4c <_GLOBAL__sub_D_Controller+0xa4>)
 8000dfa:	f001 fec4 	bl	8002b86 <_ZN11SolarGators7Drivers6ButtonD1Ev>
 8000dfe:	4814      	ldr	r0, [pc, #80]	; (8000e50 <_GLOBAL__sub_D_Controller+0xa8>)
 8000e00:	f001 fec1 	bl	8002b86 <_ZN11SolarGators7Drivers6ButtonD1Ev>
 8000e04:	4813      	ldr	r0, [pc, #76]	; (8000e54 <_GLOBAL__sub_D_Controller+0xac>)
 8000e06:	f001 febe 	bl	8002b86 <_ZN11SolarGators7Drivers6ButtonD1Ev>
 8000e0a:	4813      	ldr	r0, [pc, #76]	; (8000e58 <_GLOBAL__sub_D_Controller+0xb0>)
 8000e0c:	f001 fef0 	bl	8002bf0 <_ZN11SolarGators7Drivers9CANDriverD1Ev>
 8000e10:	4812      	ldr	r0, [pc, #72]	; (8000e5c <_GLOBAL__sub_D_Controller+0xb4>)
 8000e12:	f001 fc8f 	bl	8002734 <_ZN11SolarGators11DataModules18SteeringControllerD1Ev>
 8000e16:	bd10      	pop	{r4, pc}
 8000e18:	2000098c 	.word	0x2000098c
 8000e1c:	200007d8 	.word	0x200007d8
 8000e20:	200009f8 	.word	0x200009f8
 8000e24:	2000090c 	.word	0x2000090c
 8000e28:	200008a0 	.word	0x200008a0
 8000e2c:	20000978 	.word	0x20000978
 8000e30:	200009a0 	.word	0x200009a0
 8000e34:	200007ec 	.word	0x200007ec
 8000e38:	20000920 	.word	0x20000920
 8000e3c:	20000844 	.word	0x20000844
 8000e40:	200009cc 	.word	0x200009cc
 8000e44:	200008b4 	.word	0x200008b4
 8000e48:	200008e0 	.word	0x200008e0
 8000e4c:	20000874 	.word	0x20000874
 8000e50:	20000818 	.word	0x20000818
 8000e54:	2000094c 	.word	0x2000094c
 8000e58:	200000a4 	.word	0x200000a4
 8000e5c:	20000298 	.word	0x20000298

08000e60 <Reset_Handler>:
 8000e60:	480d      	ldr	r0, [pc, #52]	; (8000e98 <LoopForever+0x2>)
 8000e62:	4685      	mov	sp, r0
 8000e64:	480d      	ldr	r0, [pc, #52]	; (8000e9c <LoopForever+0x6>)
 8000e66:	490e      	ldr	r1, [pc, #56]	; (8000ea0 <LoopForever+0xa>)
 8000e68:	4a0e      	ldr	r2, [pc, #56]	; (8000ea4 <LoopForever+0xe>)
 8000e6a:	2300      	movs	r3, #0
 8000e6c:	e002      	b.n	8000e74 <LoopCopyDataInit>

08000e6e <CopyDataInit>:
 8000e6e:	58d4      	ldr	r4, [r2, r3]
 8000e70:	50c4      	str	r4, [r0, r3]
 8000e72:	3304      	adds	r3, #4

08000e74 <LoopCopyDataInit>:
 8000e74:	18c4      	adds	r4, r0, r3
 8000e76:	428c      	cmp	r4, r1
 8000e78:	d3f9      	bcc.n	8000e6e <CopyDataInit>
 8000e7a:	4a0b      	ldr	r2, [pc, #44]	; (8000ea8 <LoopForever+0x12>)
 8000e7c:	4c0b      	ldr	r4, [pc, #44]	; (8000eac <LoopForever+0x16>)
 8000e7e:	2300      	movs	r3, #0
 8000e80:	e001      	b.n	8000e86 <LoopFillZerobss>

08000e82 <FillZerobss>:
 8000e82:	6013      	str	r3, [r2, #0]
 8000e84:	3204      	adds	r2, #4

08000e86 <LoopFillZerobss>:
 8000e86:	42a2      	cmp	r2, r4
 8000e88:	d3fb      	bcc.n	8000e82 <FillZerobss>
 8000e8a:	f7ff fcc5 	bl	8000818 <SystemInit>
 8000e8e:	f004 fbc7 	bl	8005620 <__libc_init_array>
 8000e92:	f7ff fa33 	bl	80002fc <main>

08000e96 <LoopForever>:
 8000e96:	e7fe      	b.n	8000e96 <LoopForever>
 8000e98:	20004000 	.word	0x20004000
 8000e9c:	20000000 	.word	0x20000000
 8000ea0:	20000084 	.word	0x20000084
 8000ea4:	08006260 	.word	0x08006260
 8000ea8:	20000084 	.word	0x20000084
 8000eac:	20002d74 	.word	0x20002d74

08000eb0 <ADC1_COMP_IRQHandler>:
 8000eb0:	e7fe      	b.n	8000eb0 <ADC1_COMP_IRQHandler>
	...

08000eb4 <HAL_Init>:
 8000eb4:	2310      	movs	r3, #16
 8000eb6:	4a06      	ldr	r2, [pc, #24]	; (8000ed0 <HAL_Init+0x1c>)
 8000eb8:	b510      	push	{r4, lr}
 8000eba:	6811      	ldr	r1, [r2, #0]
 8000ebc:	2003      	movs	r0, #3
 8000ebe:	430b      	orrs	r3, r1
 8000ec0:	6013      	str	r3, [r2, #0]
 8000ec2:	f7ff fbef 	bl	80006a4 <HAL_InitTick>
 8000ec6:	f7ff fb49 	bl	800055c <HAL_MspInit>
 8000eca:	2000      	movs	r0, #0
 8000ecc:	bd10      	pop	{r4, pc}
 8000ece:	46c0      	nop			; (mov r8, r8)
 8000ed0:	40022000 	.word	0x40022000

08000ed4 <HAL_IncTick>:
 8000ed4:	4a03      	ldr	r2, [pc, #12]	; (8000ee4 <HAL_IncTick+0x10>)
 8000ed6:	4b04      	ldr	r3, [pc, #16]	; (8000ee8 <HAL_IncTick+0x14>)
 8000ed8:	6811      	ldr	r1, [r2, #0]
 8000eda:	781b      	ldrb	r3, [r3, #0]
 8000edc:	185b      	adds	r3, r3, r1
 8000ede:	6013      	str	r3, [r2, #0]
 8000ee0:	4770      	bx	lr
 8000ee2:	46c0      	nop			; (mov r8, r8)
 8000ee4:	20002d20 	.word	0x20002d20
 8000ee8:	20000014 	.word	0x20000014

08000eec <HAL_GetTick>:
 8000eec:	4b01      	ldr	r3, [pc, #4]	; (8000ef4 <HAL_GetTick+0x8>)
 8000eee:	6818      	ldr	r0, [r3, #0]
 8000ef0:	4770      	bx	lr
 8000ef2:	46c0      	nop			; (mov r8, r8)
 8000ef4:	20002d20 	.word	0x20002d20

08000ef8 <HAL_CAN_Init>:
 8000ef8:	b5f8      	push	{r3, r4, r5, r6, r7, lr}
 8000efa:	0004      	movs	r4, r0
 8000efc:	2001      	movs	r0, #1
 8000efe:	2c00      	cmp	r4, #0
 8000f00:	d064      	beq.n	8000fcc <HAL_CAN_Init+0xd4>
 8000f02:	1825      	adds	r5, r4, r0
 8000f04:	7feb      	ldrb	r3, [r5, #31]
 8000f06:	2b00      	cmp	r3, #0
 8000f08:	d102      	bne.n	8000f10 <HAL_CAN_Init+0x18>
 8000f0a:	0020      	movs	r0, r4
 8000f0c:	f7ff fb42 	bl	8000594 <HAL_CAN_MspInit>
 8000f10:	2601      	movs	r6, #1
 8000f12:	6822      	ldr	r2, [r4, #0]
 8000f14:	6813      	ldr	r3, [r2, #0]
 8000f16:	4333      	orrs	r3, r6
 8000f18:	6013      	str	r3, [r2, #0]
 8000f1a:	f7ff ffe7 	bl	8000eec <HAL_GetTick>
 8000f1e:	0007      	movs	r7, r0
 8000f20:	6823      	ldr	r3, [r4, #0]
 8000f22:	685a      	ldr	r2, [r3, #4]
 8000f24:	4232      	tst	r2, r6
 8000f26:	d044      	beq.n	8000fb2 <HAL_CAN_Init+0xba>
 8000f28:	2602      	movs	r6, #2
 8000f2a:	681a      	ldr	r2, [r3, #0]
 8000f2c:	43b2      	bics	r2, r6
 8000f2e:	601a      	str	r2, [r3, #0]
 8000f30:	f7ff ffdc 	bl	8000eec <HAL_GetTick>
 8000f34:	0007      	movs	r7, r0
 8000f36:	6823      	ldr	r3, [r4, #0]
 8000f38:	685a      	ldr	r2, [r3, #4]
 8000f3a:	4232      	tst	r2, r6
 8000f3c:	d147      	bne.n	8000fce <HAL_CAN_Init+0xd6>
 8000f3e:	7e21      	ldrb	r1, [r4, #24]
 8000f40:	2280      	movs	r2, #128	; 0x80
 8000f42:	2901      	cmp	r1, #1
 8000f44:	d149      	bne.n	8000fda <HAL_CAN_Init+0xe2>
 8000f46:	6819      	ldr	r1, [r3, #0]
 8000f48:	430a      	orrs	r2, r1
 8000f4a:	601a      	str	r2, [r3, #0]
 8000f4c:	7e61      	ldrb	r1, [r4, #25]
 8000f4e:	2240      	movs	r2, #64	; 0x40
 8000f50:	2901      	cmp	r1, #1
 8000f52:	d146      	bne.n	8000fe2 <HAL_CAN_Init+0xea>
 8000f54:	6819      	ldr	r1, [r3, #0]
 8000f56:	430a      	orrs	r2, r1
 8000f58:	601a      	str	r2, [r3, #0]
 8000f5a:	7ea1      	ldrb	r1, [r4, #26]
 8000f5c:	2220      	movs	r2, #32
 8000f5e:	2901      	cmp	r1, #1
 8000f60:	d143      	bne.n	8000fea <HAL_CAN_Init+0xf2>
 8000f62:	6819      	ldr	r1, [r3, #0]
 8000f64:	430a      	orrs	r2, r1
 8000f66:	601a      	str	r2, [r3, #0]
 8000f68:	7ee1      	ldrb	r1, [r4, #27]
 8000f6a:	2210      	movs	r2, #16
 8000f6c:	2901      	cmp	r1, #1
 8000f6e:	d140      	bne.n	8000ff2 <HAL_CAN_Init+0xfa>
 8000f70:	6819      	ldr	r1, [r3, #0]
 8000f72:	4391      	bics	r1, r2
 8000f74:	6019      	str	r1, [r3, #0]
 8000f76:	7f21      	ldrb	r1, [r4, #28]
 8000f78:	2208      	movs	r2, #8
 8000f7a:	2901      	cmp	r1, #1
 8000f7c:	d13d      	bne.n	8000ffa <HAL_CAN_Init+0x102>
 8000f7e:	6819      	ldr	r1, [r3, #0]
 8000f80:	430a      	orrs	r2, r1
 8000f82:	601a      	str	r2, [r3, #0]
 8000f84:	7f61      	ldrb	r1, [r4, #29]
 8000f86:	2204      	movs	r2, #4
 8000f88:	2901      	cmp	r1, #1
 8000f8a:	d13a      	bne.n	8001002 <HAL_CAN_Init+0x10a>
 8000f8c:	6819      	ldr	r1, [r3, #0]
 8000f8e:	430a      	orrs	r2, r1
 8000f90:	601a      	str	r2, [r3, #0]
 8000f92:	68e1      	ldr	r1, [r4, #12]
 8000f94:	68a2      	ldr	r2, [r4, #8]
 8000f96:	2000      	movs	r0, #0
 8000f98:	430a      	orrs	r2, r1
 8000f9a:	6921      	ldr	r1, [r4, #16]
 8000f9c:	430a      	orrs	r2, r1
 8000f9e:	6961      	ldr	r1, [r4, #20]
 8000fa0:	430a      	orrs	r2, r1
 8000fa2:	6861      	ldr	r1, [r4, #4]
 8000fa4:	3901      	subs	r1, #1
 8000fa6:	430a      	orrs	r2, r1
 8000fa8:	61da      	str	r2, [r3, #28]
 8000faa:	2301      	movs	r3, #1
 8000fac:	6260      	str	r0, [r4, #36]	; 0x24
 8000fae:	77eb      	strb	r3, [r5, #31]
 8000fb0:	e00c      	b.n	8000fcc <HAL_CAN_Init+0xd4>
 8000fb2:	f7ff ff9b 	bl	8000eec <HAL_GetTick>
 8000fb6:	1bc0      	subs	r0, r0, r7
 8000fb8:	280a      	cmp	r0, #10
 8000fba:	d9b1      	bls.n	8000f20 <HAL_CAN_Init+0x28>
 8000fbc:	2380      	movs	r3, #128	; 0x80
 8000fbe:	6a62      	ldr	r2, [r4, #36]	; 0x24
 8000fc0:	029b      	lsls	r3, r3, #10
 8000fc2:	4313      	orrs	r3, r2
 8000fc4:	6263      	str	r3, [r4, #36]	; 0x24
 8000fc6:	2305      	movs	r3, #5
 8000fc8:	2001      	movs	r0, #1
 8000fca:	77eb      	strb	r3, [r5, #31]
 8000fcc:	bdf8      	pop	{r3, r4, r5, r6, r7, pc}
 8000fce:	f7ff ff8d 	bl	8000eec <HAL_GetTick>
 8000fd2:	1bc0      	subs	r0, r0, r7
 8000fd4:	280a      	cmp	r0, #10
 8000fd6:	d9ae      	bls.n	8000f36 <HAL_CAN_Init+0x3e>
 8000fd8:	e7f0      	b.n	8000fbc <HAL_CAN_Init+0xc4>
 8000fda:	6819      	ldr	r1, [r3, #0]
 8000fdc:	4391      	bics	r1, r2
 8000fde:	6019      	str	r1, [r3, #0]
 8000fe0:	e7b4      	b.n	8000f4c <HAL_CAN_Init+0x54>
 8000fe2:	6819      	ldr	r1, [r3, #0]
 8000fe4:	4391      	bics	r1, r2
 8000fe6:	6019      	str	r1, [r3, #0]
 8000fe8:	e7b7      	b.n	8000f5a <HAL_CAN_Init+0x62>
 8000fea:	6819      	ldr	r1, [r3, #0]
 8000fec:	4391      	bics	r1, r2
 8000fee:	6019      	str	r1, [r3, #0]
 8000ff0:	e7ba      	b.n	8000f68 <HAL_CAN_Init+0x70>
 8000ff2:	6819      	ldr	r1, [r3, #0]
 8000ff4:	430a      	orrs	r2, r1
 8000ff6:	601a      	str	r2, [r3, #0]
 8000ff8:	e7bd      	b.n	8000f76 <HAL_CAN_Init+0x7e>
 8000ffa:	6819      	ldr	r1, [r3, #0]
 8000ffc:	4391      	bics	r1, r2
 8000ffe:	6019      	str	r1, [r3, #0]
 8001000:	e7c0      	b.n	8000f84 <HAL_CAN_Init+0x8c>
 8001002:	6819      	ldr	r1, [r3, #0]
 8001004:	4391      	bics	r1, r2
 8001006:	6019      	str	r1, [r3, #0]
 8001008:	e7c3      	b.n	8000f92 <HAL_CAN_Init+0x9a>

0800100a <HAL_CAN_GetRxMessage>:
 800100a:	b5f7      	push	{r0, r1, r2, r4, r5, r6, r7, lr}
 800100c:	1c44      	adds	r4, r0, #1
 800100e:	7fe4      	ldrb	r4, [r4, #31]
 8001010:	3c01      	subs	r4, #1
 8001012:	2c01      	cmp	r4, #1
 8001014:	d900      	bls.n	8001018 <HAL_CAN_GetRxMessage+0xe>
 8001016:	e077      	b.n	8001108 <HAL_CAN_GetRxMessage+0xfe>
 8001018:	6804      	ldr	r4, [r0, #0]
 800101a:	9401      	str	r4, [sp, #4]
 800101c:	9d01      	ldr	r5, [sp, #4]
 800101e:	2403      	movs	r4, #3
 8001020:	2900      	cmp	r1, #0
 8001022:	d109      	bne.n	8001038 <HAL_CAN_GetRxMessage+0x2e>
 8001024:	68ee      	ldr	r6, [r5, #12]
 8001026:	4226      	tst	r6, r4
 8001028:	d108      	bne.n	800103c <HAL_CAN_GetRxMessage+0x32>
 800102a:	2380      	movs	r3, #128	; 0x80
 800102c:	6a42      	ldr	r2, [r0, #36]	; 0x24
 800102e:	039b      	lsls	r3, r3, #14
 8001030:	4313      	orrs	r3, r2
 8001032:	6243      	str	r3, [r0, #36]	; 0x24
 8001034:	2001      	movs	r0, #1
 8001036:	e05e      	b.n	80010f6 <HAL_CAN_GetRxMessage+0xec>
 8001038:	692e      	ldr	r6, [r5, #16]
 800103a:	e7f4      	b.n	8001026 <HAL_CAN_GetRxMessage+0x1c>
 800103c:	26d8      	movs	r6, #216	; 0xd8
 800103e:	9d01      	ldr	r5, [sp, #4]
 8001040:	010c      	lsls	r4, r1, #4
 8001042:	192c      	adds	r4, r5, r4
 8001044:	2504      	movs	r5, #4
 8001046:	0076      	lsls	r6, r6, #1
 8001048:	59a7      	ldr	r7, [r4, r6]
 800104a:	402f      	ands	r7, r5
 800104c:	6097      	str	r7, [r2, #8]
 800104e:	d153      	bne.n	80010f8 <HAL_CAN_GetRxMessage+0xee>
 8001050:	59a7      	ldr	r7, [r4, r6]
 8001052:	0d7f      	lsrs	r7, r7, #21
 8001054:	6017      	str	r7, [r2, #0]
 8001056:	2702      	movs	r7, #2
 8001058:	250f      	movs	r5, #15
 800105a:	59a6      	ldr	r6, [r4, r6]
 800105c:	403e      	ands	r6, r7
 800105e:	37b3      	adds	r7, #179	; 0xb3
 8001060:	37ff      	adds	r7, #255	; 0xff
 8001062:	60d6      	str	r6, [r2, #12]
 8001064:	59e6      	ldr	r6, [r4, r7]
 8001066:	402e      	ands	r6, r5
 8001068:	6116      	str	r6, [r2, #16]
 800106a:	59e6      	ldr	r6, [r4, r7]
 800106c:	59e4      	ldr	r4, [r4, r7]
 800106e:	0a36      	lsrs	r6, r6, #8
 8001070:	0c24      	lsrs	r4, r4, #16
 8001072:	6154      	str	r4, [r2, #20]
 8001074:	b2f6      	uxtb	r6, r6
 8001076:	9c01      	ldr	r4, [sp, #4]
 8001078:	6196      	str	r6, [r2, #24]
 800107a:	010a      	lsls	r2, r1, #4
 800107c:	18a5      	adds	r5, r4, r2
 800107e:	35b9      	adds	r5, #185	; 0xb9
 8001080:	35ff      	adds	r5, #255	; 0xff
 8001082:	682c      	ldr	r4, [r5, #0]
 8001084:	701c      	strb	r4, [r3, #0]
 8001086:	6804      	ldr	r4, [r0, #0]
 8001088:	18a4      	adds	r4, r4, r2
 800108a:	34b9      	adds	r4, #185	; 0xb9
 800108c:	34ff      	adds	r4, #255	; 0xff
 800108e:	6824      	ldr	r4, [r4, #0]
 8001090:	0a24      	lsrs	r4, r4, #8
 8001092:	705c      	strb	r4, [r3, #1]
 8001094:	6804      	ldr	r4, [r0, #0]
 8001096:	18a4      	adds	r4, r4, r2
 8001098:	34b9      	adds	r4, #185	; 0xb9
 800109a:	34ff      	adds	r4, #255	; 0xff
 800109c:	6824      	ldr	r4, [r4, #0]
 800109e:	0c24      	lsrs	r4, r4, #16
 80010a0:	709c      	strb	r4, [r3, #2]
 80010a2:	6804      	ldr	r4, [r0, #0]
 80010a4:	18a4      	adds	r4, r4, r2
 80010a6:	34b9      	adds	r4, #185	; 0xb9
 80010a8:	34ff      	adds	r4, #255	; 0xff
 80010aa:	6824      	ldr	r4, [r4, #0]
 80010ac:	0e24      	lsrs	r4, r4, #24
 80010ae:	70dc      	strb	r4, [r3, #3]
 80010b0:	6804      	ldr	r4, [r0, #0]
 80010b2:	18a4      	adds	r4, r4, r2
 80010b4:	34bd      	adds	r4, #189	; 0xbd
 80010b6:	34ff      	adds	r4, #255	; 0xff
 80010b8:	6824      	ldr	r4, [r4, #0]
 80010ba:	711c      	strb	r4, [r3, #4]
 80010bc:	6804      	ldr	r4, [r0, #0]
 80010be:	18a4      	adds	r4, r4, r2
 80010c0:	34bd      	adds	r4, #189	; 0xbd
 80010c2:	34ff      	adds	r4, #255	; 0xff
 80010c4:	6824      	ldr	r4, [r4, #0]
 80010c6:	0a24      	lsrs	r4, r4, #8
 80010c8:	715c      	strb	r4, [r3, #5]
 80010ca:	6804      	ldr	r4, [r0, #0]
 80010cc:	18a4      	adds	r4, r4, r2
 80010ce:	34bd      	adds	r4, #189	; 0xbd
 80010d0:	34ff      	adds	r4, #255	; 0xff
 80010d2:	6824      	ldr	r4, [r4, #0]
 80010d4:	0c24      	lsrs	r4, r4, #16
 80010d6:	719c      	strb	r4, [r3, #6]
 80010d8:	6804      	ldr	r4, [r0, #0]
 80010da:	18a2      	adds	r2, r4, r2
 80010dc:	32bd      	adds	r2, #189	; 0xbd
 80010de:	32ff      	adds	r2, #255	; 0xff
 80010e0:	6812      	ldr	r2, [r2, #0]
 80010e2:	0e12      	lsrs	r2, r2, #24
 80010e4:	71da      	strb	r2, [r3, #7]
 80010e6:	6802      	ldr	r2, [r0, #0]
 80010e8:	2320      	movs	r3, #32
 80010ea:	2900      	cmp	r1, #0
 80010ec:	d108      	bne.n	8001100 <HAL_CAN_GetRxMessage+0xf6>
 80010ee:	68d0      	ldr	r0, [r2, #12]
 80010f0:	4303      	orrs	r3, r0
 80010f2:	60d3      	str	r3, [r2, #12]
 80010f4:	2000      	movs	r0, #0
 80010f6:	bdfe      	pop	{r1, r2, r3, r4, r5, r6, r7, pc}
 80010f8:	59a7      	ldr	r7, [r4, r6]
 80010fa:	08ff      	lsrs	r7, r7, #3
 80010fc:	6057      	str	r7, [r2, #4]
 80010fe:	e7aa      	b.n	8001056 <HAL_CAN_GetRxMessage+0x4c>
 8001100:	6911      	ldr	r1, [r2, #16]
 8001102:	430b      	orrs	r3, r1
 8001104:	6113      	str	r3, [r2, #16]
 8001106:	e7f5      	b.n	80010f4 <HAL_CAN_GetRxMessage+0xea>
 8001108:	2380      	movs	r3, #128	; 0x80
 800110a:	6a42      	ldr	r2, [r0, #36]	; 0x24
 800110c:	02db      	lsls	r3, r3, #11
 800110e:	e78f      	b.n	8001030 <HAL_CAN_GetRxMessage+0x26>

08001110 <HAL_CAN_GetRxFifoFillLevel>:
 8001110:	1c42      	adds	r2, r0, #1
 8001112:	7fd2      	ldrb	r2, [r2, #31]
 8001114:	0003      	movs	r3, r0
 8001116:	3a01      	subs	r2, #1
 8001118:	2000      	movs	r0, #0
 800111a:	2a01      	cmp	r2, #1
 800111c:	d805      	bhi.n	800112a <HAL_CAN_GetRxFifoFillLevel+0x1a>
 800111e:	681b      	ldr	r3, [r3, #0]
 8001120:	3003      	adds	r0, #3
 8001122:	2900      	cmp	r1, #0
 8001124:	d102      	bne.n	800112c <HAL_CAN_GetRxFifoFillLevel+0x1c>
 8001126:	68db      	ldr	r3, [r3, #12]
 8001128:	4018      	ands	r0, r3
 800112a:	4770      	bx	lr
 800112c:	691b      	ldr	r3, [r3, #16]
 800112e:	e7fb      	b.n	8001128 <HAL_CAN_GetRxFifoFillLevel+0x18>

08001130 <HAL_CAN_TxMailbox0CompleteCallback>:
 8001130:	4770      	bx	lr

08001132 <HAL_CAN_TxMailbox1CompleteCallback>:
 8001132:	4770      	bx	lr

08001134 <HAL_CAN_TxMailbox2CompleteCallback>:
 8001134:	4770      	bx	lr

08001136 <HAL_CAN_TxMailbox0AbortCallback>:
 8001136:	4770      	bx	lr

08001138 <HAL_CAN_TxMailbox1AbortCallback>:
 8001138:	4770      	bx	lr

0800113a <HAL_CAN_TxMailbox2AbortCallback>:
 800113a:	4770      	bx	lr

0800113c <HAL_CAN_RxFifo0MsgPendingCallback>:
 800113c:	4770      	bx	lr

0800113e <HAL_CAN_RxFifo0FullCallback>:
 800113e:	4770      	bx	lr

08001140 <HAL_CAN_RxFifo1MsgPendingCallback>:
 8001140:	4770      	bx	lr

08001142 <HAL_CAN_RxFifo1FullCallback>:
 8001142:	4770      	bx	lr

08001144 <HAL_CAN_SleepCallback>:
 8001144:	4770      	bx	lr

08001146 <HAL_CAN_WakeUpFromRxMsgCallback>:
 8001146:	4770      	bx	lr

08001148 <HAL_CAN_ErrorCallback>:
 8001148:	4770      	bx	lr

0800114a <HAL_CAN_IRQHandler>:
 800114a:	b5f0      	push	{r4, r5, r6, r7, lr}
 800114c:	6803      	ldr	r3, [r0, #0]
 800114e:	b085      	sub	sp, #20
 8001150:	695e      	ldr	r6, [r3, #20]
 8001152:	685a      	ldr	r2, [r3, #4]
 8001154:	689f      	ldr	r7, [r3, #8]
 8001156:	9201      	str	r2, [sp, #4]
 8001158:	68da      	ldr	r2, [r3, #12]
 800115a:	0034      	movs	r4, r6
 800115c:	9202      	str	r2, [sp, #8]
 800115e:	691a      	ldr	r2, [r3, #16]
 8001160:	0005      	movs	r5, r0
 8001162:	9203      	str	r2, [sp, #12]
 8001164:	699a      	ldr	r2, [r3, #24]
 8001166:	9200      	str	r2, [sp, #0]
 8001168:	2201      	movs	r2, #1
 800116a:	4014      	ands	r4, r2
 800116c:	4216      	tst	r6, r2
 800116e:	d022      	beq.n	80011b6 <HAL_CAN_IRQHandler+0x6c>
 8001170:	003c      	movs	r4, r7
 8001172:	4014      	ands	r4, r2
 8001174:	4217      	tst	r7, r2
 8001176:	d006      	beq.n	8001186 <HAL_CAN_IRQHandler+0x3c>
 8001178:	609a      	str	r2, [r3, #8]
 800117a:	07bb      	lsls	r3, r7, #30
 800117c:	d400      	bmi.n	8001180 <HAL_CAN_IRQHandler+0x36>
 800117e:	e0aa      	b.n	80012d6 <HAL_CAN_IRQHandler+0x18c>
 8001180:	f7ff ffd6 	bl	8001130 <HAL_CAN_TxMailbox0CompleteCallback>
 8001184:	2400      	movs	r4, #0
 8001186:	2380      	movs	r3, #128	; 0x80
 8001188:	005b      	lsls	r3, r3, #1
 800118a:	421f      	tst	r7, r3
 800118c:	d007      	beq.n	800119e <HAL_CAN_IRQHandler+0x54>
 800118e:	682a      	ldr	r2, [r5, #0]
 8001190:	6093      	str	r3, [r2, #8]
 8001192:	05bb      	lsls	r3, r7, #22
 8001194:	d400      	bmi.n	8001198 <HAL_CAN_IRQHandler+0x4e>
 8001196:	e0ae      	b.n	80012f6 <HAL_CAN_IRQHandler+0x1ac>
 8001198:	0028      	movs	r0, r5
 800119a:	f7ff ffca 	bl	8001132 <HAL_CAN_TxMailbox1CompleteCallback>
 800119e:	2380      	movs	r3, #128	; 0x80
 80011a0:	025b      	lsls	r3, r3, #9
 80011a2:	421f      	tst	r7, r3
 80011a4:	d007      	beq.n	80011b6 <HAL_CAN_IRQHandler+0x6c>
 80011a6:	682a      	ldr	r2, [r5, #0]
 80011a8:	6093      	str	r3, [r2, #8]
 80011aa:	03ba      	lsls	r2, r7, #14
 80011ac:	d400      	bmi.n	80011b0 <HAL_CAN_IRQHandler+0x66>
 80011ae:	e0b1      	b.n	8001314 <HAL_CAN_IRQHandler+0x1ca>
 80011b0:	0028      	movs	r0, r5
 80011b2:	f7ff ffbf 	bl	8001134 <HAL_CAN_TxMailbox2CompleteCallback>
 80011b6:	0733      	lsls	r3, r6, #28
 80011b8:	d508      	bpl.n	80011cc <HAL_CAN_IRQHandler+0x82>
 80011ba:	2310      	movs	r3, #16
 80011bc:	9a02      	ldr	r2, [sp, #8]
 80011be:	421a      	tst	r2, r3
 80011c0:	d004      	beq.n	80011cc <HAL_CAN_IRQHandler+0x82>
 80011c2:	2280      	movs	r2, #128	; 0x80
 80011c4:	0092      	lsls	r2, r2, #2
 80011c6:	4314      	orrs	r4, r2
 80011c8:	682a      	ldr	r2, [r5, #0]
 80011ca:	60d3      	str	r3, [r2, #12]
 80011cc:	0773      	lsls	r3, r6, #29
 80011ce:	d508      	bpl.n	80011e2 <HAL_CAN_IRQHandler+0x98>
 80011d0:	2308      	movs	r3, #8
 80011d2:	9a02      	ldr	r2, [sp, #8]
 80011d4:	421a      	tst	r2, r3
 80011d6:	d004      	beq.n	80011e2 <HAL_CAN_IRQHandler+0x98>
 80011d8:	682a      	ldr	r2, [r5, #0]
 80011da:	0028      	movs	r0, r5
 80011dc:	60d3      	str	r3, [r2, #12]
 80011de:	f7ff ffae 	bl	800113e <HAL_CAN_RxFifo0FullCallback>
 80011e2:	07b3      	lsls	r3, r6, #30
 80011e4:	d506      	bpl.n	80011f4 <HAL_CAN_IRQHandler+0xaa>
 80011e6:	682b      	ldr	r3, [r5, #0]
 80011e8:	68db      	ldr	r3, [r3, #12]
 80011ea:	079b      	lsls	r3, r3, #30
 80011ec:	d002      	beq.n	80011f4 <HAL_CAN_IRQHandler+0xaa>
 80011ee:	0028      	movs	r0, r5
 80011f0:	f7ff ffa4 	bl	800113c <HAL_CAN_RxFifo0MsgPendingCallback>
 80011f4:	0673      	lsls	r3, r6, #25
 80011f6:	d508      	bpl.n	800120a <HAL_CAN_IRQHandler+0xc0>
 80011f8:	2310      	movs	r3, #16
 80011fa:	9a03      	ldr	r2, [sp, #12]
 80011fc:	421a      	tst	r2, r3
 80011fe:	d004      	beq.n	800120a <HAL_CAN_IRQHandler+0xc0>
 8001200:	2280      	movs	r2, #128	; 0x80
 8001202:	00d2      	lsls	r2, r2, #3
 8001204:	4314      	orrs	r4, r2
 8001206:	682a      	ldr	r2, [r5, #0]
 8001208:	6113      	str	r3, [r2, #16]
 800120a:	06b3      	lsls	r3, r6, #26
 800120c:	d508      	bpl.n	8001220 <HAL_CAN_IRQHandler+0xd6>
 800120e:	2308      	movs	r3, #8
 8001210:	9a03      	ldr	r2, [sp, #12]
 8001212:	421a      	tst	r2, r3
 8001214:	d004      	beq.n	8001220 <HAL_CAN_IRQHandler+0xd6>
 8001216:	682a      	ldr	r2, [r5, #0]
 8001218:	0028      	movs	r0, r5
 800121a:	6113      	str	r3, [r2, #16]
 800121c:	f7ff ff91 	bl	8001142 <HAL_CAN_RxFifo1FullCallback>
 8001220:	06f3      	lsls	r3, r6, #27
 8001222:	d506      	bpl.n	8001232 <HAL_CAN_IRQHandler+0xe8>
 8001224:	682b      	ldr	r3, [r5, #0]
 8001226:	691b      	ldr	r3, [r3, #16]
 8001228:	079b      	lsls	r3, r3, #30
 800122a:	d002      	beq.n	8001232 <HAL_CAN_IRQHandler+0xe8>
 800122c:	0028      	movs	r0, r5
 800122e:	f7ff ff87 	bl	8001140 <HAL_CAN_RxFifo1MsgPendingCallback>
 8001232:	03b3      	lsls	r3, r6, #14
 8001234:	d508      	bpl.n	8001248 <HAL_CAN_IRQHandler+0xfe>
 8001236:	2310      	movs	r3, #16
 8001238:	9a01      	ldr	r2, [sp, #4]
 800123a:	421a      	tst	r2, r3
 800123c:	d004      	beq.n	8001248 <HAL_CAN_IRQHandler+0xfe>
 800123e:	682a      	ldr	r2, [r5, #0]
 8001240:	0028      	movs	r0, r5
 8001242:	6053      	str	r3, [r2, #4]
 8001244:	f7ff ff7e 	bl	8001144 <HAL_CAN_SleepCallback>
 8001248:	03f3      	lsls	r3, r6, #15
 800124a:	d508      	bpl.n	800125e <HAL_CAN_IRQHandler+0x114>
 800124c:	2308      	movs	r3, #8
 800124e:	9a01      	ldr	r2, [sp, #4]
 8001250:	421a      	tst	r2, r3
 8001252:	d004      	beq.n	800125e <HAL_CAN_IRQHandler+0x114>
 8001254:	682a      	ldr	r2, [r5, #0]
 8001256:	0028      	movs	r0, r5
 8001258:	6053      	str	r3, [r2, #4]
 800125a:	f7ff ff74 	bl	8001146 <HAL_CAN_WakeUpFromRxMsgCallback>
 800125e:	0433      	lsls	r3, r6, #16
 8001260:	d52f      	bpl.n	80012c2 <HAL_CAN_IRQHandler+0x178>
 8001262:	9b01      	ldr	r3, [sp, #4]
 8001264:	682a      	ldr	r2, [r5, #0]
 8001266:	075b      	lsls	r3, r3, #29
 8001268:	d529      	bpl.n	80012be <HAL_CAN_IRQHandler+0x174>
 800126a:	05f3      	lsls	r3, r6, #23
 800126c:	d504      	bpl.n	8001278 <HAL_CAN_IRQHandler+0x12e>
 800126e:	2301      	movs	r3, #1
 8001270:	9900      	ldr	r1, [sp, #0]
 8001272:	4219      	tst	r1, r3
 8001274:	d000      	beq.n	8001278 <HAL_CAN_IRQHandler+0x12e>
 8001276:	431c      	orrs	r4, r3
 8001278:	05b3      	lsls	r3, r6, #22
 800127a:	d504      	bpl.n	8001286 <HAL_CAN_IRQHandler+0x13c>
 800127c:	2302      	movs	r3, #2
 800127e:	9900      	ldr	r1, [sp, #0]
 8001280:	4219      	tst	r1, r3
 8001282:	d000      	beq.n	8001286 <HAL_CAN_IRQHandler+0x13c>
 8001284:	431c      	orrs	r4, r3
 8001286:	0573      	lsls	r3, r6, #21
 8001288:	d504      	bpl.n	8001294 <HAL_CAN_IRQHandler+0x14a>
 800128a:	2304      	movs	r3, #4
 800128c:	9900      	ldr	r1, [sp, #0]
 800128e:	4219      	tst	r1, r3
 8001290:	d000      	beq.n	8001294 <HAL_CAN_IRQHandler+0x14a>
 8001292:	431c      	orrs	r4, r3
 8001294:	0533      	lsls	r3, r6, #20
 8001296:	d512      	bpl.n	80012be <HAL_CAN_IRQHandler+0x174>
 8001298:	2170      	movs	r1, #112	; 0x70
 800129a:	9b00      	ldr	r3, [sp, #0]
 800129c:	9800      	ldr	r0, [sp, #0]
 800129e:	400b      	ands	r3, r1
 80012a0:	4208      	tst	r0, r1
 80012a2:	d00c      	beq.n	80012be <HAL_CAN_IRQHandler+0x174>
 80012a4:	2b40      	cmp	r3, #64	; 0x40
 80012a6:	d049      	beq.n	800133c <HAL_CAN_IRQHandler+0x1f2>
 80012a8:	d840      	bhi.n	800132c <HAL_CAN_IRQHandler+0x1e2>
 80012aa:	2b20      	cmp	r3, #32
 80012ac:	d048      	beq.n	8001340 <HAL_CAN_IRQHandler+0x1f6>
 80012ae:	2b30      	cmp	r3, #48	; 0x30
 80012b0:	d048      	beq.n	8001344 <HAL_CAN_IRQHandler+0x1fa>
 80012b2:	2b10      	cmp	r3, #16
 80012b4:	d041      	beq.n	800133a <HAL_CAN_IRQHandler+0x1f0>
 80012b6:	2170      	movs	r1, #112	; 0x70
 80012b8:	6993      	ldr	r3, [r2, #24]
 80012ba:	438b      	bics	r3, r1
 80012bc:	6193      	str	r3, [r2, #24]
 80012be:	2304      	movs	r3, #4
 80012c0:	6053      	str	r3, [r2, #4]
 80012c2:	2c00      	cmp	r4, #0
 80012c4:	d005      	beq.n	80012d2 <HAL_CAN_IRQHandler+0x188>
 80012c6:	6a6b      	ldr	r3, [r5, #36]	; 0x24
 80012c8:	0028      	movs	r0, r5
 80012ca:	431c      	orrs	r4, r3
 80012cc:	626c      	str	r4, [r5, #36]	; 0x24
 80012ce:	f7ff ff3b 	bl	8001148 <HAL_CAN_ErrorCallback>
 80012d2:	b005      	add	sp, #20
 80012d4:	bdf0      	pop	{r4, r5, r6, r7, pc}
 80012d6:	077b      	lsls	r3, r7, #29
 80012d8:	d407      	bmi.n	80012ea <HAL_CAN_IRQHandler+0x1a0>
 80012da:	2308      	movs	r3, #8
 80012dc:	003c      	movs	r4, r7
 80012de:	401c      	ands	r4, r3
 80012e0:	421f      	tst	r7, r3
 80012e2:	d105      	bne.n	80012f0 <HAL_CAN_IRQHandler+0x1a6>
 80012e4:	f7ff ff27 	bl	8001136 <HAL_CAN_TxMailbox0AbortCallback>
 80012e8:	e74d      	b.n	8001186 <HAL_CAN_IRQHandler+0x3c>
 80012ea:	2480      	movs	r4, #128	; 0x80
 80012ec:	0124      	lsls	r4, r4, #4
 80012ee:	e74a      	b.n	8001186 <HAL_CAN_IRQHandler+0x3c>
 80012f0:	2480      	movs	r4, #128	; 0x80
 80012f2:	0164      	lsls	r4, r4, #5
 80012f4:	e747      	b.n	8001186 <HAL_CAN_IRQHandler+0x3c>
 80012f6:	057b      	lsls	r3, r7, #21
 80012f8:	d503      	bpl.n	8001302 <HAL_CAN_IRQHandler+0x1b8>
 80012fa:	2380      	movs	r3, #128	; 0x80
 80012fc:	019b      	lsls	r3, r3, #6
 80012fe:	431c      	orrs	r4, r3
 8001300:	e74d      	b.n	800119e <HAL_CAN_IRQHandler+0x54>
 8001302:	053b      	lsls	r3, r7, #20
 8001304:	d502      	bpl.n	800130c <HAL_CAN_IRQHandler+0x1c2>
 8001306:	2380      	movs	r3, #128	; 0x80
 8001308:	01db      	lsls	r3, r3, #7
 800130a:	e7f8      	b.n	80012fe <HAL_CAN_IRQHandler+0x1b4>
 800130c:	0028      	movs	r0, r5
 800130e:	f7ff ff13 	bl	8001138 <HAL_CAN_TxMailbox1AbortCallback>
 8001312:	e744      	b.n	800119e <HAL_CAN_IRQHandler+0x54>
 8001314:	037a      	lsls	r2, r7, #13
 8001316:	d503      	bpl.n	8001320 <HAL_CAN_IRQHandler+0x1d6>
 8001318:	2380      	movs	r3, #128	; 0x80
 800131a:	021b      	lsls	r3, r3, #8
 800131c:	431c      	orrs	r4, r3
 800131e:	e74a      	b.n	80011b6 <HAL_CAN_IRQHandler+0x6c>
 8001320:	033a      	lsls	r2, r7, #12
 8001322:	d4fb      	bmi.n	800131c <HAL_CAN_IRQHandler+0x1d2>
 8001324:	0028      	movs	r0, r5
 8001326:	f7ff ff08 	bl	800113a <HAL_CAN_TxMailbox2AbortCallback>
 800132a:	e744      	b.n	80011b6 <HAL_CAN_IRQHandler+0x6c>
 800132c:	2b50      	cmp	r3, #80	; 0x50
 800132e:	d00b      	beq.n	8001348 <HAL_CAN_IRQHandler+0x1fe>
 8001330:	2b60      	cmp	r3, #96	; 0x60
 8001332:	d1c0      	bne.n	80012b6 <HAL_CAN_IRQHandler+0x16c>
 8001334:	2380      	movs	r3, #128	; 0x80
 8001336:	005b      	lsls	r3, r3, #1
 8001338:	e000      	b.n	800133c <HAL_CAN_IRQHandler+0x1f2>
 800133a:	2308      	movs	r3, #8
 800133c:	431c      	orrs	r4, r3
 800133e:	e7ba      	b.n	80012b6 <HAL_CAN_IRQHandler+0x16c>
 8001340:	2310      	movs	r3, #16
 8001342:	e7fb      	b.n	800133c <HAL_CAN_IRQHandler+0x1f2>
 8001344:	2320      	movs	r3, #32
 8001346:	e7f9      	b.n	800133c <HAL_CAN_IRQHandler+0x1f2>
 8001348:	2380      	movs	r3, #128	; 0x80
 800134a:	e7f7      	b.n	800133c <HAL_CAN_IRQHandler+0x1f2>

0800134c <HAL_NVIC_SetPriority>:
 800134c:	b530      	push	{r4, r5, lr}
 800134e:	25ff      	movs	r5, #255	; 0xff
 8001350:	2403      	movs	r4, #3
 8001352:	002a      	movs	r2, r5
 8001354:	4004      	ands	r4, r0
 8001356:	00e4      	lsls	r4, r4, #3
 8001358:	40a2      	lsls	r2, r4
 800135a:	0189      	lsls	r1, r1, #6
 800135c:	4029      	ands	r1, r5
 800135e:	43d2      	mvns	r2, r2
 8001360:	40a1      	lsls	r1, r4
 8001362:	b2c3      	uxtb	r3, r0
 8001364:	2800      	cmp	r0, #0
 8001366:	db0a      	blt.n	800137e <HAL_NVIC_SetPriority+0x32>
 8001368:	24c0      	movs	r4, #192	; 0xc0
 800136a:	4b0b      	ldr	r3, [pc, #44]	; (8001398 <HAL_NVIC_SetPriority+0x4c>)
 800136c:	0880      	lsrs	r0, r0, #2
 800136e:	0080      	lsls	r0, r0, #2
 8001370:	18c0      	adds	r0, r0, r3
 8001372:	00a4      	lsls	r4, r4, #2
 8001374:	5903      	ldr	r3, [r0, r4]
 8001376:	401a      	ands	r2, r3
 8001378:	4311      	orrs	r1, r2
 800137a:	5101      	str	r1, [r0, r4]
 800137c:	bd30      	pop	{r4, r5, pc}
 800137e:	200f      	movs	r0, #15
 8001380:	4003      	ands	r3, r0
 8001382:	3b08      	subs	r3, #8
 8001384:	4805      	ldr	r0, [pc, #20]	; (800139c <HAL_NVIC_SetPriority+0x50>)
 8001386:	089b      	lsrs	r3, r3, #2
 8001388:	009b      	lsls	r3, r3, #2
 800138a:	181b      	adds	r3, r3, r0
 800138c:	69d8      	ldr	r0, [r3, #28]
 800138e:	4002      	ands	r2, r0
 8001390:	4311      	orrs	r1, r2
 8001392:	61d9      	str	r1, [r3, #28]
 8001394:	e7f2      	b.n	800137c <HAL_NVIC_SetPriority+0x30>
 8001396:	46c0      	nop			; (mov r8, r8)
 8001398:	e000e100 	.word	0xe000e100
 800139c:	e000ed00 	.word	0xe000ed00

080013a0 <HAL_NVIC_EnableIRQ>:
 80013a0:	2800      	cmp	r0, #0
 80013a2:	db05      	blt.n	80013b0 <HAL_NVIC_EnableIRQ+0x10>
 80013a4:	231f      	movs	r3, #31
 80013a6:	4018      	ands	r0, r3
 80013a8:	3b1e      	subs	r3, #30
 80013aa:	4083      	lsls	r3, r0
 80013ac:	4a01      	ldr	r2, [pc, #4]	; (80013b4 <HAL_NVIC_EnableIRQ+0x14>)
 80013ae:	6013      	str	r3, [r2, #0]
 80013b0:	4770      	bx	lr
 80013b2:	46c0      	nop			; (mov r8, r8)
 80013b4:	e000e100 	.word	0xe000e100

080013b8 <HAL_GPIO_Init>:
 80013b8:	4a58      	ldr	r2, [pc, #352]	; (800151c <HAL_GPIO_Init+0x164>)
 80013ba:	b5f0      	push	{r4, r5, r6, r7, lr}
 80013bc:	1882      	adds	r2, r0, r2
 80013be:	1e54      	subs	r4, r2, #1
 80013c0:	41a2      	sbcs	r2, r4
 80013c2:	2300      	movs	r3, #0
 80013c4:	b089      	sub	sp, #36	; 0x24
 80013c6:	3204      	adds	r2, #4
 80013c8:	9205      	str	r2, [sp, #20]
 80013ca:	680a      	ldr	r2, [r1, #0]
 80013cc:	0014      	movs	r4, r2
 80013ce:	40dc      	lsrs	r4, r3
 80013d0:	d101      	bne.n	80013d6 <HAL_GPIO_Init+0x1e>
 80013d2:	b009      	add	sp, #36	; 0x24
 80013d4:	bdf0      	pop	{r4, r5, r6, r7, pc}
 80013d6:	2401      	movs	r4, #1
 80013d8:	0025      	movs	r5, r4
 80013da:	46a4      	mov	ip, r4
 80013dc:	409d      	lsls	r5, r3
 80013de:	0014      	movs	r4, r2
 80013e0:	402c      	ands	r4, r5
 80013e2:	9402      	str	r4, [sp, #8]
 80013e4:	422a      	tst	r2, r5
 80013e6:	d100      	bne.n	80013ea <HAL_GPIO_Init+0x32>
 80013e8:	e095      	b.n	8001516 <HAL_GPIO_Init+0x15e>
 80013ea:	2403      	movs	r4, #3
 80013ec:	684a      	ldr	r2, [r1, #4]
 80013ee:	005e      	lsls	r6, r3, #1
 80013f0:	9201      	str	r2, [sp, #4]
 80013f2:	4022      	ands	r2, r4
 80013f4:	40b4      	lsls	r4, r6
 80013f6:	43e4      	mvns	r4, r4
 80013f8:	9403      	str	r4, [sp, #12]
 80013fa:	1e54      	subs	r4, r2, #1
 80013fc:	4564      	cmp	r4, ip
 80013fe:	d82a      	bhi.n	8001456 <HAL_GPIO_Init+0x9e>
 8001400:	6887      	ldr	r7, [r0, #8]
 8001402:	9c03      	ldr	r4, [sp, #12]
 8001404:	4027      	ands	r7, r4
 8001406:	68cc      	ldr	r4, [r1, #12]
 8001408:	40b4      	lsls	r4, r6
 800140a:	433c      	orrs	r4, r7
 800140c:	4667      	mov	r7, ip
 800140e:	6084      	str	r4, [r0, #8]
 8001410:	6844      	ldr	r4, [r0, #4]
 8001412:	43ac      	bics	r4, r5
 8001414:	0025      	movs	r5, r4
 8001416:	9c01      	ldr	r4, [sp, #4]
 8001418:	0924      	lsrs	r4, r4, #4
 800141a:	403c      	ands	r4, r7
 800141c:	409c      	lsls	r4, r3
 800141e:	432c      	orrs	r4, r5
 8001420:	6044      	str	r4, [r0, #4]
 8001422:	68c5      	ldr	r5, [r0, #12]
 8001424:	9c03      	ldr	r4, [sp, #12]
 8001426:	4025      	ands	r5, r4
 8001428:	688c      	ldr	r4, [r1, #8]
 800142a:	40b4      	lsls	r4, r6
 800142c:	432c      	orrs	r4, r5
 800142e:	60c4      	str	r4, [r0, #12]
 8001430:	2a02      	cmp	r2, #2
 8001432:	d112      	bne.n	800145a <HAL_GPIO_Init+0xa2>
 8001434:	08dc      	lsrs	r4, r3, #3
 8001436:	2507      	movs	r5, #7
 8001438:	00a4      	lsls	r4, r4, #2
 800143a:	1904      	adds	r4, r0, r4
 800143c:	6a27      	ldr	r7, [r4, #32]
 800143e:	9404      	str	r4, [sp, #16]
 8001440:	240f      	movs	r4, #15
 8001442:	401d      	ands	r5, r3
 8001444:	00ad      	lsls	r5, r5, #2
 8001446:	40ac      	lsls	r4, r5
 8001448:	43a7      	bics	r7, r4
 800144a:	690c      	ldr	r4, [r1, #16]
 800144c:	40ac      	lsls	r4, r5
 800144e:	4327      	orrs	r7, r4
 8001450:	9c04      	ldr	r4, [sp, #16]
 8001452:	6227      	str	r7, [r4, #32]
 8001454:	e001      	b.n	800145a <HAL_GPIO_Init+0xa2>
 8001456:	2a03      	cmp	r2, #3
 8001458:	d1e3      	bne.n	8001422 <HAL_GPIO_Init+0x6a>
 800145a:	40b2      	lsls	r2, r6
 800145c:	6804      	ldr	r4, [r0, #0]
 800145e:	9d03      	ldr	r5, [sp, #12]
 8001460:	4025      	ands	r5, r4
 8001462:	432a      	orrs	r2, r5
 8001464:	6002      	str	r2, [r0, #0]
 8001466:	22c0      	movs	r2, #192	; 0xc0
 8001468:	9c01      	ldr	r4, [sp, #4]
 800146a:	0292      	lsls	r2, r2, #10
 800146c:	4214      	tst	r4, r2
 800146e:	d052      	beq.n	8001516 <HAL_GPIO_Init+0x15e>
 8001470:	2503      	movs	r5, #3
 8001472:	270f      	movs	r7, #15
 8001474:	2601      	movs	r6, #1
 8001476:	46ac      	mov	ip, r5
 8001478:	401d      	ands	r5, r3
 800147a:	00ad      	lsls	r5, r5, #2
 800147c:	40af      	lsls	r7, r5
 800147e:	4a28      	ldr	r2, [pc, #160]	; (8001520 <HAL_GPIO_Init+0x168>)
 8001480:	6994      	ldr	r4, [r2, #24]
 8001482:	4334      	orrs	r4, r6
 8001484:	6194      	str	r4, [r2, #24]
 8001486:	6992      	ldr	r2, [r2, #24]
 8001488:	089c      	lsrs	r4, r3, #2
 800148a:	4032      	ands	r2, r6
 800148c:	9207      	str	r2, [sp, #28]
 800148e:	9a07      	ldr	r2, [sp, #28]
 8001490:	4a24      	ldr	r2, [pc, #144]	; (8001524 <HAL_GPIO_Init+0x16c>)
 8001492:	00a4      	lsls	r4, r4, #2
 8001494:	18a4      	adds	r4, r4, r2
 8001496:	68a2      	ldr	r2, [r4, #8]
 8001498:	43ba      	bics	r2, r7
 800149a:	2790      	movs	r7, #144	; 0x90
 800149c:	9203      	str	r2, [sp, #12]
 800149e:	05ff      	lsls	r7, r7, #23
 80014a0:	2200      	movs	r2, #0
 80014a2:	42b8      	cmp	r0, r7
 80014a4:	d00c      	beq.n	80014c0 <HAL_GPIO_Init+0x108>
 80014a6:	4f20      	ldr	r7, [pc, #128]	; (8001528 <HAL_GPIO_Init+0x170>)
 80014a8:	0032      	movs	r2, r6
 80014aa:	42b8      	cmp	r0, r7
 80014ac:	d008      	beq.n	80014c0 <HAL_GPIO_Init+0x108>
 80014ae:	4e1f      	ldr	r6, [pc, #124]	; (800152c <HAL_GPIO_Init+0x174>)
 80014b0:	1892      	adds	r2, r2, r2
 80014b2:	42b0      	cmp	r0, r6
 80014b4:	d004      	beq.n	80014c0 <HAL_GPIO_Init+0x108>
 80014b6:	4e1e      	ldr	r6, [pc, #120]	; (8001530 <HAL_GPIO_Init+0x178>)
 80014b8:	4662      	mov	r2, ip
 80014ba:	42b0      	cmp	r0, r6
 80014bc:	d000      	beq.n	80014c0 <HAL_GPIO_Init+0x108>
 80014be:	9a05      	ldr	r2, [sp, #20]
 80014c0:	40aa      	lsls	r2, r5
 80014c2:	9d03      	ldr	r5, [sp, #12]
 80014c4:	9f01      	ldr	r7, [sp, #4]
 80014c6:	432a      	orrs	r2, r5
 80014c8:	60a2      	str	r2, [r4, #8]
 80014ca:	4a1a      	ldr	r2, [pc, #104]	; (8001534 <HAL_GPIO_Init+0x17c>)
 80014cc:	9c02      	ldr	r4, [sp, #8]
 80014ce:	6816      	ldr	r6, [r2, #0]
 80014d0:	9d02      	ldr	r5, [sp, #8]
 80014d2:	43e4      	mvns	r4, r4
 80014d4:	4335      	orrs	r5, r6
 80014d6:	03ff      	lsls	r7, r7, #15
 80014d8:	d401      	bmi.n	80014de <HAL_GPIO_Init+0x126>
 80014da:	0035      	movs	r5, r6
 80014dc:	4025      	ands	r5, r4
 80014de:	6015      	str	r5, [r2, #0]
 80014e0:	6856      	ldr	r6, [r2, #4]
 80014e2:	9d02      	ldr	r5, [sp, #8]
 80014e4:	9f01      	ldr	r7, [sp, #4]
 80014e6:	4335      	orrs	r5, r6
 80014e8:	03bf      	lsls	r7, r7, #14
 80014ea:	d401      	bmi.n	80014f0 <HAL_GPIO_Init+0x138>
 80014ec:	0035      	movs	r5, r6
 80014ee:	4025      	ands	r5, r4
 80014f0:	6055      	str	r5, [r2, #4]
 80014f2:	6896      	ldr	r6, [r2, #8]
 80014f4:	9d02      	ldr	r5, [sp, #8]
 80014f6:	9f01      	ldr	r7, [sp, #4]
 80014f8:	4335      	orrs	r5, r6
 80014fa:	02ff      	lsls	r7, r7, #11
 80014fc:	d401      	bmi.n	8001502 <HAL_GPIO_Init+0x14a>
 80014fe:	0035      	movs	r5, r6
 8001500:	4025      	ands	r5, r4
 8001502:	6095      	str	r5, [r2, #8]
 8001504:	68d5      	ldr	r5, [r2, #12]
 8001506:	9e02      	ldr	r6, [sp, #8]
 8001508:	9f01      	ldr	r7, [sp, #4]
 800150a:	432e      	orrs	r6, r5
 800150c:	02bf      	lsls	r7, r7, #10
 800150e:	d401      	bmi.n	8001514 <HAL_GPIO_Init+0x15c>
 8001510:	4025      	ands	r5, r4
 8001512:	002e      	movs	r6, r5
 8001514:	60d6      	str	r6, [r2, #12]
 8001516:	3301      	adds	r3, #1
 8001518:	e757      	b.n	80013ca <HAL_GPIO_Init+0x12>
 800151a:	46c0      	nop			; (mov r8, r8)
 800151c:	b7fff000 	.word	0xb7fff000
 8001520:	40021000 	.word	0x40021000
 8001524:	40010000 	.word	0x40010000
 8001528:	48000400 	.word	0x48000400
 800152c:	48000800 	.word	0x48000800
 8001530:	48000c00 	.word	0x48000c00
 8001534:	40010400 	.word	0x40010400

08001538 <HAL_GPIO_ReadPin>:
 8001538:	6900      	ldr	r0, [r0, #16]
 800153a:	4008      	ands	r0, r1
 800153c:	1e41      	subs	r1, r0, #1
 800153e:	4188      	sbcs	r0, r1
 8001540:	b2c0      	uxtb	r0, r0
 8001542:	4770      	bx	lr

08001544 <HAL_GPIO_WritePin>:
 8001544:	2a00      	cmp	r2, #0
 8001546:	d001      	beq.n	800154c <HAL_GPIO_WritePin+0x8>
 8001548:	6181      	str	r1, [r0, #24]
 800154a:	4770      	bx	lr
 800154c:	6281      	str	r1, [r0, #40]	; 0x28
 800154e:	e7fc      	b.n	800154a <HAL_GPIO_WritePin+0x6>

08001550 <HAL_GPIO_TogglePin>:
 8001550:	6942      	ldr	r2, [r0, #20]
 8001552:	0013      	movs	r3, r2
 8001554:	400b      	ands	r3, r1
 8001556:	041b      	lsls	r3, r3, #16
 8001558:	4391      	bics	r1, r2
 800155a:	4319      	orrs	r1, r3
 800155c:	6181      	str	r1, [r0, #24]
 800155e:	4770      	bx	lr

08001560 <HAL_GPIO_EXTI_IRQHandler>:
 8001560:	4b04      	ldr	r3, [pc, #16]	; (8001574 <HAL_GPIO_EXTI_IRQHandler+0x14>)
 8001562:	b510      	push	{r4, lr}
 8001564:	695a      	ldr	r2, [r3, #20]
 8001566:	4210      	tst	r0, r2
 8001568:	d002      	beq.n	8001570 <HAL_GPIO_EXTI_IRQHandler+0x10>
 800156a:	6158      	str	r0, [r3, #20]
 800156c:	f7fe fe76 	bl	800025c <HAL_GPIO_EXTI_Callback>
 8001570:	bd10      	pop	{r4, pc}
 8001572:	46c0      	nop			; (mov r8, r8)
 8001574:	40010400 	.word	0x40010400

08001578 <HAL_PCD_Init>:
 8001578:	b5f0      	push	{r4, r5, r6, r7, lr}
 800157a:	0004      	movs	r4, r0
 800157c:	2501      	movs	r5, #1
 800157e:	b087      	sub	sp, #28
 8001580:	2800      	cmp	r0, #0
 8001582:	d032      	beq.n	80015ea <HAL_PCD_Init+0x72>
 8001584:	4d31      	ldr	r5, [pc, #196]	; (800164c <HAL_PCD_Init+0xd4>)
 8001586:	5d43      	ldrb	r3, [r0, r5]
 8001588:	b2da      	uxtb	r2, r3
 800158a:	2b00      	cmp	r3, #0
 800158c:	d104      	bne.n	8001598 <HAL_PCD_Init+0x20>
 800158e:	23aa      	movs	r3, #170	; 0xaa
 8001590:	009b      	lsls	r3, r3, #2
 8001592:	54c2      	strb	r2, [r0, r3]
 8001594:	f7ff f870 	bl	8000678 <HAL_PCD_MspInit>
 8001598:	2303      	movs	r3, #3
 800159a:	5563      	strb	r3, [r4, r5]
 800159c:	6820      	ldr	r0, [r4, #0]
 800159e:	f001 f815 	bl	80025cc <USB_DisableGlobalInt>
 80015a2:	2300      	movs	r3, #0
 80015a4:	2701      	movs	r7, #1
 80015a6:	0019      	movs	r1, r3
 80015a8:	6860      	ldr	r0, [r4, #4]
 80015aa:	4283      	cmp	r3, r0
 80015ac:	d320      	bcc.n	80015f0 <HAL_PCD_Init+0x78>
 80015ae:	2200      	movs	r2, #0
 80015b0:	2628      	movs	r6, #40	; 0x28
 80015b2:	0011      	movs	r1, r2
 80015b4:	4290      	cmp	r0, r2
 80015b6:	d834      	bhi.n	8001622 <HAL_PCD_Init+0xaa>
 80015b8:	0023      	movs	r3, r4
 80015ba:	466a      	mov	r2, sp
 80015bc:	3310      	adds	r3, #16
 80015be:	cb43      	ldmia	r3!, {r0, r1, r6}
 80015c0:	c243      	stmia	r2!, {r0, r1, r6}
 80015c2:	cb03      	ldmia	r3!, {r0, r1}
 80015c4:	c203      	stmia	r2!, {r0, r1}
 80015c6:	68a2      	ldr	r2, [r4, #8]
 80015c8:	68e3      	ldr	r3, [r4, #12]
 80015ca:	6861      	ldr	r1, [r4, #4]
 80015cc:	6820      	ldr	r0, [r4, #0]
 80015ce:	f001 f807 	bl	80025e0 <USB_DevInit>
 80015d2:	2300      	movs	r3, #0
 80015d4:	1d62      	adds	r2, r4, #5
 80015d6:	77d3      	strb	r3, [r2, #31]
 80015d8:	2201      	movs	r2, #1
 80015da:	5562      	strb	r2, [r4, r5]
 80015dc:	001d      	movs	r5, r3
 80015de:	69e3      	ldr	r3, [r4, #28]
 80015e0:	4293      	cmp	r3, r2
 80015e2:	d102      	bne.n	80015ea <HAL_PCD_Init+0x72>
 80015e4:	0020      	movs	r0, r4
 80015e6:	f000 f833 	bl	8001650 <HAL_PCDEx_ActivateLPM>
 80015ea:	0028      	movs	r0, r5
 80015ec:	b007      	add	sp, #28
 80015ee:	bdf0      	pop	{r4, r5, r6, r7, pc}
 80015f0:	2629      	movs	r6, #41	; 0x29
 80015f2:	2228      	movs	r2, #40	; 0x28
 80015f4:	46b4      	mov	ip, r6
 80015f6:	435a      	muls	r2, r3
 80015f8:	18a2      	adds	r2, r4, r2
 80015fa:	4494      	add	ip, r2
 80015fc:	4666      	mov	r6, ip
 80015fe:	7037      	strb	r7, [r6, #0]
 8001600:	2628      	movs	r6, #40	; 0x28
 8001602:	46b4      	mov	ip, r6
 8001604:	4494      	add	ip, r2
 8001606:	4666      	mov	r6, ip
 8001608:	7033      	strb	r3, [r6, #0]
 800160a:	262b      	movs	r6, #43	; 0x2b
 800160c:	46b4      	mov	ip, r6
 800160e:	4494      	add	ip, r2
 8001610:	4666      	mov	r6, ip
 8001612:	86d3      	strh	r3, [r2, #54]	; 0x36
 8001614:	3301      	adds	r3, #1
 8001616:	7031      	strb	r1, [r6, #0]
 8001618:	b2db      	uxtb	r3, r3
 800161a:	6391      	str	r1, [r2, #56]	; 0x38
 800161c:	63d1      	str	r1, [r2, #60]	; 0x3c
 800161e:	6411      	str	r1, [r2, #64]	; 0x40
 8001620:	e7c3      	b.n	80015aa <HAL_PCD_Init+0x32>
 8001622:	0033      	movs	r3, r6
 8001624:	4353      	muls	r3, r2
 8001626:	18e3      	adds	r3, r4, r3
 8001628:	001f      	movs	r7, r3
 800162a:	376a      	adds	r7, #106	; 0x6a
 800162c:	37ff      	adds	r7, #255	; 0xff
 800162e:	7039      	strb	r1, [r7, #0]
 8001630:	3f01      	subs	r7, #1
 8001632:	703a      	strb	r2, [r7, #0]
 8001634:	70f9      	strb	r1, [r7, #3]
 8001636:	3381      	adds	r3, #129	; 0x81
 8001638:	3f6c      	subs	r7, #108	; 0x6c
 800163a:	67f9      	str	r1, [r7, #124]	; 0x7c
 800163c:	33ff      	adds	r3, #255	; 0xff
 800163e:	3780      	adds	r7, #128	; 0x80
 8001640:	3201      	adds	r2, #1
 8001642:	6039      	str	r1, [r7, #0]
 8001644:	b2d2      	uxtb	r2, r2
 8001646:	6019      	str	r1, [r3, #0]
 8001648:	e7b4      	b.n	80015b4 <HAL_PCD_Init+0x3c>
 800164a:	46c0      	nop			; (mov r8, r8)
 800164c:	000002a9 	.word	0x000002a9

08001650 <HAL_PCDEx_ActivateLPM>:
 8001650:	6803      	ldr	r3, [r0, #0]
 8001652:	0002      	movs	r2, r0
 8001654:	20ba      	movs	r0, #186	; 0xba
 8001656:	2101      	movs	r1, #1
 8001658:	b510      	push	{r4, lr}
 800165a:	0080      	lsls	r0, r0, #2
 800165c:	24b8      	movs	r4, #184	; 0xb8
 800165e:	5011      	str	r1, [r2, r0]
 8001660:	2000      	movs	r0, #0
 8001662:	00a4      	lsls	r4, r4, #2
 8001664:	5510      	strb	r0, [r2, r4]
 8001666:	3354      	adds	r3, #84	; 0x54
 8001668:	881a      	ldrh	r2, [r3, #0]
 800166a:	4311      	orrs	r1, r2
 800166c:	2202      	movs	r2, #2
 800166e:	8019      	strh	r1, [r3, #0]
 8001670:	8819      	ldrh	r1, [r3, #0]
 8001672:	430a      	orrs	r2, r1
 8001674:	801a      	strh	r2, [r3, #0]
 8001676:	bd10      	pop	{r4, pc}

08001678 <HAL_RCC_OscConfig>:
 8001678:	b5f0      	push	{r4, r5, r6, r7, lr}
 800167a:	0004      	movs	r4, r0
 800167c:	b085      	sub	sp, #20
 800167e:	2800      	cmp	r0, #0
 8001680:	d04e      	beq.n	8001720 <HAL_RCC_OscConfig+0xa8>
 8001682:	6803      	ldr	r3, [r0, #0]
 8001684:	07db      	lsls	r3, r3, #31
 8001686:	d433      	bmi.n	80016f0 <HAL_RCC_OscConfig+0x78>
 8001688:	6823      	ldr	r3, [r4, #0]
 800168a:	079b      	lsls	r3, r3, #30
 800168c:	d500      	bpl.n	8001690 <HAL_RCC_OscConfig+0x18>
 800168e:	e08a      	b.n	80017a6 <HAL_RCC_OscConfig+0x12e>
 8001690:	6823      	ldr	r3, [r4, #0]
 8001692:	071b      	lsls	r3, r3, #28
 8001694:	d500      	bpl.n	8001698 <HAL_RCC_OscConfig+0x20>
 8001696:	e0ca      	b.n	800182e <HAL_RCC_OscConfig+0x1b6>
 8001698:	6823      	ldr	r3, [r4, #0]
 800169a:	075b      	lsls	r3, r3, #29
 800169c:	d500      	bpl.n	80016a0 <HAL_RCC_OscConfig+0x28>
 800169e:	e0ed      	b.n	800187c <HAL_RCC_OscConfig+0x204>
 80016a0:	6823      	ldr	r3, [r4, #0]
 80016a2:	06db      	lsls	r3, r3, #27
 80016a4:	d51a      	bpl.n	80016dc <HAL_RCC_OscConfig+0x64>
 80016a6:	6962      	ldr	r2, [r4, #20]
 80016a8:	2304      	movs	r3, #4
 80016aa:	4dbc      	ldr	r5, [pc, #752]	; (800199c <HAL_RCC_OscConfig+0x324>)
 80016ac:	2a01      	cmp	r2, #1
 80016ae:	d000      	beq.n	80016b2 <HAL_RCC_OscConfig+0x3a>
 80016b0:	e158      	b.n	8001964 <HAL_RCC_OscConfig+0x2ec>
 80016b2:	6b69      	ldr	r1, [r5, #52]	; 0x34
 80016b4:	2702      	movs	r7, #2
 80016b6:	430b      	orrs	r3, r1
 80016b8:	636b      	str	r3, [r5, #52]	; 0x34
 80016ba:	6b6b      	ldr	r3, [r5, #52]	; 0x34
 80016bc:	431a      	orrs	r2, r3
 80016be:	636a      	str	r2, [r5, #52]	; 0x34
 80016c0:	f7ff fc14 	bl	8000eec <HAL_GetTick>
 80016c4:	0006      	movs	r6, r0
 80016c6:	6b6b      	ldr	r3, [r5, #52]	; 0x34
 80016c8:	423b      	tst	r3, r7
 80016ca:	d100      	bne.n	80016ce <HAL_RCC_OscConfig+0x56>
 80016cc:	e143      	b.n	8001956 <HAL_RCC_OscConfig+0x2de>
 80016ce:	21f8      	movs	r1, #248	; 0xf8
 80016d0:	6b6a      	ldr	r2, [r5, #52]	; 0x34
 80016d2:	69a3      	ldr	r3, [r4, #24]
 80016d4:	438a      	bics	r2, r1
 80016d6:	00db      	lsls	r3, r3, #3
 80016d8:	4313      	orrs	r3, r2
 80016da:	636b      	str	r3, [r5, #52]	; 0x34
 80016dc:	6823      	ldr	r3, [r4, #0]
 80016de:	069b      	lsls	r3, r3, #26
 80016e0:	d500      	bpl.n	80016e4 <HAL_RCC_OscConfig+0x6c>
 80016e2:	e167      	b.n	80019b4 <HAL_RCC_OscConfig+0x33c>
 80016e4:	6a63      	ldr	r3, [r4, #36]	; 0x24
 80016e6:	2b00      	cmp	r3, #0
 80016e8:	d000      	beq.n	80016ec <HAL_RCC_OscConfig+0x74>
 80016ea:	e1a4      	b.n	8001a36 <HAL_RCC_OscConfig+0x3be>
 80016ec:	2000      	movs	r0, #0
 80016ee:	e02f      	b.n	8001750 <HAL_RCC_OscConfig+0xd8>
 80016f0:	210c      	movs	r1, #12
 80016f2:	4daa      	ldr	r5, [pc, #680]	; (800199c <HAL_RCC_OscConfig+0x324>)
 80016f4:	686a      	ldr	r2, [r5, #4]
 80016f6:	400a      	ands	r2, r1
 80016f8:	2a04      	cmp	r2, #4
 80016fa:	d00b      	beq.n	8001714 <HAL_RCC_OscConfig+0x9c>
 80016fc:	686b      	ldr	r3, [r5, #4]
 80016fe:	400b      	ands	r3, r1
 8001700:	2b08      	cmp	r3, #8
 8001702:	d10f      	bne.n	8001724 <HAL_RCC_OscConfig+0xac>
 8001704:	22c0      	movs	r2, #192	; 0xc0
 8001706:	686b      	ldr	r3, [r5, #4]
 8001708:	0252      	lsls	r2, r2, #9
 800170a:	4013      	ands	r3, r2
 800170c:	2280      	movs	r2, #128	; 0x80
 800170e:	0252      	lsls	r2, r2, #9
 8001710:	4293      	cmp	r3, r2
 8001712:	d107      	bne.n	8001724 <HAL_RCC_OscConfig+0xac>
 8001714:	682b      	ldr	r3, [r5, #0]
 8001716:	039b      	lsls	r3, r3, #14
 8001718:	d5b6      	bpl.n	8001688 <HAL_RCC_OscConfig+0x10>
 800171a:	6863      	ldr	r3, [r4, #4]
 800171c:	2b00      	cmp	r3, #0
 800171e:	d1b3      	bne.n	8001688 <HAL_RCC_OscConfig+0x10>
 8001720:	2001      	movs	r0, #1
 8001722:	e015      	b.n	8001750 <HAL_RCC_OscConfig+0xd8>
 8001724:	6863      	ldr	r3, [r4, #4]
 8001726:	2b01      	cmp	r3, #1
 8001728:	d114      	bne.n	8001754 <HAL_RCC_OscConfig+0xdc>
 800172a:	2380      	movs	r3, #128	; 0x80
 800172c:	682a      	ldr	r2, [r5, #0]
 800172e:	025b      	lsls	r3, r3, #9
 8001730:	4313      	orrs	r3, r2
 8001732:	602b      	str	r3, [r5, #0]
 8001734:	f7ff fbda 	bl	8000eec <HAL_GetTick>
 8001738:	2780      	movs	r7, #128	; 0x80
 800173a:	0006      	movs	r6, r0
 800173c:	02bf      	lsls	r7, r7, #10
 800173e:	682b      	ldr	r3, [r5, #0]
 8001740:	423b      	tst	r3, r7
 8001742:	d1a1      	bne.n	8001688 <HAL_RCC_OscConfig+0x10>
 8001744:	f7ff fbd2 	bl	8000eec <HAL_GetTick>
 8001748:	1b80      	subs	r0, r0, r6
 800174a:	2864      	cmp	r0, #100	; 0x64
 800174c:	d9f7      	bls.n	800173e <HAL_RCC_OscConfig+0xc6>
 800174e:	2003      	movs	r0, #3
 8001750:	b005      	add	sp, #20
 8001752:	bdf0      	pop	{r4, r5, r6, r7, pc}
 8001754:	2b00      	cmp	r3, #0
 8001756:	d116      	bne.n	8001786 <HAL_RCC_OscConfig+0x10e>
 8001758:	682b      	ldr	r3, [r5, #0]
 800175a:	4a91      	ldr	r2, [pc, #580]	; (80019a0 <HAL_RCC_OscConfig+0x328>)
 800175c:	2780      	movs	r7, #128	; 0x80
 800175e:	4013      	ands	r3, r2
 8001760:	602b      	str	r3, [r5, #0]
 8001762:	682b      	ldr	r3, [r5, #0]
 8001764:	4a8f      	ldr	r2, [pc, #572]	; (80019a4 <HAL_RCC_OscConfig+0x32c>)
 8001766:	02bf      	lsls	r7, r7, #10
 8001768:	4013      	ands	r3, r2
 800176a:	602b      	str	r3, [r5, #0]
 800176c:	f7ff fbbe 	bl	8000eec <HAL_GetTick>
 8001770:	0006      	movs	r6, r0
 8001772:	682b      	ldr	r3, [r5, #0]
 8001774:	423b      	tst	r3, r7
 8001776:	d100      	bne.n	800177a <HAL_RCC_OscConfig+0x102>
 8001778:	e786      	b.n	8001688 <HAL_RCC_OscConfig+0x10>
 800177a:	f7ff fbb7 	bl	8000eec <HAL_GetTick>
 800177e:	1b80      	subs	r0, r0, r6
 8001780:	2864      	cmp	r0, #100	; 0x64
 8001782:	d9f6      	bls.n	8001772 <HAL_RCC_OscConfig+0xfa>
 8001784:	e7e3      	b.n	800174e <HAL_RCC_OscConfig+0xd6>
 8001786:	2b05      	cmp	r3, #5
 8001788:	d105      	bne.n	8001796 <HAL_RCC_OscConfig+0x11e>
 800178a:	2380      	movs	r3, #128	; 0x80
 800178c:	682a      	ldr	r2, [r5, #0]
 800178e:	02db      	lsls	r3, r3, #11
 8001790:	4313      	orrs	r3, r2
 8001792:	602b      	str	r3, [r5, #0]
 8001794:	e7c9      	b.n	800172a <HAL_RCC_OscConfig+0xb2>
 8001796:	682b      	ldr	r3, [r5, #0]
 8001798:	4a81      	ldr	r2, [pc, #516]	; (80019a0 <HAL_RCC_OscConfig+0x328>)
 800179a:	4013      	ands	r3, r2
 800179c:	602b      	str	r3, [r5, #0]
 800179e:	682b      	ldr	r3, [r5, #0]
 80017a0:	4a80      	ldr	r2, [pc, #512]	; (80019a4 <HAL_RCC_OscConfig+0x32c>)
 80017a2:	4013      	ands	r3, r2
 80017a4:	e7c5      	b.n	8001732 <HAL_RCC_OscConfig+0xba>
 80017a6:	220c      	movs	r2, #12
 80017a8:	4d7c      	ldr	r5, [pc, #496]	; (800199c <HAL_RCC_OscConfig+0x324>)
 80017aa:	686b      	ldr	r3, [r5, #4]
 80017ac:	4213      	tst	r3, r2
 80017ae:	d00b      	beq.n	80017c8 <HAL_RCC_OscConfig+0x150>
 80017b0:	686b      	ldr	r3, [r5, #4]
 80017b2:	4013      	ands	r3, r2
 80017b4:	2b08      	cmp	r3, #8
 80017b6:	d115      	bne.n	80017e4 <HAL_RCC_OscConfig+0x16c>
 80017b8:	22c0      	movs	r2, #192	; 0xc0
 80017ba:	686b      	ldr	r3, [r5, #4]
 80017bc:	0252      	lsls	r2, r2, #9
 80017be:	4013      	ands	r3, r2
 80017c0:	2280      	movs	r2, #128	; 0x80
 80017c2:	0212      	lsls	r2, r2, #8
 80017c4:	4293      	cmp	r3, r2
 80017c6:	d10d      	bne.n	80017e4 <HAL_RCC_OscConfig+0x16c>
 80017c8:	682b      	ldr	r3, [r5, #0]
 80017ca:	079b      	lsls	r3, r3, #30
 80017cc:	d502      	bpl.n	80017d4 <HAL_RCC_OscConfig+0x15c>
 80017ce:	68e3      	ldr	r3, [r4, #12]
 80017d0:	2b01      	cmp	r3, #1
 80017d2:	d1a5      	bne.n	8001720 <HAL_RCC_OscConfig+0xa8>
 80017d4:	21f8      	movs	r1, #248	; 0xf8
 80017d6:	682a      	ldr	r2, [r5, #0]
 80017d8:	6923      	ldr	r3, [r4, #16]
 80017da:	438a      	bics	r2, r1
 80017dc:	00db      	lsls	r3, r3, #3
 80017de:	4313      	orrs	r3, r2
 80017e0:	602b      	str	r3, [r5, #0]
 80017e2:	e755      	b.n	8001690 <HAL_RCC_OscConfig+0x18>
 80017e4:	68e2      	ldr	r2, [r4, #12]
 80017e6:	2301      	movs	r3, #1
 80017e8:	2a00      	cmp	r2, #0
 80017ea:	d00f      	beq.n	800180c <HAL_RCC_OscConfig+0x194>
 80017ec:	682a      	ldr	r2, [r5, #0]
 80017ee:	2702      	movs	r7, #2
 80017f0:	4313      	orrs	r3, r2
 80017f2:	602b      	str	r3, [r5, #0]
 80017f4:	f7ff fb7a 	bl	8000eec <HAL_GetTick>
 80017f8:	0006      	movs	r6, r0
 80017fa:	682b      	ldr	r3, [r5, #0]
 80017fc:	423b      	tst	r3, r7
 80017fe:	d1e9      	bne.n	80017d4 <HAL_RCC_OscConfig+0x15c>
 8001800:	f7ff fb74 	bl	8000eec <HAL_GetTick>
 8001804:	1b80      	subs	r0, r0, r6
 8001806:	2802      	cmp	r0, #2
 8001808:	d9f7      	bls.n	80017fa <HAL_RCC_OscConfig+0x182>
 800180a:	e7a0      	b.n	800174e <HAL_RCC_OscConfig+0xd6>
 800180c:	682a      	ldr	r2, [r5, #0]
 800180e:	2702      	movs	r7, #2
 8001810:	439a      	bics	r2, r3
 8001812:	602a      	str	r2, [r5, #0]
 8001814:	f7ff fb6a 	bl	8000eec <HAL_GetTick>
 8001818:	0006      	movs	r6, r0
 800181a:	682b      	ldr	r3, [r5, #0]
 800181c:	423b      	tst	r3, r7
 800181e:	d100      	bne.n	8001822 <HAL_RCC_OscConfig+0x1aa>
 8001820:	e736      	b.n	8001690 <HAL_RCC_OscConfig+0x18>
 8001822:	f7ff fb63 	bl	8000eec <HAL_GetTick>
 8001826:	1b80      	subs	r0, r0, r6
 8001828:	2802      	cmp	r0, #2
 800182a:	d9f6      	bls.n	800181a <HAL_RCC_OscConfig+0x1a2>
 800182c:	e78f      	b.n	800174e <HAL_RCC_OscConfig+0xd6>
 800182e:	69e2      	ldr	r2, [r4, #28]
 8001830:	2301      	movs	r3, #1
 8001832:	4d5a      	ldr	r5, [pc, #360]	; (800199c <HAL_RCC_OscConfig+0x324>)
 8001834:	2a00      	cmp	r2, #0
 8001836:	d010      	beq.n	800185a <HAL_RCC_OscConfig+0x1e2>
 8001838:	6a6a      	ldr	r2, [r5, #36]	; 0x24
 800183a:	2702      	movs	r7, #2
 800183c:	4313      	orrs	r3, r2
 800183e:	626b      	str	r3, [r5, #36]	; 0x24
 8001840:	f7ff fb54 	bl	8000eec <HAL_GetTick>
 8001844:	0006      	movs	r6, r0
 8001846:	6a6b      	ldr	r3, [r5, #36]	; 0x24
 8001848:	423b      	tst	r3, r7
 800184a:	d000      	beq.n	800184e <HAL_RCC_OscConfig+0x1d6>
 800184c:	e724      	b.n	8001698 <HAL_RCC_OscConfig+0x20>
 800184e:	f7ff fb4d 	bl	8000eec <HAL_GetTick>
 8001852:	1b80      	subs	r0, r0, r6
 8001854:	2802      	cmp	r0, #2
 8001856:	d9f6      	bls.n	8001846 <HAL_RCC_OscConfig+0x1ce>
 8001858:	e779      	b.n	800174e <HAL_RCC_OscConfig+0xd6>
 800185a:	6a6a      	ldr	r2, [r5, #36]	; 0x24
 800185c:	2702      	movs	r7, #2
 800185e:	439a      	bics	r2, r3
 8001860:	626a      	str	r2, [r5, #36]	; 0x24
 8001862:	f7ff fb43 	bl	8000eec <HAL_GetTick>
 8001866:	0006      	movs	r6, r0
 8001868:	6a6b      	ldr	r3, [r5, #36]	; 0x24
 800186a:	423b      	tst	r3, r7
 800186c:	d100      	bne.n	8001870 <HAL_RCC_OscConfig+0x1f8>
 800186e:	e713      	b.n	8001698 <HAL_RCC_OscConfig+0x20>
 8001870:	f7ff fb3c 	bl	8000eec <HAL_GetTick>
 8001874:	1b80      	subs	r0, r0, r6
 8001876:	2802      	cmp	r0, #2
 8001878:	d9f6      	bls.n	8001868 <HAL_RCC_OscConfig+0x1f0>
 800187a:	e768      	b.n	800174e <HAL_RCC_OscConfig+0xd6>
 800187c:	2280      	movs	r2, #128	; 0x80
 800187e:	2100      	movs	r1, #0
 8001880:	4d46      	ldr	r5, [pc, #280]	; (800199c <HAL_RCC_OscConfig+0x324>)
 8001882:	0552      	lsls	r2, r2, #21
 8001884:	69eb      	ldr	r3, [r5, #28]
 8001886:	9100      	str	r1, [sp, #0]
 8001888:	4213      	tst	r3, r2
 800188a:	d108      	bne.n	800189e <HAL_RCC_OscConfig+0x226>
 800188c:	69eb      	ldr	r3, [r5, #28]
 800188e:	4313      	orrs	r3, r2
 8001890:	61eb      	str	r3, [r5, #28]
 8001892:	69eb      	ldr	r3, [r5, #28]
 8001894:	4013      	ands	r3, r2
 8001896:	9303      	str	r3, [sp, #12]
 8001898:	9b03      	ldr	r3, [sp, #12]
 800189a:	2301      	movs	r3, #1
 800189c:	9300      	str	r3, [sp, #0]
 800189e:	2780      	movs	r7, #128	; 0x80
 80018a0:	4e41      	ldr	r6, [pc, #260]	; (80019a8 <HAL_RCC_OscConfig+0x330>)
 80018a2:	007f      	lsls	r7, r7, #1
 80018a4:	6833      	ldr	r3, [r6, #0]
 80018a6:	423b      	tst	r3, r7
 80018a8:	d006      	beq.n	80018b8 <HAL_RCC_OscConfig+0x240>
 80018aa:	68a3      	ldr	r3, [r4, #8]
 80018ac:	2b01      	cmp	r3, #1
 80018ae:	d113      	bne.n	80018d8 <HAL_RCC_OscConfig+0x260>
 80018b0:	6a2a      	ldr	r2, [r5, #32]
 80018b2:	4313      	orrs	r3, r2
 80018b4:	622b      	str	r3, [r5, #32]
 80018b6:	e030      	b.n	800191a <HAL_RCC_OscConfig+0x2a2>
 80018b8:	6833      	ldr	r3, [r6, #0]
 80018ba:	433b      	orrs	r3, r7
 80018bc:	6033      	str	r3, [r6, #0]
 80018be:	f7ff fb15 	bl	8000eec <HAL_GetTick>
 80018c2:	9001      	str	r0, [sp, #4]
 80018c4:	6833      	ldr	r3, [r6, #0]
 80018c6:	423b      	tst	r3, r7
 80018c8:	d1ef      	bne.n	80018aa <HAL_RCC_OscConfig+0x232>
 80018ca:	f7ff fb0f 	bl	8000eec <HAL_GetTick>
 80018ce:	9b01      	ldr	r3, [sp, #4]
 80018d0:	1ac0      	subs	r0, r0, r3
 80018d2:	2864      	cmp	r0, #100	; 0x64
 80018d4:	d9f6      	bls.n	80018c4 <HAL_RCC_OscConfig+0x24c>
 80018d6:	e73a      	b.n	800174e <HAL_RCC_OscConfig+0xd6>
 80018d8:	2201      	movs	r2, #1
 80018da:	2b00      	cmp	r3, #0
 80018dc:	d114      	bne.n	8001908 <HAL_RCC_OscConfig+0x290>
 80018de:	6a2b      	ldr	r3, [r5, #32]
 80018e0:	2702      	movs	r7, #2
 80018e2:	4393      	bics	r3, r2
 80018e4:	622b      	str	r3, [r5, #32]
 80018e6:	6a2b      	ldr	r3, [r5, #32]
 80018e8:	3203      	adds	r2, #3
 80018ea:	4393      	bics	r3, r2
 80018ec:	622b      	str	r3, [r5, #32]
 80018ee:	f7ff fafd 	bl	8000eec <HAL_GetTick>
 80018f2:	0006      	movs	r6, r0
 80018f4:	6a2b      	ldr	r3, [r5, #32]
 80018f6:	423b      	tst	r3, r7
 80018f8:	d016      	beq.n	8001928 <HAL_RCC_OscConfig+0x2b0>
 80018fa:	f7ff faf7 	bl	8000eec <HAL_GetTick>
 80018fe:	4b2b      	ldr	r3, [pc, #172]	; (80019ac <HAL_RCC_OscConfig+0x334>)
 8001900:	1b80      	subs	r0, r0, r6
 8001902:	4298      	cmp	r0, r3
 8001904:	d9f6      	bls.n	80018f4 <HAL_RCC_OscConfig+0x27c>
 8001906:	e722      	b.n	800174e <HAL_RCC_OscConfig+0xd6>
 8001908:	2b05      	cmp	r3, #5
 800190a:	d116      	bne.n	800193a <HAL_RCC_OscConfig+0x2c2>
 800190c:	6a29      	ldr	r1, [r5, #32]
 800190e:	3b01      	subs	r3, #1
 8001910:	430b      	orrs	r3, r1
 8001912:	622b      	str	r3, [r5, #32]
 8001914:	6a2b      	ldr	r3, [r5, #32]
 8001916:	431a      	orrs	r2, r3
 8001918:	622a      	str	r2, [r5, #32]
 800191a:	f7ff fae7 	bl	8000eec <HAL_GetTick>
 800191e:	2702      	movs	r7, #2
 8001920:	0006      	movs	r6, r0
 8001922:	6a2b      	ldr	r3, [r5, #32]
 8001924:	423b      	tst	r3, r7
 8001926:	d00f      	beq.n	8001948 <HAL_RCC_OscConfig+0x2d0>
 8001928:	9b00      	ldr	r3, [sp, #0]
 800192a:	2b01      	cmp	r3, #1
 800192c:	d000      	beq.n	8001930 <HAL_RCC_OscConfig+0x2b8>
 800192e:	e6b7      	b.n	80016a0 <HAL_RCC_OscConfig+0x28>
 8001930:	69eb      	ldr	r3, [r5, #28]
 8001932:	4a1f      	ldr	r2, [pc, #124]	; (80019b0 <HAL_RCC_OscConfig+0x338>)
 8001934:	4013      	ands	r3, r2
 8001936:	61eb      	str	r3, [r5, #28]
 8001938:	e6b2      	b.n	80016a0 <HAL_RCC_OscConfig+0x28>
 800193a:	6a2b      	ldr	r3, [r5, #32]
 800193c:	4393      	bics	r3, r2
 800193e:	2204      	movs	r2, #4
 8001940:	622b      	str	r3, [r5, #32]
 8001942:	6a2b      	ldr	r3, [r5, #32]
 8001944:	4393      	bics	r3, r2
 8001946:	e7b5      	b.n	80018b4 <HAL_RCC_OscConfig+0x23c>
 8001948:	f7ff fad0 	bl	8000eec <HAL_GetTick>
 800194c:	4b17      	ldr	r3, [pc, #92]	; (80019ac <HAL_RCC_OscConfig+0x334>)
 800194e:	1b80      	subs	r0, r0, r6
 8001950:	4298      	cmp	r0, r3
 8001952:	d9e6      	bls.n	8001922 <HAL_RCC_OscConfig+0x2aa>
 8001954:	e6fb      	b.n	800174e <HAL_RCC_OscConfig+0xd6>
 8001956:	f7ff fac9 	bl	8000eec <HAL_GetTick>
 800195a:	1b80      	subs	r0, r0, r6
 800195c:	2802      	cmp	r0, #2
 800195e:	d800      	bhi.n	8001962 <HAL_RCC_OscConfig+0x2ea>
 8001960:	e6b1      	b.n	80016c6 <HAL_RCC_OscConfig+0x4e>
 8001962:	e6f4      	b.n	800174e <HAL_RCC_OscConfig+0xd6>
 8001964:	3205      	adds	r2, #5
 8001966:	d103      	bne.n	8001970 <HAL_RCC_OscConfig+0x2f8>
 8001968:	6b6a      	ldr	r2, [r5, #52]	; 0x34
 800196a:	439a      	bics	r2, r3
 800196c:	636a      	str	r2, [r5, #52]	; 0x34
 800196e:	e6ae      	b.n	80016ce <HAL_RCC_OscConfig+0x56>
 8001970:	6b6a      	ldr	r2, [r5, #52]	; 0x34
 8001972:	2702      	movs	r7, #2
 8001974:	4313      	orrs	r3, r2
 8001976:	2201      	movs	r2, #1
 8001978:	636b      	str	r3, [r5, #52]	; 0x34
 800197a:	6b6b      	ldr	r3, [r5, #52]	; 0x34
 800197c:	4393      	bics	r3, r2
 800197e:	636b      	str	r3, [r5, #52]	; 0x34
 8001980:	f7ff fab4 	bl	8000eec <HAL_GetTick>
 8001984:	0006      	movs	r6, r0
 8001986:	6b6b      	ldr	r3, [r5, #52]	; 0x34
 8001988:	423b      	tst	r3, r7
 800198a:	d100      	bne.n	800198e <HAL_RCC_OscConfig+0x316>
 800198c:	e6a6      	b.n	80016dc <HAL_RCC_OscConfig+0x64>
 800198e:	f7ff faad 	bl	8000eec <HAL_GetTick>
 8001992:	1b80      	subs	r0, r0, r6
 8001994:	2802      	cmp	r0, #2
 8001996:	d9f6      	bls.n	8001986 <HAL_RCC_OscConfig+0x30e>
 8001998:	e6d9      	b.n	800174e <HAL_RCC_OscConfig+0xd6>
 800199a:	46c0      	nop			; (mov r8, r8)
 800199c:	40021000 	.word	0x40021000
 80019a0:	fffeffff 	.word	0xfffeffff
 80019a4:	fffbffff 	.word	0xfffbffff
 80019a8:	40007000 	.word	0x40007000
 80019ac:	00001388 	.word	0x00001388
 80019b0:	efffffff 	.word	0xefffffff
 80019b4:	210c      	movs	r1, #12
 80019b6:	4d54      	ldr	r5, [pc, #336]	; (8001b08 <HAL_RCC_OscConfig+0x490>)
 80019b8:	686a      	ldr	r2, [r5, #4]
 80019ba:	400a      	ands	r2, r1
 80019bc:	428a      	cmp	r2, r1
 80019be:	d009      	beq.n	80019d4 <HAL_RCC_OscConfig+0x35c>
 80019c0:	686b      	ldr	r3, [r5, #4]
 80019c2:	400b      	ands	r3, r1
 80019c4:	2b08      	cmp	r3, #8
 80019c6:	d10e      	bne.n	80019e6 <HAL_RCC_OscConfig+0x36e>
 80019c8:	22c0      	movs	r2, #192	; 0xc0
 80019ca:	686b      	ldr	r3, [r5, #4]
 80019cc:	0252      	lsls	r2, r2, #9
 80019ce:	4013      	ands	r3, r2
 80019d0:	4293      	cmp	r3, r2
 80019d2:	d108      	bne.n	80019e6 <HAL_RCC_OscConfig+0x36e>
 80019d4:	6b6b      	ldr	r3, [r5, #52]	; 0x34
 80019d6:	03db      	lsls	r3, r3, #15
 80019d8:	d400      	bmi.n	80019dc <HAL_RCC_OscConfig+0x364>
 80019da:	e683      	b.n	80016e4 <HAL_RCC_OscConfig+0x6c>
 80019dc:	6a23      	ldr	r3, [r4, #32]
 80019de:	2b01      	cmp	r3, #1
 80019e0:	d000      	beq.n	80019e4 <HAL_RCC_OscConfig+0x36c>
 80019e2:	e69d      	b.n	8001720 <HAL_RCC_OscConfig+0xa8>
 80019e4:	e67e      	b.n	80016e4 <HAL_RCC_OscConfig+0x6c>
 80019e6:	6a23      	ldr	r3, [r4, #32]
 80019e8:	2b00      	cmp	r3, #0
 80019ea:	d011      	beq.n	8001a10 <HAL_RCC_OscConfig+0x398>
 80019ec:	2680      	movs	r6, #128	; 0x80
 80019ee:	6b6b      	ldr	r3, [r5, #52]	; 0x34
 80019f0:	0276      	lsls	r6, r6, #9
 80019f2:	4333      	orrs	r3, r6
 80019f4:	636b      	str	r3, [r5, #52]	; 0x34
 80019f6:	f7ff fa79 	bl	8000eec <HAL_GetTick>
 80019fa:	0007      	movs	r7, r0
 80019fc:	6b6b      	ldr	r3, [r5, #52]	; 0x34
 80019fe:	4233      	tst	r3, r6
 8001a00:	d000      	beq.n	8001a04 <HAL_RCC_OscConfig+0x38c>
 8001a02:	e66f      	b.n	80016e4 <HAL_RCC_OscConfig+0x6c>
 8001a04:	f7ff fa72 	bl	8000eec <HAL_GetTick>
 8001a08:	1bc0      	subs	r0, r0, r7
 8001a0a:	2802      	cmp	r0, #2
 8001a0c:	d9f6      	bls.n	80019fc <HAL_RCC_OscConfig+0x384>
 8001a0e:	e69e      	b.n	800174e <HAL_RCC_OscConfig+0xd6>
 8001a10:	6b6b      	ldr	r3, [r5, #52]	; 0x34
 8001a12:	4a3e      	ldr	r2, [pc, #248]	; (8001b0c <HAL_RCC_OscConfig+0x494>)
 8001a14:	2780      	movs	r7, #128	; 0x80
 8001a16:	4013      	ands	r3, r2
 8001a18:	636b      	str	r3, [r5, #52]	; 0x34
 8001a1a:	f7ff fa67 	bl	8000eec <HAL_GetTick>
 8001a1e:	0006      	movs	r6, r0
 8001a20:	027f      	lsls	r7, r7, #9
 8001a22:	6b6b      	ldr	r3, [r5, #52]	; 0x34
 8001a24:	423b      	tst	r3, r7
 8001a26:	d100      	bne.n	8001a2a <HAL_RCC_OscConfig+0x3b2>
 8001a28:	e65c      	b.n	80016e4 <HAL_RCC_OscConfig+0x6c>
 8001a2a:	f7ff fa5f 	bl	8000eec <HAL_GetTick>
 8001a2e:	1b80      	subs	r0, r0, r6
 8001a30:	2802      	cmp	r0, #2
 8001a32:	d9f6      	bls.n	8001a22 <HAL_RCC_OscConfig+0x3aa>
 8001a34:	e68b      	b.n	800174e <HAL_RCC_OscConfig+0xd6>
 8001a36:	200c      	movs	r0, #12
 8001a38:	4a33      	ldr	r2, [pc, #204]	; (8001b08 <HAL_RCC_OscConfig+0x490>)
 8001a3a:	6851      	ldr	r1, [r2, #4]
 8001a3c:	0015      	movs	r5, r2
 8001a3e:	4001      	ands	r1, r0
 8001a40:	2908      	cmp	r1, #8
 8001a42:	d047      	beq.n	8001ad4 <HAL_RCC_OscConfig+0x45c>
 8001a44:	4a32      	ldr	r2, [pc, #200]	; (8001b10 <HAL_RCC_OscConfig+0x498>)
 8001a46:	2b02      	cmp	r3, #2
 8001a48:	d132      	bne.n	8001ab0 <HAL_RCC_OscConfig+0x438>
 8001a4a:	682b      	ldr	r3, [r5, #0]
 8001a4c:	2780      	movs	r7, #128	; 0x80
 8001a4e:	4013      	ands	r3, r2
 8001a50:	602b      	str	r3, [r5, #0]
 8001a52:	f7ff fa4b 	bl	8000eec <HAL_GetTick>
 8001a56:	0006      	movs	r6, r0
 8001a58:	04bf      	lsls	r7, r7, #18
 8001a5a:	682b      	ldr	r3, [r5, #0]
 8001a5c:	423b      	tst	r3, r7
 8001a5e:	d121      	bne.n	8001aa4 <HAL_RCC_OscConfig+0x42c>
 8001a60:	220f      	movs	r2, #15
 8001a62:	6aeb      	ldr	r3, [r5, #44]	; 0x2c
 8001a64:	2680      	movs	r6, #128	; 0x80
 8001a66:	4393      	bics	r3, r2
 8001a68:	6b22      	ldr	r2, [r4, #48]	; 0x30
 8001a6a:	04b6      	lsls	r6, r6, #18
 8001a6c:	4313      	orrs	r3, r2
 8001a6e:	62eb      	str	r3, [r5, #44]	; 0x2c
 8001a70:	6aa1      	ldr	r1, [r4, #40]	; 0x28
 8001a72:	6ae3      	ldr	r3, [r4, #44]	; 0x2c
 8001a74:	686a      	ldr	r2, [r5, #4]
 8001a76:	430b      	orrs	r3, r1
 8001a78:	4926      	ldr	r1, [pc, #152]	; (8001b14 <HAL_RCC_OscConfig+0x49c>)
 8001a7a:	400a      	ands	r2, r1
 8001a7c:	4313      	orrs	r3, r2
 8001a7e:	606b      	str	r3, [r5, #4]
 8001a80:	2380      	movs	r3, #128	; 0x80
 8001a82:	682a      	ldr	r2, [r5, #0]
 8001a84:	045b      	lsls	r3, r3, #17
 8001a86:	4313      	orrs	r3, r2
 8001a88:	602b      	str	r3, [r5, #0]
 8001a8a:	f7ff fa2f 	bl	8000eec <HAL_GetTick>
 8001a8e:	0004      	movs	r4, r0
 8001a90:	682b      	ldr	r3, [r5, #0]
 8001a92:	4233      	tst	r3, r6
 8001a94:	d000      	beq.n	8001a98 <HAL_RCC_OscConfig+0x420>
 8001a96:	e629      	b.n	80016ec <HAL_RCC_OscConfig+0x74>
 8001a98:	f7ff fa28 	bl	8000eec <HAL_GetTick>
 8001a9c:	1b00      	subs	r0, r0, r4
 8001a9e:	2802      	cmp	r0, #2
 8001aa0:	d9f6      	bls.n	8001a90 <HAL_RCC_OscConfig+0x418>
 8001aa2:	e654      	b.n	800174e <HAL_RCC_OscConfig+0xd6>
 8001aa4:	f7ff fa22 	bl	8000eec <HAL_GetTick>
 8001aa8:	1b80      	subs	r0, r0, r6
 8001aaa:	2802      	cmp	r0, #2
 8001aac:	d9d5      	bls.n	8001a5a <HAL_RCC_OscConfig+0x3e2>
 8001aae:	e64e      	b.n	800174e <HAL_RCC_OscConfig+0xd6>
 8001ab0:	682b      	ldr	r3, [r5, #0]
 8001ab2:	2680      	movs	r6, #128	; 0x80
 8001ab4:	4013      	ands	r3, r2
 8001ab6:	602b      	str	r3, [r5, #0]
 8001ab8:	f7ff fa18 	bl	8000eec <HAL_GetTick>
 8001abc:	0004      	movs	r4, r0
 8001abe:	04b6      	lsls	r6, r6, #18
 8001ac0:	682b      	ldr	r3, [r5, #0]
 8001ac2:	4233      	tst	r3, r6
 8001ac4:	d100      	bne.n	8001ac8 <HAL_RCC_OscConfig+0x450>
 8001ac6:	e611      	b.n	80016ec <HAL_RCC_OscConfig+0x74>
 8001ac8:	f7ff fa10 	bl	8000eec <HAL_GetTick>
 8001acc:	1b00      	subs	r0, r0, r4
 8001ace:	2802      	cmp	r0, #2
 8001ad0:	d9f6      	bls.n	8001ac0 <HAL_RCC_OscConfig+0x448>
 8001ad2:	e63c      	b.n	800174e <HAL_RCC_OscConfig+0xd6>
 8001ad4:	2b01      	cmp	r3, #1
 8001ad6:	d100      	bne.n	8001ada <HAL_RCC_OscConfig+0x462>
 8001ad8:	e622      	b.n	8001720 <HAL_RCC_OscConfig+0xa8>
 8001ada:	21c0      	movs	r1, #192	; 0xc0
 8001adc:	6853      	ldr	r3, [r2, #4]
 8001ade:	6aa0      	ldr	r0, [r4, #40]	; 0x28
 8001ae0:	0249      	lsls	r1, r1, #9
 8001ae2:	6ad2      	ldr	r2, [r2, #44]	; 0x2c
 8001ae4:	4019      	ands	r1, r3
 8001ae6:	4281      	cmp	r1, r0
 8001ae8:	d000      	beq.n	8001aec <HAL_RCC_OscConfig+0x474>
 8001aea:	e619      	b.n	8001720 <HAL_RCC_OscConfig+0xa8>
 8001aec:	210f      	movs	r1, #15
 8001aee:	400a      	ands	r2, r1
 8001af0:	6b21      	ldr	r1, [r4, #48]	; 0x30
 8001af2:	428a      	cmp	r2, r1
 8001af4:	d000      	beq.n	8001af8 <HAL_RCC_OscConfig+0x480>
 8001af6:	e613      	b.n	8001720 <HAL_RCC_OscConfig+0xa8>
 8001af8:	22f0      	movs	r2, #240	; 0xf0
 8001afa:	0392      	lsls	r2, r2, #14
 8001afc:	4013      	ands	r3, r2
 8001afe:	6ae2      	ldr	r2, [r4, #44]	; 0x2c
 8001b00:	4293      	cmp	r3, r2
 8001b02:	d100      	bne.n	8001b06 <HAL_RCC_OscConfig+0x48e>
 8001b04:	e5f2      	b.n	80016ec <HAL_RCC_OscConfig+0x74>
 8001b06:	e60b      	b.n	8001720 <HAL_RCC_OscConfig+0xa8>
 8001b08:	40021000 	.word	0x40021000
 8001b0c:	fffeffff 	.word	0xfffeffff
 8001b10:	feffffff 	.word	0xfeffffff
 8001b14:	ffc27fff 	.word	0xffc27fff

08001b18 <HAL_RCC_GetSysClockFreq>:
 8001b18:	b530      	push	{r4, r5, lr}
 8001b1a:	b089      	sub	sp, #36	; 0x24
 8001b1c:	2210      	movs	r2, #16
 8001b1e:	4919      	ldr	r1, [pc, #100]	; (8001b84 <HAL_RCC_GetSysClockFreq+0x6c>)
 8001b20:	4668      	mov	r0, sp
 8001b22:	ad04      	add	r5, sp, #16
 8001b24:	f003 fdb6 	bl	8005694 <memcpy>
 8001b28:	2210      	movs	r2, #16
 8001b2a:	0028      	movs	r0, r5
 8001b2c:	4916      	ldr	r1, [pc, #88]	; (8001b88 <HAL_RCC_GetSysClockFreq+0x70>)
 8001b2e:	f003 fdb1 	bl	8005694 <memcpy>
 8001b32:	200c      	movs	r0, #12
 8001b34:	4a15      	ldr	r2, [pc, #84]	; (8001b8c <HAL_RCC_GetSysClockFreq+0x74>)
 8001b36:	6853      	ldr	r3, [r2, #4]
 8001b38:	4018      	ands	r0, r3
 8001b3a:	2808      	cmp	r0, #8
 8001b3c:	d009      	beq.n	8001b52 <HAL_RCC_GetSysClockFreq+0x3a>
 8001b3e:	380c      	subs	r0, #12
 8001b40:	1e43      	subs	r3, r0, #1
 8001b42:	4198      	sbcs	r0, r3
 8001b44:	4b12      	ldr	r3, [pc, #72]	; (8001b90 <HAL_RCC_GetSysClockFreq+0x78>)
 8001b46:	4240      	negs	r0, r0
 8001b48:	4018      	ands	r0, r3
 8001b4a:	4b12      	ldr	r3, [pc, #72]	; (8001b94 <HAL_RCC_GetSysClockFreq+0x7c>)
 8001b4c:	18c0      	adds	r0, r0, r3
 8001b4e:	b009      	add	sp, #36	; 0x24
 8001b50:	bd30      	pop	{r4, r5, pc}
 8001b52:	200f      	movs	r0, #15
 8001b54:	466c      	mov	r4, sp
 8001b56:	6ad2      	ldr	r2, [r2, #44]	; 0x2c
 8001b58:	0c99      	lsrs	r1, r3, #18
 8001b5a:	4001      	ands	r1, r0
 8001b5c:	4002      	ands	r2, r0
 8001b5e:	5c64      	ldrb	r4, [r4, r1]
 8001b60:	5ca9      	ldrb	r1, [r5, r2]
 8001b62:	22c0      	movs	r2, #192	; 0xc0
 8001b64:	2080      	movs	r0, #128	; 0x80
 8001b66:	0252      	lsls	r2, r2, #9
 8001b68:	4013      	ands	r3, r2
 8001b6a:	0240      	lsls	r0, r0, #9
 8001b6c:	4283      	cmp	r3, r0
 8001b6e:	d101      	bne.n	8001b74 <HAL_RCC_GetSysClockFreq+0x5c>
 8001b70:	4809      	ldr	r0, [pc, #36]	; (8001b98 <HAL_RCC_GetSysClockFreq+0x80>)
 8001b72:	e002      	b.n	8001b7a <HAL_RCC_GetSysClockFreq+0x62>
 8001b74:	4293      	cmp	r3, r2
 8001b76:	d1fb      	bne.n	8001b70 <HAL_RCC_GetSysClockFreq+0x58>
 8001b78:	4806      	ldr	r0, [pc, #24]	; (8001b94 <HAL_RCC_GetSysClockFreq+0x7c>)
 8001b7a:	f7fe facf 	bl	800011c <__udivsi3>
 8001b7e:	4360      	muls	r0, r4
 8001b80:	e7e5      	b.n	8001b4e <HAL_RCC_GetSysClockFreq+0x36>
 8001b82:	46c0      	nop			; (mov r8, r8)
 8001b84:	08005b14 	.word	0x08005b14
 8001b88:	08005b25 	.word	0x08005b25
 8001b8c:	40021000 	.word	0x40021000
 8001b90:	fd9da600 	.word	0xfd9da600
 8001b94:	02dc6c00 	.word	0x02dc6c00
 8001b98:	007a1200 	.word	0x007a1200

08001b9c <HAL_RCC_ClockConfig>:
 8001b9c:	b5f7      	push	{r0, r1, r2, r4, r5, r6, r7, lr}
 8001b9e:	0005      	movs	r5, r0
 8001ba0:	000f      	movs	r7, r1
 8001ba2:	2800      	cmp	r0, #0
 8001ba4:	d101      	bne.n	8001baa <HAL_RCC_ClockConfig+0xe>
 8001ba6:	2001      	movs	r0, #1
 8001ba8:	bdfe      	pop	{r1, r2, r3, r4, r5, r6, r7, pc}
 8001baa:	2201      	movs	r2, #1
 8001bac:	4c3b      	ldr	r4, [pc, #236]	; (8001c9c <HAL_RCC_ClockConfig+0x100>)
 8001bae:	6823      	ldr	r3, [r4, #0]
 8001bb0:	4013      	ands	r3, r2
 8001bb2:	428b      	cmp	r3, r1
 8001bb4:	d31c      	bcc.n	8001bf0 <HAL_RCC_ClockConfig+0x54>
 8001bb6:	6829      	ldr	r1, [r5, #0]
 8001bb8:	078b      	lsls	r3, r1, #30
 8001bba:	d422      	bmi.n	8001c02 <HAL_RCC_ClockConfig+0x66>
 8001bbc:	07cb      	lsls	r3, r1, #31
 8001bbe:	d42f      	bmi.n	8001c20 <HAL_RCC_ClockConfig+0x84>
 8001bc0:	2301      	movs	r3, #1
 8001bc2:	6822      	ldr	r2, [r4, #0]
 8001bc4:	401a      	ands	r2, r3
 8001bc6:	42ba      	cmp	r2, r7
 8001bc8:	d859      	bhi.n	8001c7e <HAL_RCC_ClockConfig+0xe2>
 8001bca:	682b      	ldr	r3, [r5, #0]
 8001bcc:	4c34      	ldr	r4, [pc, #208]	; (8001ca0 <HAL_RCC_ClockConfig+0x104>)
 8001bce:	075b      	lsls	r3, r3, #29
 8001bd0:	d45c      	bmi.n	8001c8c <HAL_RCC_ClockConfig+0xf0>
 8001bd2:	f7ff ffa1 	bl	8001b18 <HAL_RCC_GetSysClockFreq>
 8001bd6:	6863      	ldr	r3, [r4, #4]
 8001bd8:	4a32      	ldr	r2, [pc, #200]	; (8001ca4 <HAL_RCC_ClockConfig+0x108>)
 8001bda:	061b      	lsls	r3, r3, #24
 8001bdc:	0f1b      	lsrs	r3, r3, #28
 8001bde:	5cd3      	ldrb	r3, [r2, r3]
 8001be0:	40d8      	lsrs	r0, r3
 8001be2:	4b31      	ldr	r3, [pc, #196]	; (8001ca8 <HAL_RCC_ClockConfig+0x10c>)
 8001be4:	6018      	str	r0, [r3, #0]
 8001be6:	2003      	movs	r0, #3
 8001be8:	f7fe fd5c 	bl	80006a4 <HAL_InitTick>
 8001bec:	2000      	movs	r0, #0
 8001bee:	e7db      	b.n	8001ba8 <HAL_RCC_ClockConfig+0xc>
 8001bf0:	6823      	ldr	r3, [r4, #0]
 8001bf2:	4393      	bics	r3, r2
 8001bf4:	430b      	orrs	r3, r1
 8001bf6:	6023      	str	r3, [r4, #0]
 8001bf8:	6823      	ldr	r3, [r4, #0]
 8001bfa:	4013      	ands	r3, r2
 8001bfc:	428b      	cmp	r3, r1
 8001bfe:	d1d2      	bne.n	8001ba6 <HAL_RCC_ClockConfig+0xa>
 8001c00:	e7d9      	b.n	8001bb6 <HAL_RCC_ClockConfig+0x1a>
 8001c02:	4a27      	ldr	r2, [pc, #156]	; (8001ca0 <HAL_RCC_ClockConfig+0x104>)
 8001c04:	074b      	lsls	r3, r1, #29
 8001c06:	d504      	bpl.n	8001c12 <HAL_RCC_ClockConfig+0x76>
 8001c08:	23e0      	movs	r3, #224	; 0xe0
 8001c0a:	6850      	ldr	r0, [r2, #4]
 8001c0c:	00db      	lsls	r3, r3, #3
 8001c0e:	4303      	orrs	r3, r0
 8001c10:	6053      	str	r3, [r2, #4]
 8001c12:	20f0      	movs	r0, #240	; 0xf0
 8001c14:	6853      	ldr	r3, [r2, #4]
 8001c16:	4383      	bics	r3, r0
 8001c18:	68a8      	ldr	r0, [r5, #8]
 8001c1a:	4303      	orrs	r3, r0
 8001c1c:	6053      	str	r3, [r2, #4]
 8001c1e:	e7cd      	b.n	8001bbc <HAL_RCC_ClockConfig+0x20>
 8001c20:	686a      	ldr	r2, [r5, #4]
 8001c22:	4e1f      	ldr	r6, [pc, #124]	; (8001ca0 <HAL_RCC_ClockConfig+0x104>)
 8001c24:	2a01      	cmp	r2, #1
 8001c26:	d11a      	bne.n	8001c5e <HAL_RCC_ClockConfig+0xc2>
 8001c28:	6833      	ldr	r3, [r6, #0]
 8001c2a:	039b      	lsls	r3, r3, #14
 8001c2c:	d5bb      	bpl.n	8001ba6 <HAL_RCC_ClockConfig+0xa>
 8001c2e:	2103      	movs	r1, #3
 8001c30:	6873      	ldr	r3, [r6, #4]
 8001c32:	438b      	bics	r3, r1
 8001c34:	4313      	orrs	r3, r2
 8001c36:	6073      	str	r3, [r6, #4]
 8001c38:	f7ff f958 	bl	8000eec <HAL_GetTick>
 8001c3c:	9001      	str	r0, [sp, #4]
 8001c3e:	230c      	movs	r3, #12
 8001c40:	6872      	ldr	r2, [r6, #4]
 8001c42:	401a      	ands	r2, r3
 8001c44:	686b      	ldr	r3, [r5, #4]
 8001c46:	009b      	lsls	r3, r3, #2
 8001c48:	429a      	cmp	r2, r3
 8001c4a:	d0b9      	beq.n	8001bc0 <HAL_RCC_ClockConfig+0x24>
 8001c4c:	f7ff f94e 	bl	8000eec <HAL_GetTick>
 8001c50:	9b01      	ldr	r3, [sp, #4]
 8001c52:	1ac0      	subs	r0, r0, r3
 8001c54:	4b15      	ldr	r3, [pc, #84]	; (8001cac <HAL_RCC_ClockConfig+0x110>)
 8001c56:	4298      	cmp	r0, r3
 8001c58:	d9f1      	bls.n	8001c3e <HAL_RCC_ClockConfig+0xa2>
 8001c5a:	2003      	movs	r0, #3
 8001c5c:	e7a4      	b.n	8001ba8 <HAL_RCC_ClockConfig+0xc>
 8001c5e:	2a02      	cmp	r2, #2
 8001c60:	d103      	bne.n	8001c6a <HAL_RCC_ClockConfig+0xce>
 8001c62:	6833      	ldr	r3, [r6, #0]
 8001c64:	019b      	lsls	r3, r3, #6
 8001c66:	d4e2      	bmi.n	8001c2e <HAL_RCC_ClockConfig+0x92>
 8001c68:	e79d      	b.n	8001ba6 <HAL_RCC_ClockConfig+0xa>
 8001c6a:	2a03      	cmp	r2, #3
 8001c6c:	d103      	bne.n	8001c76 <HAL_RCC_ClockConfig+0xda>
 8001c6e:	6b73      	ldr	r3, [r6, #52]	; 0x34
 8001c70:	03db      	lsls	r3, r3, #15
 8001c72:	d4dc      	bmi.n	8001c2e <HAL_RCC_ClockConfig+0x92>
 8001c74:	e797      	b.n	8001ba6 <HAL_RCC_ClockConfig+0xa>
 8001c76:	6833      	ldr	r3, [r6, #0]
 8001c78:	079b      	lsls	r3, r3, #30
 8001c7a:	d4d8      	bmi.n	8001c2e <HAL_RCC_ClockConfig+0x92>
 8001c7c:	e793      	b.n	8001ba6 <HAL_RCC_ClockConfig+0xa>
 8001c7e:	6822      	ldr	r2, [r4, #0]
 8001c80:	439a      	bics	r2, r3
 8001c82:	6022      	str	r2, [r4, #0]
 8001c84:	6822      	ldr	r2, [r4, #0]
 8001c86:	421a      	tst	r2, r3
 8001c88:	d09f      	beq.n	8001bca <HAL_RCC_ClockConfig+0x2e>
 8001c8a:	e78c      	b.n	8001ba6 <HAL_RCC_ClockConfig+0xa>
 8001c8c:	6863      	ldr	r3, [r4, #4]
 8001c8e:	4a08      	ldr	r2, [pc, #32]	; (8001cb0 <HAL_RCC_ClockConfig+0x114>)
 8001c90:	4013      	ands	r3, r2
 8001c92:	68ea      	ldr	r2, [r5, #12]
 8001c94:	4313      	orrs	r3, r2
 8001c96:	6063      	str	r3, [r4, #4]
 8001c98:	e79b      	b.n	8001bd2 <HAL_RCC_ClockConfig+0x36>
 8001c9a:	46c0      	nop			; (mov r8, r8)
 8001c9c:	40022000 	.word	0x40022000
 8001ca0:	40021000 	.word	0x40021000
 8001ca4:	08005a3c 	.word	0x08005a3c
 8001ca8:	20000000 	.word	0x20000000
 8001cac:	00001388 	.word	0x00001388
 8001cb0:	fffff8ff 	.word	0xfffff8ff

08001cb4 <HAL_RCC_GetPCLK1Freq>:
 8001cb4:	4b04      	ldr	r3, [pc, #16]	; (8001cc8 <HAL_RCC_GetPCLK1Freq+0x14>)
 8001cb6:	4a05      	ldr	r2, [pc, #20]	; (8001ccc <HAL_RCC_GetPCLK1Freq+0x18>)
 8001cb8:	685b      	ldr	r3, [r3, #4]
 8001cba:	055b      	lsls	r3, r3, #21
 8001cbc:	0f5b      	lsrs	r3, r3, #29
 8001cbe:	5cd3      	ldrb	r3, [r2, r3]
 8001cc0:	4a03      	ldr	r2, [pc, #12]	; (8001cd0 <HAL_RCC_GetPCLK1Freq+0x1c>)
 8001cc2:	6810      	ldr	r0, [r2, #0]
 8001cc4:	40d8      	lsrs	r0, r3
 8001cc6:	4770      	bx	lr
 8001cc8:	40021000 	.word	0x40021000
 8001ccc:	08005a4c 	.word	0x08005a4c
 8001cd0:	20000000 	.word	0x20000000

08001cd4 <HAL_RCC_GetClockConfig>:
 8001cd4:	2307      	movs	r3, #7
 8001cd6:	b510      	push	{r4, lr}
 8001cd8:	2403      	movs	r4, #3
 8001cda:	6003      	str	r3, [r0, #0]
 8001cdc:	4b09      	ldr	r3, [pc, #36]	; (8001d04 <HAL_RCC_GetClockConfig+0x30>)
 8001cde:	685a      	ldr	r2, [r3, #4]
 8001ce0:	4022      	ands	r2, r4
 8001ce2:	6042      	str	r2, [r0, #4]
 8001ce4:	685a      	ldr	r2, [r3, #4]
 8001ce6:	34ed      	adds	r4, #237	; 0xed
 8001ce8:	4022      	ands	r2, r4
 8001cea:	6082      	str	r2, [r0, #8]
 8001cec:	22e0      	movs	r2, #224	; 0xe0
 8001cee:	685b      	ldr	r3, [r3, #4]
 8001cf0:	00d2      	lsls	r2, r2, #3
 8001cf2:	4013      	ands	r3, r2
 8001cf4:	2201      	movs	r2, #1
 8001cf6:	60c3      	str	r3, [r0, #12]
 8001cf8:	4b03      	ldr	r3, [pc, #12]	; (8001d08 <HAL_RCC_GetClockConfig+0x34>)
 8001cfa:	681b      	ldr	r3, [r3, #0]
 8001cfc:	4013      	ands	r3, r2
 8001cfe:	600b      	str	r3, [r1, #0]
 8001d00:	bd10      	pop	{r4, pc}
 8001d02:	46c0      	nop			; (mov r8, r8)
 8001d04:	40021000 	.word	0x40021000
 8001d08:	40022000 	.word	0x40022000

08001d0c <HAL_RCCEx_PeriphCLKConfig>:
 8001d0c:	b5f0      	push	{r4, r5, r6, r7, lr}
 8001d0e:	6803      	ldr	r3, [r0, #0]
 8001d10:	0005      	movs	r5, r0
 8001d12:	b085      	sub	sp, #20
 8001d14:	03db      	lsls	r3, r3, #15
 8001d16:	d52a      	bpl.n	8001d6e <HAL_RCCEx_PeriphCLKConfig+0x62>
 8001d18:	2280      	movs	r2, #128	; 0x80
 8001d1a:	2100      	movs	r1, #0
 8001d1c:	4c45      	ldr	r4, [pc, #276]	; (8001e34 <HAL_RCCEx_PeriphCLKConfig+0x128>)
 8001d1e:	0552      	lsls	r2, r2, #21
 8001d20:	69e3      	ldr	r3, [r4, #28]
 8001d22:	9100      	str	r1, [sp, #0]
 8001d24:	4213      	tst	r3, r2
 8001d26:	d108      	bne.n	8001d3a <HAL_RCCEx_PeriphCLKConfig+0x2e>
 8001d28:	69e3      	ldr	r3, [r4, #28]
 8001d2a:	4313      	orrs	r3, r2
 8001d2c:	61e3      	str	r3, [r4, #28]
 8001d2e:	69e3      	ldr	r3, [r4, #28]
 8001d30:	4013      	ands	r3, r2
 8001d32:	9303      	str	r3, [sp, #12]
 8001d34:	9b03      	ldr	r3, [sp, #12]
 8001d36:	2301      	movs	r3, #1
 8001d38:	9300      	str	r3, [sp, #0]
 8001d3a:	2780      	movs	r7, #128	; 0x80
 8001d3c:	4e3e      	ldr	r6, [pc, #248]	; (8001e38 <HAL_RCCEx_PeriphCLKConfig+0x12c>)
 8001d3e:	007f      	lsls	r7, r7, #1
 8001d40:	6833      	ldr	r3, [r6, #0]
 8001d42:	423b      	tst	r3, r7
 8001d44:	d043      	beq.n	8001dce <HAL_RCCEx_PeriphCLKConfig+0xc2>
 8001d46:	6a22      	ldr	r2, [r4, #32]
 8001d48:	23c0      	movs	r3, #192	; 0xc0
 8001d4a:	0011      	movs	r1, r2
 8001d4c:	009b      	lsls	r3, r3, #2
 8001d4e:	4e3b      	ldr	r6, [pc, #236]	; (8001e3c <HAL_RCCEx_PeriphCLKConfig+0x130>)
 8001d50:	4019      	ands	r1, r3
 8001d52:	421a      	tst	r2, r3
 8001d54:	d14d      	bne.n	8001df2 <HAL_RCCEx_PeriphCLKConfig+0xe6>
 8001d56:	6a23      	ldr	r3, [r4, #32]
 8001d58:	401e      	ands	r6, r3
 8001d5a:	686b      	ldr	r3, [r5, #4]
 8001d5c:	431e      	orrs	r6, r3
 8001d5e:	9b00      	ldr	r3, [sp, #0]
 8001d60:	6226      	str	r6, [r4, #32]
 8001d62:	2b01      	cmp	r3, #1
 8001d64:	d103      	bne.n	8001d6e <HAL_RCCEx_PeriphCLKConfig+0x62>
 8001d66:	69e3      	ldr	r3, [r4, #28]
 8001d68:	4a35      	ldr	r2, [pc, #212]	; (8001e40 <HAL_RCCEx_PeriphCLKConfig+0x134>)
 8001d6a:	4013      	ands	r3, r2
 8001d6c:	61e3      	str	r3, [r4, #28]
 8001d6e:	682b      	ldr	r3, [r5, #0]
 8001d70:	07da      	lsls	r2, r3, #31
 8001d72:	d506      	bpl.n	8001d82 <HAL_RCCEx_PeriphCLKConfig+0x76>
 8001d74:	2003      	movs	r0, #3
 8001d76:	492f      	ldr	r1, [pc, #188]	; (8001e34 <HAL_RCCEx_PeriphCLKConfig+0x128>)
 8001d78:	6b0a      	ldr	r2, [r1, #48]	; 0x30
 8001d7a:	4382      	bics	r2, r0
 8001d7c:	68a8      	ldr	r0, [r5, #8]
 8001d7e:	4302      	orrs	r2, r0
 8001d80:	630a      	str	r2, [r1, #48]	; 0x30
 8001d82:	079a      	lsls	r2, r3, #30
 8001d84:	d506      	bpl.n	8001d94 <HAL_RCCEx_PeriphCLKConfig+0x88>
 8001d86:	492b      	ldr	r1, [pc, #172]	; (8001e34 <HAL_RCCEx_PeriphCLKConfig+0x128>)
 8001d88:	482e      	ldr	r0, [pc, #184]	; (8001e44 <HAL_RCCEx_PeriphCLKConfig+0x138>)
 8001d8a:	6b0a      	ldr	r2, [r1, #48]	; 0x30
 8001d8c:	4002      	ands	r2, r0
 8001d8e:	68e8      	ldr	r0, [r5, #12]
 8001d90:	4302      	orrs	r2, r0
 8001d92:	630a      	str	r2, [r1, #48]	; 0x30
 8001d94:	069a      	lsls	r2, r3, #26
 8001d96:	d506      	bpl.n	8001da6 <HAL_RCCEx_PeriphCLKConfig+0x9a>
 8001d98:	2010      	movs	r0, #16
 8001d9a:	4926      	ldr	r1, [pc, #152]	; (8001e34 <HAL_RCCEx_PeriphCLKConfig+0x128>)
 8001d9c:	6b0a      	ldr	r2, [r1, #48]	; 0x30
 8001d9e:	4382      	bics	r2, r0
 8001da0:	6928      	ldr	r0, [r5, #16]
 8001da2:	4302      	orrs	r2, r0
 8001da4:	630a      	str	r2, [r1, #48]	; 0x30
 8001da6:	039a      	lsls	r2, r3, #14
 8001da8:	d506      	bpl.n	8001db8 <HAL_RCCEx_PeriphCLKConfig+0xac>
 8001daa:	2080      	movs	r0, #128	; 0x80
 8001dac:	4921      	ldr	r1, [pc, #132]	; (8001e34 <HAL_RCCEx_PeriphCLKConfig+0x128>)
 8001dae:	6b0a      	ldr	r2, [r1, #48]	; 0x30
 8001db0:	4382      	bics	r2, r0
 8001db2:	69a8      	ldr	r0, [r5, #24]
 8001db4:	4302      	orrs	r2, r0
 8001db6:	630a      	str	r2, [r1, #48]	; 0x30
 8001db8:	2000      	movs	r0, #0
 8001dba:	055b      	lsls	r3, r3, #21
 8001dbc:	d517      	bpl.n	8001dee <HAL_RCCEx_PeriphCLKConfig+0xe2>
 8001dbe:	2140      	movs	r1, #64	; 0x40
 8001dc0:	4a1c      	ldr	r2, [pc, #112]	; (8001e34 <HAL_RCCEx_PeriphCLKConfig+0x128>)
 8001dc2:	6b13      	ldr	r3, [r2, #48]	; 0x30
 8001dc4:	438b      	bics	r3, r1
 8001dc6:	6969      	ldr	r1, [r5, #20]
 8001dc8:	430b      	orrs	r3, r1
 8001dca:	6313      	str	r3, [r2, #48]	; 0x30
 8001dcc:	e00f      	b.n	8001dee <HAL_RCCEx_PeriphCLKConfig+0xe2>
 8001dce:	6833      	ldr	r3, [r6, #0]
 8001dd0:	433b      	orrs	r3, r7
 8001dd2:	6033      	str	r3, [r6, #0]
 8001dd4:	f7ff f88a 	bl	8000eec <HAL_GetTick>
 8001dd8:	9001      	str	r0, [sp, #4]
 8001dda:	6833      	ldr	r3, [r6, #0]
 8001ddc:	423b      	tst	r3, r7
 8001dde:	d1b2      	bne.n	8001d46 <HAL_RCCEx_PeriphCLKConfig+0x3a>
 8001de0:	f7ff f884 	bl	8000eec <HAL_GetTick>
 8001de4:	9b01      	ldr	r3, [sp, #4]
 8001de6:	1ac0      	subs	r0, r0, r3
 8001de8:	2864      	cmp	r0, #100	; 0x64
 8001dea:	d9f6      	bls.n	8001dda <HAL_RCCEx_PeriphCLKConfig+0xce>
 8001dec:	2003      	movs	r0, #3
 8001dee:	b005      	add	sp, #20
 8001df0:	bdf0      	pop	{r4, r5, r6, r7, pc}
 8001df2:	686a      	ldr	r2, [r5, #4]
 8001df4:	4013      	ands	r3, r2
 8001df6:	428b      	cmp	r3, r1
 8001df8:	d0ad      	beq.n	8001d56 <HAL_RCCEx_PeriphCLKConfig+0x4a>
 8001dfa:	2380      	movs	r3, #128	; 0x80
 8001dfc:	6a22      	ldr	r2, [r4, #32]
 8001dfe:	6a20      	ldr	r0, [r4, #32]
 8001e00:	0011      	movs	r1, r2
 8001e02:	025b      	lsls	r3, r3, #9
 8001e04:	4303      	orrs	r3, r0
 8001e06:	6223      	str	r3, [r4, #32]
 8001e08:	6a23      	ldr	r3, [r4, #32]
 8001e0a:	480f      	ldr	r0, [pc, #60]	; (8001e48 <HAL_RCCEx_PeriphCLKConfig+0x13c>)
 8001e0c:	4031      	ands	r1, r6
 8001e0e:	4003      	ands	r3, r0
 8001e10:	6223      	str	r3, [r4, #32]
 8001e12:	6221      	str	r1, [r4, #32]
 8001e14:	07d3      	lsls	r3, r2, #31
 8001e16:	d59e      	bpl.n	8001d56 <HAL_RCCEx_PeriphCLKConfig+0x4a>
 8001e18:	f7ff f868 	bl	8000eec <HAL_GetTick>
 8001e1c:	0007      	movs	r7, r0
 8001e1e:	2202      	movs	r2, #2
 8001e20:	6a23      	ldr	r3, [r4, #32]
 8001e22:	4213      	tst	r3, r2
 8001e24:	d197      	bne.n	8001d56 <HAL_RCCEx_PeriphCLKConfig+0x4a>
 8001e26:	f7ff f861 	bl	8000eec <HAL_GetTick>
 8001e2a:	4b08      	ldr	r3, [pc, #32]	; (8001e4c <HAL_RCCEx_PeriphCLKConfig+0x140>)
 8001e2c:	1bc0      	subs	r0, r0, r7
 8001e2e:	4298      	cmp	r0, r3
 8001e30:	d9f5      	bls.n	8001e1e <HAL_RCCEx_PeriphCLKConfig+0x112>
 8001e32:	e7db      	b.n	8001dec <HAL_RCCEx_PeriphCLKConfig+0xe0>
 8001e34:	40021000 	.word	0x40021000
 8001e38:	40007000 	.word	0x40007000
 8001e3c:	fffffcff 	.word	0xfffffcff
 8001e40:	efffffff 	.word	0xefffffff
 8001e44:	fffcffff 	.word	0xfffcffff
 8001e48:	fffeffff 	.word	0xfffeffff
 8001e4c:	00001388 	.word	0x00001388

08001e50 <SPI_WaitFlagStateUntilTimeout.constprop.0>:
 8001e50:	b5f0      	push	{r4, r5, r6, r7, lr}
 8001e52:	000e      	movs	r6, r1
 8001e54:	b085      	sub	sp, #20
 8001e56:	0015      	movs	r5, r2
 8001e58:	0004      	movs	r4, r0
 8001e5a:	f7ff f847 	bl	8000eec <HAL_GetTick>
 8001e5e:	19ad      	adds	r5, r5, r6
 8001e60:	1a2d      	subs	r5, r5, r0
 8001e62:	f7ff f843 	bl	8000eec <HAL_GetTick>
 8001e66:	2780      	movs	r7, #128	; 0x80
 8001e68:	4b25      	ldr	r3, [pc, #148]	; (8001f00 <SPI_WaitFlagStateUntilTimeout.constprop.0+0xb0>)
 8001e6a:	9001      	str	r0, [sp, #4]
 8001e6c:	681b      	ldr	r3, [r3, #0]
 8001e6e:	015b      	lsls	r3, r3, #5
 8001e70:	0d1b      	lsrs	r3, r3, #20
 8001e72:	436b      	muls	r3, r5
 8001e74:	9303      	str	r3, [sp, #12]
 8001e76:	6822      	ldr	r2, [r4, #0]
 8001e78:	6893      	ldr	r3, [r2, #8]
 8001e7a:	0018      	movs	r0, r3
 8001e7c:	4038      	ands	r0, r7
 8001e7e:	423b      	tst	r3, r7
 8001e80:	d032      	beq.n	8001ee8 <SPI_WaitFlagStateUntilTimeout.constprop.0+0x98>
 8001e82:	1c73      	adds	r3, r6, #1
 8001e84:	d0f8      	beq.n	8001e78 <SPI_WaitFlagStateUntilTimeout.constprop.0+0x28>
 8001e86:	f7ff f831 	bl	8000eec <HAL_GetTick>
 8001e8a:	9b01      	ldr	r3, [sp, #4]
 8001e8c:	1ac0      	subs	r0, r0, r3
 8001e8e:	42a8      	cmp	r0, r5
 8001e90:	d32c      	bcc.n	8001eec <SPI_WaitFlagStateUntilTimeout.constprop.0+0x9c>
 8001e92:	21e0      	movs	r1, #224	; 0xe0
 8001e94:	6823      	ldr	r3, [r4, #0]
 8001e96:	685a      	ldr	r2, [r3, #4]
 8001e98:	438a      	bics	r2, r1
 8001e9a:	605a      	str	r2, [r3, #4]
 8001e9c:	2282      	movs	r2, #130	; 0x82
 8001e9e:	6861      	ldr	r1, [r4, #4]
 8001ea0:	0052      	lsls	r2, r2, #1
 8001ea2:	4291      	cmp	r1, r2
 8001ea4:	d10c      	bne.n	8001ec0 <SPI_WaitFlagStateUntilTimeout.constprop.0+0x70>
 8001ea6:	2180      	movs	r1, #128	; 0x80
 8001ea8:	68a2      	ldr	r2, [r4, #8]
 8001eaa:	0209      	lsls	r1, r1, #8
 8001eac:	428a      	cmp	r2, r1
 8001eae:	d003      	beq.n	8001eb8 <SPI_WaitFlagStateUntilTimeout.constprop.0+0x68>
 8001eb0:	2180      	movs	r1, #128	; 0x80
 8001eb2:	00c9      	lsls	r1, r1, #3
 8001eb4:	428a      	cmp	r2, r1
 8001eb6:	d103      	bne.n	8001ec0 <SPI_WaitFlagStateUntilTimeout.constprop.0+0x70>
 8001eb8:	2140      	movs	r1, #64	; 0x40
 8001eba:	681a      	ldr	r2, [r3, #0]
 8001ebc:	438a      	bics	r2, r1
 8001ebe:	601a      	str	r2, [r3, #0]
 8001ec0:	2180      	movs	r1, #128	; 0x80
 8001ec2:	6aa2      	ldr	r2, [r4, #40]	; 0x28
 8001ec4:	0189      	lsls	r1, r1, #6
 8001ec6:	428a      	cmp	r2, r1
 8001ec8:	d106      	bne.n	8001ed8 <SPI_WaitFlagStateUntilTimeout.constprop.0+0x88>
 8001eca:	6819      	ldr	r1, [r3, #0]
 8001ecc:	480d      	ldr	r0, [pc, #52]	; (8001f04 <SPI_WaitFlagStateUntilTimeout.constprop.0+0xb4>)
 8001ece:	4001      	ands	r1, r0
 8001ed0:	6019      	str	r1, [r3, #0]
 8001ed2:	6819      	ldr	r1, [r3, #0]
 8001ed4:	430a      	orrs	r2, r1
 8001ed6:	601a      	str	r2, [r3, #0]
 8001ed8:	0023      	movs	r3, r4
 8001eda:	2201      	movs	r2, #1
 8001edc:	335d      	adds	r3, #93	; 0x5d
 8001ede:	701a      	strb	r2, [r3, #0]
 8001ee0:	2300      	movs	r3, #0
 8001ee2:	2003      	movs	r0, #3
 8001ee4:	345c      	adds	r4, #92	; 0x5c
 8001ee6:	7023      	strb	r3, [r4, #0]
 8001ee8:	b005      	add	sp, #20
 8001eea:	bdf0      	pop	{r4, r5, r6, r7, pc}
 8001eec:	9b03      	ldr	r3, [sp, #12]
 8001eee:	1e5a      	subs	r2, r3, #1
 8001ef0:	4193      	sbcs	r3, r2
 8001ef2:	425b      	negs	r3, r3
 8001ef4:	401d      	ands	r5, r3
 8001ef6:	9b03      	ldr	r3, [sp, #12]
 8001ef8:	3b01      	subs	r3, #1
 8001efa:	9303      	str	r3, [sp, #12]
 8001efc:	e7bb      	b.n	8001e76 <SPI_WaitFlagStateUntilTimeout.constprop.0+0x26>
 8001efe:	46c0      	nop			; (mov r8, r8)
 8001f00:	20000000 	.word	0x20000000
 8001f04:	ffffdfff 	.word	0xffffdfff

08001f08 <SPI_WaitFifoStateUntilTimeout.constprop.0>:
 8001f08:	b5f0      	push	{r4, r5, r6, r7, lr}
 8001f0a:	0017      	movs	r7, r2
 8001f0c:	2200      	movs	r2, #0
 8001f0e:	b085      	sub	sp, #20
 8001f10:	001d      	movs	r5, r3
 8001f12:	ab02      	add	r3, sp, #8
 8001f14:	70da      	strb	r2, [r3, #3]
 8001f16:	0004      	movs	r4, r0
 8001f18:	000e      	movs	r6, r1
 8001f1a:	f7fe ffe7 	bl	8000eec <HAL_GetTick>
 8001f1e:	19ed      	adds	r5, r5, r7
 8001f20:	1a2d      	subs	r5, r5, r0
 8001f22:	f7fe ffe3 	bl	8000eec <HAL_GetTick>
 8001f26:	2223      	movs	r2, #35	; 0x23
 8001f28:	6823      	ldr	r3, [r4, #0]
 8001f2a:	9000      	str	r0, [sp, #0]
 8001f2c:	9301      	str	r3, [sp, #4]
 8001f2e:	4b2a      	ldr	r3, [pc, #168]	; (8001fd8 <SPI_WaitFifoStateUntilTimeout.constprop.0+0xd0>)
 8001f30:	681b      	ldr	r3, [r3, #0]
 8001f32:	4353      	muls	r3, r2
 8001f34:	0d1b      	lsrs	r3, r3, #20
 8001f36:	436b      	muls	r3, r5
 8001f38:	9303      	str	r3, [sp, #12]
 8001f3a:	6821      	ldr	r1, [r4, #0]
 8001f3c:	ab02      	add	r3, sp, #8
 8001f3e:	1cda      	adds	r2, r3, #3
 8001f40:	688b      	ldr	r3, [r1, #8]
 8001f42:	0018      	movs	r0, r3
 8001f44:	4030      	ands	r0, r6
 8001f46:	4233      	tst	r3, r6
 8001f48:	d03b      	beq.n	8001fc2 <SPI_WaitFifoStateUntilTimeout.constprop.0+0xba>
 8001f4a:	23c0      	movs	r3, #192	; 0xc0
 8001f4c:	00db      	lsls	r3, r3, #3
 8001f4e:	429e      	cmp	r6, r3
 8001f50:	d104      	bne.n	8001f5c <SPI_WaitFifoStateUntilTimeout.constprop.0+0x54>
 8001f52:	9b01      	ldr	r3, [sp, #4]
 8001f54:	7b1b      	ldrb	r3, [r3, #12]
 8001f56:	b2db      	uxtb	r3, r3
 8001f58:	7013      	strb	r3, [r2, #0]
 8001f5a:	7813      	ldrb	r3, [r2, #0]
 8001f5c:	1c7b      	adds	r3, r7, #1
 8001f5e:	d0ef      	beq.n	8001f40 <SPI_WaitFifoStateUntilTimeout.constprop.0+0x38>
 8001f60:	f7fe ffc4 	bl	8000eec <HAL_GetTick>
 8001f64:	9b00      	ldr	r3, [sp, #0]
 8001f66:	1ac0      	subs	r0, r0, r3
 8001f68:	42a8      	cmp	r0, r5
 8001f6a:	d32c      	bcc.n	8001fc6 <SPI_WaitFifoStateUntilTimeout.constprop.0+0xbe>
 8001f6c:	21e0      	movs	r1, #224	; 0xe0
 8001f6e:	6823      	ldr	r3, [r4, #0]
 8001f70:	685a      	ldr	r2, [r3, #4]
 8001f72:	438a      	bics	r2, r1
 8001f74:	605a      	str	r2, [r3, #4]
 8001f76:	2282      	movs	r2, #130	; 0x82
 8001f78:	6861      	ldr	r1, [r4, #4]
 8001f7a:	0052      	lsls	r2, r2, #1
 8001f7c:	4291      	cmp	r1, r2
 8001f7e:	d10c      	bne.n	8001f9a <SPI_WaitFifoStateUntilTimeout.constprop.0+0x92>
 8001f80:	2180      	movs	r1, #128	; 0x80
 8001f82:	68a2      	ldr	r2, [r4, #8]
 8001f84:	0209      	lsls	r1, r1, #8
 8001f86:	428a      	cmp	r2, r1
 8001f88:	d003      	beq.n	8001f92 <SPI_WaitFifoStateUntilTimeout.constprop.0+0x8a>
 8001f8a:	2180      	movs	r1, #128	; 0x80
 8001f8c:	00c9      	lsls	r1, r1, #3
 8001f8e:	428a      	cmp	r2, r1
 8001f90:	d103      	bne.n	8001f9a <SPI_WaitFifoStateUntilTimeout.constprop.0+0x92>
 8001f92:	2140      	movs	r1, #64	; 0x40
 8001f94:	681a      	ldr	r2, [r3, #0]
 8001f96:	438a      	bics	r2, r1
 8001f98:	601a      	str	r2, [r3, #0]
 8001f9a:	2180      	movs	r1, #128	; 0x80
 8001f9c:	6aa2      	ldr	r2, [r4, #40]	; 0x28
 8001f9e:	0189      	lsls	r1, r1, #6
 8001fa0:	428a      	cmp	r2, r1
 8001fa2:	d106      	bne.n	8001fb2 <SPI_WaitFifoStateUntilTimeout.constprop.0+0xaa>
 8001fa4:	6819      	ldr	r1, [r3, #0]
 8001fa6:	480d      	ldr	r0, [pc, #52]	; (8001fdc <SPI_WaitFifoStateUntilTimeout.constprop.0+0xd4>)
 8001fa8:	4001      	ands	r1, r0
 8001faa:	6019      	str	r1, [r3, #0]
 8001fac:	6819      	ldr	r1, [r3, #0]
 8001fae:	430a      	orrs	r2, r1
 8001fb0:	601a      	str	r2, [r3, #0]
 8001fb2:	0023      	movs	r3, r4
 8001fb4:	2201      	movs	r2, #1
 8001fb6:	335d      	adds	r3, #93	; 0x5d
 8001fb8:	701a      	strb	r2, [r3, #0]
 8001fba:	2300      	movs	r3, #0
 8001fbc:	2003      	movs	r0, #3
 8001fbe:	345c      	adds	r4, #92	; 0x5c
 8001fc0:	7023      	strb	r3, [r4, #0]
 8001fc2:	b005      	add	sp, #20
 8001fc4:	bdf0      	pop	{r4, r5, r6, r7, pc}
 8001fc6:	9b03      	ldr	r3, [sp, #12]
 8001fc8:	1e5a      	subs	r2, r3, #1
 8001fca:	4193      	sbcs	r3, r2
 8001fcc:	425b      	negs	r3, r3
 8001fce:	401d      	ands	r5, r3
 8001fd0:	9b03      	ldr	r3, [sp, #12]
 8001fd2:	3b01      	subs	r3, #1
 8001fd4:	e7b0      	b.n	8001f38 <SPI_WaitFifoStateUntilTimeout.constprop.0+0x30>
 8001fd6:	46c0      	nop			; (mov r8, r8)
 8001fd8:	20000000 	.word	0x20000000
 8001fdc:	ffffdfff 	.word	0xffffdfff

08001fe0 <SPI_EndRxTxTransaction>:
 8001fe0:	b570      	push	{r4, r5, r6, lr}
 8001fe2:	0013      	movs	r3, r2
 8001fe4:	000d      	movs	r5, r1
 8001fe6:	0016      	movs	r6, r2
 8001fe8:	000a      	movs	r2, r1
 8001fea:	21c0      	movs	r1, #192	; 0xc0
 8001fec:	0149      	lsls	r1, r1, #5
 8001fee:	0004      	movs	r4, r0
 8001ff0:	f7ff ff8a 	bl	8001f08 <SPI_WaitFifoStateUntilTimeout.constprop.0>
 8001ff4:	2800      	cmp	r0, #0
 8001ff6:	d005      	beq.n	8002004 <SPI_EndRxTxTransaction+0x24>
 8001ff8:	2320      	movs	r3, #32
 8001ffa:	6e22      	ldr	r2, [r4, #96]	; 0x60
 8001ffc:	2003      	movs	r0, #3
 8001ffe:	4313      	orrs	r3, r2
 8002000:	6623      	str	r3, [r4, #96]	; 0x60
 8002002:	e00f      	b.n	8002024 <SPI_EndRxTxTransaction+0x44>
 8002004:	0032      	movs	r2, r6
 8002006:	0029      	movs	r1, r5
 8002008:	0020      	movs	r0, r4
 800200a:	f7ff ff21 	bl	8001e50 <SPI_WaitFlagStateUntilTimeout.constprop.0>
 800200e:	2800      	cmp	r0, #0
 8002010:	d1f2      	bne.n	8001ff8 <SPI_EndRxTxTransaction+0x18>
 8002012:	21c0      	movs	r1, #192	; 0xc0
 8002014:	0033      	movs	r3, r6
 8002016:	002a      	movs	r2, r5
 8002018:	0020      	movs	r0, r4
 800201a:	00c9      	lsls	r1, r1, #3
 800201c:	f7ff ff74 	bl	8001f08 <SPI_WaitFifoStateUntilTimeout.constprop.0>
 8002020:	2800      	cmp	r0, #0
 8002022:	d1e9      	bne.n	8001ff8 <SPI_EndRxTxTransaction+0x18>
 8002024:	bd70      	pop	{r4, r5, r6, pc}
	...

08002028 <HAL_SPI_Init>:
 8002028:	b5f8      	push	{r3, r4, r5, r6, r7, lr}
 800202a:	0004      	movs	r4, r0
 800202c:	2001      	movs	r0, #1
 800202e:	2c00      	cmp	r4, #0
 8002030:	d067      	beq.n	8002102 <HAL_SPI_Init+0xda>
 8002032:	6a63      	ldr	r3, [r4, #36]	; 0x24
 8002034:	2b00      	cmp	r3, #0
 8002036:	d165      	bne.n	8002104 <HAL_SPI_Init+0xdc>
 8002038:	2282      	movs	r2, #130	; 0x82
 800203a:	6861      	ldr	r1, [r4, #4]
 800203c:	0052      	lsls	r2, r2, #1
 800203e:	4291      	cmp	r1, r2
 8002040:	d000      	beq.n	8002044 <HAL_SPI_Init+0x1c>
 8002042:	61e3      	str	r3, [r4, #28]
 8002044:	2300      	movs	r3, #0
 8002046:	0025      	movs	r5, r4
 8002048:	62a3      	str	r3, [r4, #40]	; 0x28
 800204a:	355d      	adds	r5, #93	; 0x5d
 800204c:	782b      	ldrb	r3, [r5, #0]
 800204e:	b2da      	uxtb	r2, r3
 8002050:	2b00      	cmp	r3, #0
 8002052:	d105      	bne.n	8002060 <HAL_SPI_Init+0x38>
 8002054:	0023      	movs	r3, r4
 8002056:	335c      	adds	r3, #92	; 0x5c
 8002058:	0020      	movs	r0, r4
 800205a:	701a      	strb	r2, [r3, #0]
 800205c:	f7fe fad8 	bl	8000610 <HAL_SPI_MspInit>
 8002060:	2302      	movs	r3, #2
 8002062:	2140      	movs	r1, #64	; 0x40
 8002064:	702b      	strb	r3, [r5, #0]
 8002066:	6822      	ldr	r2, [r4, #0]
 8002068:	68e5      	ldr	r5, [r4, #12]
 800206a:	6813      	ldr	r3, [r2, #0]
 800206c:	438b      	bics	r3, r1
 800206e:	21e0      	movs	r1, #224	; 0xe0
 8002070:	6013      	str	r3, [r2, #0]
 8002072:	00c9      	lsls	r1, r1, #3
 8002074:	2300      	movs	r3, #0
 8002076:	428d      	cmp	r5, r1
 8002078:	d848      	bhi.n	800210c <HAL_SPI_Init+0xe4>
 800207a:	2080      	movs	r0, #128	; 0x80
 800207c:	0140      	lsls	r0, r0, #5
 800207e:	428d      	cmp	r5, r1
 8002080:	d000      	beq.n	8002084 <HAL_SPI_Init+0x5c>
 8002082:	62a3      	str	r3, [r4, #40]	; 0x28
 8002084:	2382      	movs	r3, #130	; 0x82
 8002086:	6866      	ldr	r6, [r4, #4]
 8002088:	005b      	lsls	r3, r3, #1
 800208a:	4033      	ands	r3, r6
 800208c:	2684      	movs	r6, #132	; 0x84
 800208e:	68a7      	ldr	r7, [r4, #8]
 8002090:	0236      	lsls	r6, r6, #8
 8002092:	403e      	ands	r6, r7
 8002094:	4333      	orrs	r3, r6
 8002096:	2602      	movs	r6, #2
 8002098:	6927      	ldr	r7, [r4, #16]
 800209a:	69a1      	ldr	r1, [r4, #24]
 800209c:	403e      	ands	r6, r7
 800209e:	4333      	orrs	r3, r6
 80020a0:	2601      	movs	r6, #1
 80020a2:	6967      	ldr	r7, [r4, #20]
 80020a4:	46b4      	mov	ip, r6
 80020a6:	4037      	ands	r7, r6
 80020a8:	433b      	orrs	r3, r7
 80020aa:	2780      	movs	r7, #128	; 0x80
 80020ac:	00bf      	lsls	r7, r7, #2
 80020ae:	400f      	ands	r7, r1
 80020b0:	433b      	orrs	r3, r7
 80020b2:	2738      	movs	r7, #56	; 0x38
 80020b4:	69e6      	ldr	r6, [r4, #28]
 80020b6:	0c09      	lsrs	r1, r1, #16
 80020b8:	4037      	ands	r7, r6
 80020ba:	433b      	orrs	r3, r7
 80020bc:	2780      	movs	r7, #128	; 0x80
 80020be:	6a26      	ldr	r6, [r4, #32]
 80020c0:	4037      	ands	r7, r6
 80020c2:	433b      	orrs	r3, r7
 80020c4:	2780      	movs	r7, #128	; 0x80
 80020c6:	6aa6      	ldr	r6, [r4, #40]	; 0x28
 80020c8:	01bf      	lsls	r7, r7, #6
 80020ca:	4037      	ands	r7, r6
 80020cc:	433b      	orrs	r3, r7
 80020ce:	6013      	str	r3, [r2, #0]
 80020d0:	2310      	movs	r3, #16
 80020d2:	2708      	movs	r7, #8
 80020d4:	6a66      	ldr	r6, [r4, #36]	; 0x24
 80020d6:	4033      	ands	r3, r6
 80020d8:	6b66      	ldr	r6, [r4, #52]	; 0x34
 80020da:	4037      	ands	r7, r6
 80020dc:	433b      	orrs	r3, r7
 80020de:	27f0      	movs	r7, #240	; 0xf0
 80020e0:	013f      	lsls	r7, r7, #4
 80020e2:	403d      	ands	r5, r7
 80020e4:	431d      	orrs	r5, r3
 80020e6:	2304      	movs	r3, #4
 80020e8:	4019      	ands	r1, r3
 80020ea:	4329      	orrs	r1, r5
 80020ec:	4308      	orrs	r0, r1
 80020ee:	6050      	str	r0, [r2, #4]
 80020f0:	69d3      	ldr	r3, [r2, #28]
 80020f2:	4908      	ldr	r1, [pc, #32]	; (8002114 <HAL_SPI_Init+0xec>)
 80020f4:	2000      	movs	r0, #0
 80020f6:	400b      	ands	r3, r1
 80020f8:	61d3      	str	r3, [r2, #28]
 80020fa:	4663      	mov	r3, ip
 80020fc:	6620      	str	r0, [r4, #96]	; 0x60
 80020fe:	345d      	adds	r4, #93	; 0x5d
 8002100:	7023      	strb	r3, [r4, #0]
 8002102:	bdf8      	pop	{r3, r4, r5, r6, r7, pc}
 8002104:	2300      	movs	r3, #0
 8002106:	6123      	str	r3, [r4, #16]
 8002108:	6163      	str	r3, [r4, #20]
 800210a:	e79b      	b.n	8002044 <HAL_SPI_Init+0x1c>
 800210c:	21f0      	movs	r1, #240	; 0xf0
 800210e:	0018      	movs	r0, r3
 8002110:	0109      	lsls	r1, r1, #4
 8002112:	e7b4      	b.n	800207e <HAL_SPI_Init+0x56>
 8002114:	fffff7ff 	.word	0xfffff7ff

08002118 <HAL_SPI_TransmitReceive>:
 8002118:	b5f7      	push	{r0, r1, r2, r4, r5, r6, r7, lr}
 800211a:	001e      	movs	r6, r3
 800211c:	0003      	movs	r3, r0
 800211e:	335c      	adds	r3, #92	; 0x5c
 8002120:	0017      	movs	r7, r2
 8002122:	781a      	ldrb	r2, [r3, #0]
 8002124:	0004      	movs	r4, r0
 8002126:	000d      	movs	r5, r1
 8002128:	2002      	movs	r0, #2
 800212a:	2a01      	cmp	r2, #1
 800212c:	d100      	bne.n	8002130 <HAL_SPI_TransmitReceive+0x18>
 800212e:	e0aa      	b.n	8002286 <HAL_SPI_TransmitReceive+0x16e>
 8002130:	2201      	movs	r2, #1
 8002132:	701a      	strb	r2, [r3, #0]
 8002134:	f7fe feda 	bl	8000eec <HAL_GetTick>
 8002138:	0023      	movs	r3, r4
 800213a:	9001      	str	r0, [sp, #4]
 800213c:	335d      	adds	r3, #93	; 0x5d
 800213e:	781b      	ldrb	r3, [r3, #0]
 8002140:	6861      	ldr	r1, [r4, #4]
 8002142:	b2da      	uxtb	r2, r3
 8002144:	2b01      	cmp	r3, #1
 8002146:	d00c      	beq.n	8002162 <HAL_SPI_TransmitReceive+0x4a>
 8002148:	2382      	movs	r3, #130	; 0x82
 800214a:	2002      	movs	r0, #2
 800214c:	005b      	lsls	r3, r3, #1
 800214e:	4299      	cmp	r1, r3
 8002150:	d000      	beq.n	8002154 <HAL_SPI_TransmitReceive+0x3c>
 8002152:	e091      	b.n	8002278 <HAL_SPI_TransmitReceive+0x160>
 8002154:	68a3      	ldr	r3, [r4, #8]
 8002156:	2b00      	cmp	r3, #0
 8002158:	d000      	beq.n	800215c <HAL_SPI_TransmitReceive+0x44>
 800215a:	e08d      	b.n	8002278 <HAL_SPI_TransmitReceive+0x160>
 800215c:	2a04      	cmp	r2, #4
 800215e:	d000      	beq.n	8002162 <HAL_SPI_TransmitReceive+0x4a>
 8002160:	e08a      	b.n	8002278 <HAL_SPI_TransmitReceive+0x160>
 8002162:	2001      	movs	r0, #1
 8002164:	2d00      	cmp	r5, #0
 8002166:	d100      	bne.n	800216a <HAL_SPI_TransmitReceive+0x52>
 8002168:	e086      	b.n	8002278 <HAL_SPI_TransmitReceive+0x160>
 800216a:	2f00      	cmp	r7, #0
 800216c:	d100      	bne.n	8002170 <HAL_SPI_TransmitReceive+0x58>
 800216e:	e083      	b.n	8002278 <HAL_SPI_TransmitReceive+0x160>
 8002170:	2e00      	cmp	r6, #0
 8002172:	d100      	bne.n	8002176 <HAL_SPI_TransmitReceive+0x5e>
 8002174:	e080      	b.n	8002278 <HAL_SPI_TransmitReceive+0x160>
 8002176:	0023      	movs	r3, r4
 8002178:	335d      	adds	r3, #93	; 0x5d
 800217a:	781a      	ldrb	r2, [r3, #0]
 800217c:	2a04      	cmp	r2, #4
 800217e:	d001      	beq.n	8002184 <HAL_SPI_TransmitReceive+0x6c>
 8002180:	2205      	movs	r2, #5
 8002182:	701a      	strb	r2, [r3, #0]
 8002184:	0022      	movs	r2, r4
 8002186:	2300      	movs	r3, #0
 8002188:	3208      	adds	r2, #8
 800218a:	6623      	str	r3, [r4, #96]	; 0x60
 800218c:	6427      	str	r7, [r4, #64]	; 0x40
 800218e:	87d6      	strh	r6, [r2, #62]	; 0x3e
 8002190:	1da2      	adds	r2, r4, #6
 8002192:	87d6      	strh	r6, [r2, #62]	; 0x3e
 8002194:	22e0      	movs	r2, #224	; 0xe0
 8002196:	68e0      	ldr	r0, [r4, #12]
 8002198:	64e3      	str	r3, [r4, #76]	; 0x4c
 800219a:	6523      	str	r3, [r4, #80]	; 0x50
 800219c:	63a5      	str	r5, [r4, #56]	; 0x38
 800219e:	6823      	ldr	r3, [r4, #0]
 80021a0:	87e6      	strh	r6, [r4, #62]	; 0x3e
 80021a2:	87a6      	strh	r6, [r4, #60]	; 0x3c
 80021a4:	00d2      	lsls	r2, r2, #3
 80021a6:	4290      	cmp	r0, r2
 80021a8:	d930      	bls.n	800220c <HAL_SPI_TransmitReceive+0xf4>
 80021aa:	685a      	ldr	r2, [r3, #4]
 80021ac:	4f5c      	ldr	r7, [pc, #368]	; (8002320 <HAL_SPI_TransmitReceive+0x208>)
 80021ae:	403a      	ands	r2, r7
 80021b0:	605a      	str	r2, [r3, #4]
 80021b2:	2240      	movs	r2, #64	; 0x40
 80021b4:	681f      	ldr	r7, [r3, #0]
 80021b6:	4217      	tst	r7, r2
 80021b8:	d102      	bne.n	80021c0 <HAL_SPI_TransmitReceive+0xa8>
 80021ba:	681f      	ldr	r7, [r3, #0]
 80021bc:	433a      	orrs	r2, r7
 80021be:	601a      	str	r2, [r3, #0]
 80021c0:	22e0      	movs	r2, #224	; 0xe0
 80021c2:	00d2      	lsls	r2, r2, #3
 80021c4:	4290      	cmp	r0, r2
 80021c6:	d95f      	bls.n	8002288 <HAL_SPI_TransmitReceive+0x170>
 80021c8:	2900      	cmp	r1, #0
 80021ca:	d001      	beq.n	80021d0 <HAL_SPI_TransmitReceive+0xb8>
 80021cc:	2e01      	cmp	r6, #1
 80021ce:	d107      	bne.n	80021e0 <HAL_SPI_TransmitReceive+0xc8>
 80021d0:	882a      	ldrh	r2, [r5, #0]
 80021d2:	3502      	adds	r5, #2
 80021d4:	60da      	str	r2, [r3, #12]
 80021d6:	8fe3      	ldrh	r3, [r4, #62]	; 0x3e
 80021d8:	63a5      	str	r5, [r4, #56]	; 0x38
 80021da:	3b01      	subs	r3, #1
 80021dc:	b29b      	uxth	r3, r3
 80021de:	87e3      	strh	r3, [r4, #62]	; 0x3e
 80021e0:	2501      	movs	r5, #1
 80021e2:	2702      	movs	r7, #2
 80021e4:	002e      	movs	r6, r5
 80021e6:	8fe3      	ldrh	r3, [r4, #62]	; 0x3e
 80021e8:	2b00      	cmp	r3, #0
 80021ea:	d114      	bne.n	8002216 <HAL_SPI_TransmitReceive+0xfe>
 80021ec:	0023      	movs	r3, r4
 80021ee:	3308      	adds	r3, #8
 80021f0:	8fdb      	ldrh	r3, [r3, #62]	; 0x3e
 80021f2:	2b00      	cmp	r3, #0
 80021f4:	d10f      	bne.n	8002216 <HAL_SPI_TransmitReceive+0xfe>
 80021f6:	0020      	movs	r0, r4
 80021f8:	9a01      	ldr	r2, [sp, #4]
 80021fa:	9908      	ldr	r1, [sp, #32]
 80021fc:	f7ff fef0 	bl	8001fe0 <SPI_EndRxTxTransaction>
 8002200:	2800      	cmp	r0, #0
 8002202:	d039      	beq.n	8002278 <HAL_SPI_TransmitReceive+0x160>
 8002204:	2320      	movs	r3, #32
 8002206:	2001      	movs	r0, #1
 8002208:	6623      	str	r3, [r4, #96]	; 0x60
 800220a:	e035      	b.n	8002278 <HAL_SPI_TransmitReceive+0x160>
 800220c:	2280      	movs	r2, #128	; 0x80
 800220e:	685f      	ldr	r7, [r3, #4]
 8002210:	0152      	lsls	r2, r2, #5
 8002212:	433a      	orrs	r2, r7
 8002214:	e7cc      	b.n	80021b0 <HAL_SPI_TransmitReceive+0x98>
 8002216:	6820      	ldr	r0, [r4, #0]
 8002218:	6883      	ldr	r3, [r0, #8]
 800221a:	423b      	tst	r3, r7
 800221c:	d00e      	beq.n	800223c <HAL_SPI_TransmitReceive+0x124>
 800221e:	8fe3      	ldrh	r3, [r4, #62]	; 0x3e
 8002220:	2b00      	cmp	r3, #0
 8002222:	d00b      	beq.n	800223c <HAL_SPI_TransmitReceive+0x124>
 8002224:	2d01      	cmp	r5, #1
 8002226:	d109      	bne.n	800223c <HAL_SPI_TransmitReceive+0x124>
 8002228:	2500      	movs	r5, #0
 800222a:	6ba3      	ldr	r3, [r4, #56]	; 0x38
 800222c:	881a      	ldrh	r2, [r3, #0]
 800222e:	3302      	adds	r3, #2
 8002230:	60c2      	str	r2, [r0, #12]
 8002232:	63a3      	str	r3, [r4, #56]	; 0x38
 8002234:	8fe3      	ldrh	r3, [r4, #62]	; 0x3e
 8002236:	3b01      	subs	r3, #1
 8002238:	b29b      	uxth	r3, r3
 800223a:	87e3      	strh	r3, [r4, #62]	; 0x3e
 800223c:	6883      	ldr	r3, [r0, #8]
 800223e:	0019      	movs	r1, r3
 8002240:	4031      	ands	r1, r6
 8002242:	4233      	tst	r3, r6
 8002244:	d00e      	beq.n	8002264 <HAL_SPI_TransmitReceive+0x14c>
 8002246:	0022      	movs	r2, r4
 8002248:	3208      	adds	r2, #8
 800224a:	8fd3      	ldrh	r3, [r2, #62]	; 0x3e
 800224c:	2b00      	cmp	r3, #0
 800224e:	d009      	beq.n	8002264 <HAL_SPI_TransmitReceive+0x14c>
 8002250:	000d      	movs	r5, r1
 8002252:	68c0      	ldr	r0, [r0, #12]
 8002254:	6c23      	ldr	r3, [r4, #64]	; 0x40
 8002256:	8018      	strh	r0, [r3, #0]
 8002258:	3302      	adds	r3, #2
 800225a:	6423      	str	r3, [r4, #64]	; 0x40
 800225c:	8fd3      	ldrh	r3, [r2, #62]	; 0x3e
 800225e:	3b01      	subs	r3, #1
 8002260:	b29b      	uxth	r3, r3
 8002262:	87d3      	strh	r3, [r2, #62]	; 0x3e
 8002264:	f7fe fe42 	bl	8000eec <HAL_GetTick>
 8002268:	9b01      	ldr	r3, [sp, #4]
 800226a:	1ac0      	subs	r0, r0, r3
 800226c:	9b08      	ldr	r3, [sp, #32]
 800226e:	4298      	cmp	r0, r3
 8002270:	d3b9      	bcc.n	80021e6 <HAL_SPI_TransmitReceive+0xce>
 8002272:	3301      	adds	r3, #1
 8002274:	d0b7      	beq.n	80021e6 <HAL_SPI_TransmitReceive+0xce>
 8002276:	2003      	movs	r0, #3
 8002278:	0023      	movs	r3, r4
 800227a:	2201      	movs	r2, #1
 800227c:	335d      	adds	r3, #93	; 0x5d
 800227e:	701a      	strb	r2, [r3, #0]
 8002280:	2300      	movs	r3, #0
 8002282:	345c      	adds	r4, #92	; 0x5c
 8002284:	7023      	strb	r3, [r4, #0]
 8002286:	bdfe      	pop	{r1, r2, r3, r4, r5, r6, r7, pc}
 8002288:	2900      	cmp	r1, #0
 800228a:	d001      	beq.n	8002290 <HAL_SPI_TransmitReceive+0x178>
 800228c:	2e01      	cmp	r6, #1
 800228e:	d108      	bne.n	80022a2 <HAL_SPI_TransmitReceive+0x18a>
 8002290:	782a      	ldrb	r2, [r5, #0]
 8002292:	731a      	strb	r2, [r3, #12]
 8002294:	6ba3      	ldr	r3, [r4, #56]	; 0x38
 8002296:	3301      	adds	r3, #1
 8002298:	63a3      	str	r3, [r4, #56]	; 0x38
 800229a:	8fe3      	ldrh	r3, [r4, #62]	; 0x3e
 800229c:	3b01      	subs	r3, #1
 800229e:	b29b      	uxth	r3, r3
 80022a0:	87e3      	strh	r3, [r4, #62]	; 0x3e
 80022a2:	2501      	movs	r5, #1
 80022a4:	2702      	movs	r7, #2
 80022a6:	002e      	movs	r6, r5
 80022a8:	8fe3      	ldrh	r3, [r4, #62]	; 0x3e
 80022aa:	2b00      	cmp	r3, #0
 80022ac:	d104      	bne.n	80022b8 <HAL_SPI_TransmitReceive+0x1a0>
 80022ae:	0023      	movs	r3, r4
 80022b0:	3308      	adds	r3, #8
 80022b2:	8fdb      	ldrh	r3, [r3, #62]	; 0x3e
 80022b4:	2b00      	cmp	r3, #0
 80022b6:	d09e      	beq.n	80021f6 <HAL_SPI_TransmitReceive+0xde>
 80022b8:	6823      	ldr	r3, [r4, #0]
 80022ba:	689a      	ldr	r2, [r3, #8]
 80022bc:	423a      	tst	r2, r7
 80022be:	d00f      	beq.n	80022e0 <HAL_SPI_TransmitReceive+0x1c8>
 80022c0:	8fe2      	ldrh	r2, [r4, #62]	; 0x3e
 80022c2:	2a00      	cmp	r2, #0
 80022c4:	d00c      	beq.n	80022e0 <HAL_SPI_TransmitReceive+0x1c8>
 80022c6:	2d01      	cmp	r5, #1
 80022c8:	d10a      	bne.n	80022e0 <HAL_SPI_TransmitReceive+0x1c8>
 80022ca:	2500      	movs	r5, #0
 80022cc:	6ba2      	ldr	r2, [r4, #56]	; 0x38
 80022ce:	7812      	ldrb	r2, [r2, #0]
 80022d0:	731a      	strb	r2, [r3, #12]
 80022d2:	6ba3      	ldr	r3, [r4, #56]	; 0x38
 80022d4:	3301      	adds	r3, #1
 80022d6:	63a3      	str	r3, [r4, #56]	; 0x38
 80022d8:	8fe3      	ldrh	r3, [r4, #62]	; 0x3e
 80022da:	3b01      	subs	r3, #1
 80022dc:	b29b      	uxth	r3, r3
 80022de:	87e3      	strh	r3, [r4, #62]	; 0x3e
 80022e0:	6823      	ldr	r3, [r4, #0]
 80022e2:	689a      	ldr	r2, [r3, #8]
 80022e4:	0011      	movs	r1, r2
 80022e6:	4031      	ands	r1, r6
 80022e8:	4232      	tst	r2, r6
 80022ea:	d00f      	beq.n	800230c <HAL_SPI_TransmitReceive+0x1f4>
 80022ec:	0022      	movs	r2, r4
 80022ee:	3208      	adds	r2, #8
 80022f0:	8fd0      	ldrh	r0, [r2, #62]	; 0x3e
 80022f2:	2800      	cmp	r0, #0
 80022f4:	d00a      	beq.n	800230c <HAL_SPI_TransmitReceive+0x1f4>
 80022f6:	000d      	movs	r5, r1
 80022f8:	7b1b      	ldrb	r3, [r3, #12]
 80022fa:	6c20      	ldr	r0, [r4, #64]	; 0x40
 80022fc:	7003      	strb	r3, [r0, #0]
 80022fe:	6c23      	ldr	r3, [r4, #64]	; 0x40
 8002300:	3301      	adds	r3, #1
 8002302:	6423      	str	r3, [r4, #64]	; 0x40
 8002304:	8fd3      	ldrh	r3, [r2, #62]	; 0x3e
 8002306:	3b01      	subs	r3, #1
 8002308:	b29b      	uxth	r3, r3
 800230a:	87d3      	strh	r3, [r2, #62]	; 0x3e
 800230c:	f7fe fdee 	bl	8000eec <HAL_GetTick>
 8002310:	9b01      	ldr	r3, [sp, #4]
 8002312:	1ac0      	subs	r0, r0, r3
 8002314:	9b08      	ldr	r3, [sp, #32]
 8002316:	4298      	cmp	r0, r3
 8002318:	d3c6      	bcc.n	80022a8 <HAL_SPI_TransmitReceive+0x190>
 800231a:	3301      	adds	r3, #1
 800231c:	d0c4      	beq.n	80022a8 <HAL_SPI_TransmitReceive+0x190>
 800231e:	e7aa      	b.n	8002276 <HAL_SPI_TransmitReceive+0x15e>
 8002320:	ffffefff 	.word	0xffffefff

08002324 <HAL_TIM_Base_MspInit>:
 8002324:	4770      	bx	lr
	...

08002328 <HAL_TIM_Base_Start_IT>:
 8002328:	0002      	movs	r2, r0
 800232a:	0003      	movs	r3, r0
 800232c:	2001      	movs	r0, #1
 800232e:	323d      	adds	r2, #61	; 0x3d
 8002330:	7811      	ldrb	r1, [r2, #0]
 8002332:	4281      	cmp	r1, r0
 8002334:	d11c      	bne.n	8002370 <HAL_TIM_Base_Start_IT+0x48>
 8002336:	2102      	movs	r1, #2
 8002338:	7011      	strb	r1, [r2, #0]
 800233a:	681b      	ldr	r3, [r3, #0]
 800233c:	68da      	ldr	r2, [r3, #12]
 800233e:	4302      	orrs	r2, r0
 8002340:	60da      	str	r2, [r3, #12]
 8002342:	4a0e      	ldr	r2, [pc, #56]	; (800237c <HAL_TIM_Base_Start_IT+0x54>)
 8002344:	4293      	cmp	r3, r2
 8002346:	d009      	beq.n	800235c <HAL_TIM_Base_Start_IT+0x34>
 8002348:	2280      	movs	r2, #128	; 0x80
 800234a:	05d2      	lsls	r2, r2, #23
 800234c:	4293      	cmp	r3, r2
 800234e:	d005      	beq.n	800235c <HAL_TIM_Base_Start_IT+0x34>
 8002350:	4a0b      	ldr	r2, [pc, #44]	; (8002380 <HAL_TIM_Base_Start_IT+0x58>)
 8002352:	4293      	cmp	r3, r2
 8002354:	d002      	beq.n	800235c <HAL_TIM_Base_Start_IT+0x34>
 8002356:	4a0b      	ldr	r2, [pc, #44]	; (8002384 <HAL_TIM_Base_Start_IT+0x5c>)
 8002358:	4293      	cmp	r3, r2
 800235a:	d10a      	bne.n	8002372 <HAL_TIM_Base_Start_IT+0x4a>
 800235c:	2107      	movs	r1, #7
 800235e:	689a      	ldr	r2, [r3, #8]
 8002360:	2000      	movs	r0, #0
 8002362:	400a      	ands	r2, r1
 8002364:	2a06      	cmp	r2, #6
 8002366:	d003      	beq.n	8002370 <HAL_TIM_Base_Start_IT+0x48>
 8002368:	2201      	movs	r2, #1
 800236a:	6819      	ldr	r1, [r3, #0]
 800236c:	430a      	orrs	r2, r1
 800236e:	601a      	str	r2, [r3, #0]
 8002370:	4770      	bx	lr
 8002372:	681a      	ldr	r2, [r3, #0]
 8002374:	4310      	orrs	r0, r2
 8002376:	6018      	str	r0, [r3, #0]
 8002378:	2000      	movs	r0, #0
 800237a:	e7f9      	b.n	8002370 <HAL_TIM_Base_Start_IT+0x48>
 800237c:	40012c00 	.word	0x40012c00
 8002380:	40000400 	.word	0x40000400
 8002384:	40014000 	.word	0x40014000

08002388 <HAL_TIM_OC_DelayElapsedCallback>:
 8002388:	4770      	bx	lr

0800238a <HAL_TIM_IC_CaptureCallback>:
 800238a:	4770      	bx	lr

0800238c <HAL_TIM_PWM_PulseFinishedCallback>:
 800238c:	4770      	bx	lr

0800238e <HAL_TIM_TriggerCallback>:
 800238e:	4770      	bx	lr

08002390 <HAL_TIM_IRQHandler>:
 8002390:	2202      	movs	r2, #2
 8002392:	6803      	ldr	r3, [r0, #0]
 8002394:	b510      	push	{r4, lr}
 8002396:	6919      	ldr	r1, [r3, #16]
 8002398:	0004      	movs	r4, r0
 800239a:	4211      	tst	r1, r2
 800239c:	d00e      	beq.n	80023bc <HAL_TIM_IRQHandler+0x2c>
 800239e:	68d9      	ldr	r1, [r3, #12]
 80023a0:	4211      	tst	r1, r2
 80023a2:	d00b      	beq.n	80023bc <HAL_TIM_IRQHandler+0x2c>
 80023a4:	3a05      	subs	r2, #5
 80023a6:	611a      	str	r2, [r3, #16]
 80023a8:	3204      	adds	r2, #4
 80023aa:	7702      	strb	r2, [r0, #28]
 80023ac:	699b      	ldr	r3, [r3, #24]
 80023ae:	079b      	lsls	r3, r3, #30
 80023b0:	d100      	bne.n	80023b4 <HAL_TIM_IRQHandler+0x24>
 80023b2:	e079      	b.n	80024a8 <HAL_TIM_IRQHandler+0x118>
 80023b4:	f7ff ffe9 	bl	800238a <HAL_TIM_IC_CaptureCallback>
 80023b8:	2300      	movs	r3, #0
 80023ba:	7723      	strb	r3, [r4, #28]
 80023bc:	2204      	movs	r2, #4
 80023be:	6823      	ldr	r3, [r4, #0]
 80023c0:	6919      	ldr	r1, [r3, #16]
 80023c2:	4211      	tst	r1, r2
 80023c4:	d010      	beq.n	80023e8 <HAL_TIM_IRQHandler+0x58>
 80023c6:	68d9      	ldr	r1, [r3, #12]
 80023c8:	4211      	tst	r1, r2
 80023ca:	d00d      	beq.n	80023e8 <HAL_TIM_IRQHandler+0x58>
 80023cc:	3a09      	subs	r2, #9
 80023ce:	611a      	str	r2, [r3, #16]
 80023d0:	3207      	adds	r2, #7
 80023d2:	7722      	strb	r2, [r4, #28]
 80023d4:	699a      	ldr	r2, [r3, #24]
 80023d6:	23c0      	movs	r3, #192	; 0xc0
 80023d8:	009b      	lsls	r3, r3, #2
 80023da:	0020      	movs	r0, r4
 80023dc:	421a      	tst	r2, r3
 80023de:	d069      	beq.n	80024b4 <HAL_TIM_IRQHandler+0x124>
 80023e0:	f7ff ffd3 	bl	800238a <HAL_TIM_IC_CaptureCallback>
 80023e4:	2300      	movs	r3, #0
 80023e6:	7723      	strb	r3, [r4, #28]
 80023e8:	2208      	movs	r2, #8
 80023ea:	6823      	ldr	r3, [r4, #0]
 80023ec:	6919      	ldr	r1, [r3, #16]
 80023ee:	4211      	tst	r1, r2
 80023f0:	d00e      	beq.n	8002410 <HAL_TIM_IRQHandler+0x80>
 80023f2:	68d9      	ldr	r1, [r3, #12]
 80023f4:	4211      	tst	r1, r2
 80023f6:	d00b      	beq.n	8002410 <HAL_TIM_IRQHandler+0x80>
 80023f8:	3a11      	subs	r2, #17
 80023fa:	611a      	str	r2, [r3, #16]
 80023fc:	320d      	adds	r2, #13
 80023fe:	7722      	strb	r2, [r4, #28]
 8002400:	69db      	ldr	r3, [r3, #28]
 8002402:	0020      	movs	r0, r4
 8002404:	079b      	lsls	r3, r3, #30
 8002406:	d05b      	beq.n	80024c0 <HAL_TIM_IRQHandler+0x130>
 8002408:	f7ff ffbf 	bl	800238a <HAL_TIM_IC_CaptureCallback>
 800240c:	2300      	movs	r3, #0
 800240e:	7723      	strb	r3, [r4, #28]
 8002410:	2210      	movs	r2, #16
 8002412:	6823      	ldr	r3, [r4, #0]
 8002414:	6919      	ldr	r1, [r3, #16]
 8002416:	4211      	tst	r1, r2
 8002418:	d010      	beq.n	800243c <HAL_TIM_IRQHandler+0xac>
 800241a:	68d9      	ldr	r1, [r3, #12]
 800241c:	4211      	tst	r1, r2
 800241e:	d00d      	beq.n	800243c <HAL_TIM_IRQHandler+0xac>
 8002420:	3a21      	subs	r2, #33	; 0x21
 8002422:	611a      	str	r2, [r3, #16]
 8002424:	3219      	adds	r2, #25
 8002426:	7722      	strb	r2, [r4, #28]
 8002428:	69da      	ldr	r2, [r3, #28]
 800242a:	23c0      	movs	r3, #192	; 0xc0
 800242c:	009b      	lsls	r3, r3, #2
 800242e:	0020      	movs	r0, r4
 8002430:	421a      	tst	r2, r3
 8002432:	d04b      	beq.n	80024cc <HAL_TIM_IRQHandler+0x13c>
 8002434:	f7ff ffa9 	bl	800238a <HAL_TIM_IC_CaptureCallback>
 8002438:	2300      	movs	r3, #0
 800243a:	7723      	strb	r3, [r4, #28]
 800243c:	2201      	movs	r2, #1
 800243e:	6823      	ldr	r3, [r4, #0]
 8002440:	6919      	ldr	r1, [r3, #16]
 8002442:	4211      	tst	r1, r2
 8002444:	d007      	beq.n	8002456 <HAL_TIM_IRQHandler+0xc6>
 8002446:	68d9      	ldr	r1, [r3, #12]
 8002448:	4211      	tst	r1, r2
 800244a:	d004      	beq.n	8002456 <HAL_TIM_IRQHandler+0xc6>
 800244c:	3a03      	subs	r2, #3
 800244e:	0020      	movs	r0, r4
 8002450:	611a      	str	r2, [r3, #16]
 8002452:	f7fd ff07 	bl	8000264 <HAL_TIM_PeriodElapsedCallback>
 8002456:	2280      	movs	r2, #128	; 0x80
 8002458:	6823      	ldr	r3, [r4, #0]
 800245a:	6919      	ldr	r1, [r3, #16]
 800245c:	4211      	tst	r1, r2
 800245e:	d008      	beq.n	8002472 <HAL_TIM_IRQHandler+0xe2>
 8002460:	68d9      	ldr	r1, [r3, #12]
 8002462:	4211      	tst	r1, r2
 8002464:	d005      	beq.n	8002472 <HAL_TIM_IRQHandler+0xe2>
 8002466:	3a02      	subs	r2, #2
 8002468:	3aff      	subs	r2, #255	; 0xff
 800246a:	0020      	movs	r0, r4
 800246c:	611a      	str	r2, [r3, #16]
 800246e:	f000 f8ac 	bl	80025ca <HAL_TIMEx_BreakCallback>
 8002472:	2240      	movs	r2, #64	; 0x40
 8002474:	6823      	ldr	r3, [r4, #0]
 8002476:	6919      	ldr	r1, [r3, #16]
 8002478:	4211      	tst	r1, r2
 800247a:	d007      	beq.n	800248c <HAL_TIM_IRQHandler+0xfc>
 800247c:	68d9      	ldr	r1, [r3, #12]
 800247e:	4211      	tst	r1, r2
 8002480:	d004      	beq.n	800248c <HAL_TIM_IRQHandler+0xfc>
 8002482:	3a81      	subs	r2, #129	; 0x81
 8002484:	0020      	movs	r0, r4
 8002486:	611a      	str	r2, [r3, #16]
 8002488:	f7ff ff81 	bl	800238e <HAL_TIM_TriggerCallback>
 800248c:	2220      	movs	r2, #32
 800248e:	6823      	ldr	r3, [r4, #0]
 8002490:	6919      	ldr	r1, [r3, #16]
 8002492:	4211      	tst	r1, r2
 8002494:	d007      	beq.n	80024a6 <HAL_TIM_IRQHandler+0x116>
 8002496:	68d9      	ldr	r1, [r3, #12]
 8002498:	4211      	tst	r1, r2
 800249a:	d004      	beq.n	80024a6 <HAL_TIM_IRQHandler+0x116>
 800249c:	3a41      	subs	r2, #65	; 0x41
 800249e:	0020      	movs	r0, r4
 80024a0:	611a      	str	r2, [r3, #16]
 80024a2:	f000 f891 	bl	80025c8 <HAL_TIMEx_CommutCallback>
 80024a6:	bd10      	pop	{r4, pc}
 80024a8:	f7ff ff6e 	bl	8002388 <HAL_TIM_OC_DelayElapsedCallback>
 80024ac:	0020      	movs	r0, r4
 80024ae:	f7ff ff6d 	bl	800238c <HAL_TIM_PWM_PulseFinishedCallback>
 80024b2:	e781      	b.n	80023b8 <HAL_TIM_IRQHandler+0x28>
 80024b4:	f7ff ff68 	bl	8002388 <HAL_TIM_OC_DelayElapsedCallback>
 80024b8:	0020      	movs	r0, r4
 80024ba:	f7ff ff67 	bl	800238c <HAL_TIM_PWM_PulseFinishedCallback>
 80024be:	e791      	b.n	80023e4 <HAL_TIM_IRQHandler+0x54>
 80024c0:	f7ff ff62 	bl	8002388 <HAL_TIM_OC_DelayElapsedCallback>
 80024c4:	0020      	movs	r0, r4
 80024c6:	f7ff ff61 	bl	800238c <HAL_TIM_PWM_PulseFinishedCallback>
 80024ca:	e79f      	b.n	800240c <HAL_TIM_IRQHandler+0x7c>
 80024cc:	f7ff ff5c 	bl	8002388 <HAL_TIM_OC_DelayElapsedCallback>
 80024d0:	0020      	movs	r0, r4
 80024d2:	f7ff ff5b 	bl	800238c <HAL_TIM_PWM_PulseFinishedCallback>
 80024d6:	e7af      	b.n	8002438 <HAL_TIM_IRQHandler+0xa8>

080024d8 <TIM_Base_SetConfig>:
 80024d8:	4a20      	ldr	r2, [pc, #128]	; (800255c <TIM_Base_SetConfig+0x84>)
 80024da:	b510      	push	{r4, lr}
 80024dc:	6803      	ldr	r3, [r0, #0]
 80024de:	4290      	cmp	r0, r2
 80024e0:	d006      	beq.n	80024f0 <TIM_Base_SetConfig+0x18>
 80024e2:	2480      	movs	r4, #128	; 0x80
 80024e4:	05e4      	lsls	r4, r4, #23
 80024e6:	42a0      	cmp	r0, r4
 80024e8:	d002      	beq.n	80024f0 <TIM_Base_SetConfig+0x18>
 80024ea:	4c1d      	ldr	r4, [pc, #116]	; (8002560 <TIM_Base_SetConfig+0x88>)
 80024ec:	42a0      	cmp	r0, r4
 80024ee:	d10c      	bne.n	800250a <TIM_Base_SetConfig+0x32>
 80024f0:	2470      	movs	r4, #112	; 0x70
 80024f2:	43a3      	bics	r3, r4
 80024f4:	684c      	ldr	r4, [r1, #4]
 80024f6:	4323      	orrs	r3, r4
 80024f8:	4290      	cmp	r0, r2
 80024fa:	d012      	beq.n	8002522 <TIM_Base_SetConfig+0x4a>
 80024fc:	2480      	movs	r4, #128	; 0x80
 80024fe:	05e4      	lsls	r4, r4, #23
 8002500:	42a0      	cmp	r0, r4
 8002502:	d00e      	beq.n	8002522 <TIM_Base_SetConfig+0x4a>
 8002504:	4c16      	ldr	r4, [pc, #88]	; (8002560 <TIM_Base_SetConfig+0x88>)
 8002506:	42a0      	cmp	r0, r4
 8002508:	d00b      	beq.n	8002522 <TIM_Base_SetConfig+0x4a>
 800250a:	4c16      	ldr	r4, [pc, #88]	; (8002564 <TIM_Base_SetConfig+0x8c>)
 800250c:	42a0      	cmp	r0, r4
 800250e:	d008      	beq.n	8002522 <TIM_Base_SetConfig+0x4a>
 8002510:	4c15      	ldr	r4, [pc, #84]	; (8002568 <TIM_Base_SetConfig+0x90>)
 8002512:	42a0      	cmp	r0, r4
 8002514:	d005      	beq.n	8002522 <TIM_Base_SetConfig+0x4a>
 8002516:	4c15      	ldr	r4, [pc, #84]	; (800256c <TIM_Base_SetConfig+0x94>)
 8002518:	42a0      	cmp	r0, r4
 800251a:	d002      	beq.n	8002522 <TIM_Base_SetConfig+0x4a>
 800251c:	4c14      	ldr	r4, [pc, #80]	; (8002570 <TIM_Base_SetConfig+0x98>)
 800251e:	42a0      	cmp	r0, r4
 8002520:	d103      	bne.n	800252a <TIM_Base_SetConfig+0x52>
 8002522:	4c14      	ldr	r4, [pc, #80]	; (8002574 <TIM_Base_SetConfig+0x9c>)
 8002524:	4023      	ands	r3, r4
 8002526:	68cc      	ldr	r4, [r1, #12]
 8002528:	4323      	orrs	r3, r4
 800252a:	2480      	movs	r4, #128	; 0x80
 800252c:	43a3      	bics	r3, r4
 800252e:	694c      	ldr	r4, [r1, #20]
 8002530:	4323      	orrs	r3, r4
 8002532:	6003      	str	r3, [r0, #0]
 8002534:	688b      	ldr	r3, [r1, #8]
 8002536:	62c3      	str	r3, [r0, #44]	; 0x2c
 8002538:	680b      	ldr	r3, [r1, #0]
 800253a:	6283      	str	r3, [r0, #40]	; 0x28
 800253c:	4290      	cmp	r0, r2
 800253e:	d008      	beq.n	8002552 <TIM_Base_SetConfig+0x7a>
 8002540:	4b09      	ldr	r3, [pc, #36]	; (8002568 <TIM_Base_SetConfig+0x90>)
 8002542:	4298      	cmp	r0, r3
 8002544:	d005      	beq.n	8002552 <TIM_Base_SetConfig+0x7a>
 8002546:	4b09      	ldr	r3, [pc, #36]	; (800256c <TIM_Base_SetConfig+0x94>)
 8002548:	4298      	cmp	r0, r3
 800254a:	d002      	beq.n	8002552 <TIM_Base_SetConfig+0x7a>
 800254c:	4b08      	ldr	r3, [pc, #32]	; (8002570 <TIM_Base_SetConfig+0x98>)
 800254e:	4298      	cmp	r0, r3
 8002550:	d101      	bne.n	8002556 <TIM_Base_SetConfig+0x7e>
 8002552:	690b      	ldr	r3, [r1, #16]
 8002554:	6303      	str	r3, [r0, #48]	; 0x30
 8002556:	2301      	movs	r3, #1
 8002558:	6143      	str	r3, [r0, #20]
 800255a:	bd10      	pop	{r4, pc}
 800255c:	40012c00 	.word	0x40012c00
 8002560:	40000400 	.word	0x40000400
 8002564:	40002000 	.word	0x40002000
 8002568:	40014000 	.word	0x40014000
 800256c:	40014400 	.word	0x40014400
 8002570:	40014800 	.word	0x40014800
 8002574:	fffffcff 	.word	0xfffffcff

08002578 <HAL_TIM_Base_Init>:
 8002578:	b570      	push	{r4, r5, r6, lr}
 800257a:	0004      	movs	r4, r0
 800257c:	2001      	movs	r0, #1
 800257e:	2c00      	cmp	r4, #0
 8002580:	d021      	beq.n	80025c6 <HAL_TIM_Base_Init+0x4e>
 8002582:	0025      	movs	r5, r4
 8002584:	353d      	adds	r5, #61	; 0x3d
 8002586:	782b      	ldrb	r3, [r5, #0]
 8002588:	b2da      	uxtb	r2, r3
 800258a:	2b00      	cmp	r3, #0
 800258c:	d105      	bne.n	800259a <HAL_TIM_Base_Init+0x22>
 800258e:	0023      	movs	r3, r4
 8002590:	333c      	adds	r3, #60	; 0x3c
 8002592:	0020      	movs	r0, r4
 8002594:	701a      	strb	r2, [r3, #0]
 8002596:	f7ff fec5 	bl	8002324 <HAL_TIM_Base_MspInit>
 800259a:	2302      	movs	r3, #2
 800259c:	702b      	strb	r3, [r5, #0]
 800259e:	6820      	ldr	r0, [r4, #0]
 80025a0:	1d21      	adds	r1, r4, #4
 80025a2:	f7ff ff99 	bl	80024d8 <TIM_Base_SetConfig>
 80025a6:	0022      	movs	r2, r4
 80025a8:	2301      	movs	r3, #1
 80025aa:	2000      	movs	r0, #0
 80025ac:	3246      	adds	r2, #70	; 0x46
 80025ae:	7013      	strb	r3, [r2, #0]
 80025b0:	3445      	adds	r4, #69	; 0x45
 80025b2:	3a08      	subs	r2, #8
 80025b4:	7013      	strb	r3, [r2, #0]
 80025b6:	7053      	strb	r3, [r2, #1]
 80025b8:	7093      	strb	r3, [r2, #2]
 80025ba:	70d3      	strb	r3, [r2, #3]
 80025bc:	7113      	strb	r3, [r2, #4]
 80025be:	7153      	strb	r3, [r2, #5]
 80025c0:	7193      	strb	r3, [r2, #6]
 80025c2:	7023      	strb	r3, [r4, #0]
 80025c4:	702b      	strb	r3, [r5, #0]
 80025c6:	bd70      	pop	{r4, r5, r6, pc}

080025c8 <HAL_TIMEx_CommutCallback>:
 80025c8:	4770      	bx	lr

080025ca <HAL_TIMEx_BreakCallback>:
 80025ca:	4770      	bx	lr

080025cc <USB_DisableGlobalInt>:
 80025cc:	3002      	adds	r0, #2
 80025ce:	8fc3      	ldrh	r3, [r0, #62]	; 0x3e
 80025d0:	4a02      	ldr	r2, [pc, #8]	; (80025dc <USB_DisableGlobalInt+0x10>)
 80025d2:	4013      	ands	r3, r2
 80025d4:	87c3      	strh	r3, [r0, #62]	; 0x3e
 80025d6:	2000      	movs	r0, #0
 80025d8:	4770      	bx	lr
 80025da:	46c0      	nop			; (mov r8, r8)
 80025dc:	0000407f 	.word	0x0000407f

080025e0 <USB_DevInit>:
 80025e0:	b084      	sub	sp, #16
 80025e2:	b510      	push	{r4, lr}
 80025e4:	0004      	movs	r4, r0
 80025e6:	9204      	str	r2, [sp, #16]
 80025e8:	9305      	str	r3, [sp, #20]
 80025ea:	2201      	movs	r2, #1
 80025ec:	1c83      	adds	r3, r0, #2
 80025ee:	2000      	movs	r0, #0
 80025f0:	87da      	strh	r2, [r3, #62]	; 0x3e
 80025f2:	87d8      	strh	r0, [r3, #62]	; 0x3e
 80025f4:	1da3      	adds	r3, r4, #6
 80025f6:	3450      	adds	r4, #80	; 0x50
 80025f8:	87d8      	strh	r0, [r3, #62]	; 0x3e
 80025fa:	9103      	str	r1, [sp, #12]
 80025fc:	8020      	strh	r0, [r4, #0]
 80025fe:	bc10      	pop	{r4}
 8002600:	bc08      	pop	{r3}
 8002602:	b004      	add	sp, #16
 8002604:	4718      	bx	r3

08002606 <_ZN11SolarGators11DataModules8SteeringD1Ev>:
 8002606:	4770      	bx	lr

08002608 <_ZNK11SolarGators11DataModules8Steering11ToByteArrayEPh>:
 8002608:	0003      	movs	r3, r0
 800260a:	3370      	adds	r3, #112	; 0x70
 800260c:	781b      	ldrb	r3, [r3, #0]
 800260e:	700b      	strb	r3, [r1, #0]
 8002610:	0003      	movs	r3, r0
 8002612:	3371      	adds	r3, #113	; 0x71
 8002614:	781b      	ldrb	r3, [r3, #0]
 8002616:	005b      	lsls	r3, r3, #1
 8002618:	700b      	strb	r3, [r1, #0]
 800261a:	0003      	movs	r3, r0
 800261c:	3372      	adds	r3, #114	; 0x72
 800261e:	781b      	ldrb	r3, [r3, #0]
 8002620:	009b      	lsls	r3, r3, #2
 8002622:	700b      	strb	r3, [r1, #0]
 8002624:	0003      	movs	r3, r0
 8002626:	3373      	adds	r3, #115	; 0x73
 8002628:	781b      	ldrb	r3, [r3, #0]
 800262a:	00db      	lsls	r3, r3, #3
 800262c:	700b      	strb	r3, [r1, #0]
 800262e:	0003      	movs	r3, r0
 8002630:	3374      	adds	r3, #116	; 0x74
 8002632:	781b      	ldrb	r3, [r3, #0]
 8002634:	011b      	lsls	r3, r3, #4
 8002636:	700b      	strb	r3, [r1, #0]
 8002638:	0003      	movs	r3, r0
 800263a:	3375      	adds	r3, #117	; 0x75
 800263c:	781b      	ldrb	r3, [r3, #0]
 800263e:	015b      	lsls	r3, r3, #5
 8002640:	700b      	strb	r3, [r1, #0]
 8002642:	0003      	movs	r3, r0
 8002644:	3376      	adds	r3, #118	; 0x76
 8002646:	781b      	ldrb	r3, [r3, #0]
 8002648:	019b      	lsls	r3, r3, #6
 800264a:	700b      	strb	r3, [r1, #0]
 800264c:	0003      	movs	r3, r0
 800264e:	3377      	adds	r3, #119	; 0x77
 8002650:	781b      	ldrb	r3, [r3, #0]
 8002652:	01db      	lsls	r3, r3, #7
 8002654:	700b      	strb	r3, [r1, #0]
 8002656:	0003      	movs	r3, r0
 8002658:	3378      	adds	r3, #120	; 0x78
 800265a:	781b      	ldrb	r3, [r3, #0]
 800265c:	3079      	adds	r0, #121	; 0x79
 800265e:	704b      	strb	r3, [r1, #1]
 8002660:	7803      	ldrb	r3, [r0, #0]
 8002662:	708b      	strb	r3, [r1, #2]
 8002664:	4770      	bx	lr

08002666 <_ZN11SolarGators11DataModules8Steering13FromByteArrayEPh>:
 8002666:	b510      	push	{r4, lr}
 8002668:	2301      	movs	r3, #1
 800266a:	0004      	movs	r4, r0
 800266c:	780a      	ldrb	r2, [r1, #0]
 800266e:	3470      	adds	r4, #112	; 0x70
 8002670:	401a      	ands	r2, r3
 8002672:	7022      	strb	r2, [r4, #0]
 8002674:	780a      	ldrb	r2, [r1, #0]
 8002676:	40da      	lsrs	r2, r3
 8002678:	401a      	ands	r2, r3
 800267a:	7062      	strb	r2, [r4, #1]
 800267c:	780a      	ldrb	r2, [r1, #0]
 800267e:	0892      	lsrs	r2, r2, #2
 8002680:	401a      	ands	r2, r3
 8002682:	70a2      	strb	r2, [r4, #2]
 8002684:	780a      	ldrb	r2, [r1, #0]
 8002686:	08d2      	lsrs	r2, r2, #3
 8002688:	401a      	ands	r2, r3
 800268a:	70e2      	strb	r2, [r4, #3]
 800268c:	780a      	ldrb	r2, [r1, #0]
 800268e:	0912      	lsrs	r2, r2, #4
 8002690:	401a      	ands	r2, r3
 8002692:	7122      	strb	r2, [r4, #4]
 8002694:	780a      	ldrb	r2, [r1, #0]
 8002696:	0952      	lsrs	r2, r2, #5
 8002698:	401a      	ands	r2, r3
 800269a:	7162      	strb	r2, [r4, #5]
 800269c:	780a      	ldrb	r2, [r1, #0]
 800269e:	0992      	lsrs	r2, r2, #6
 80026a0:	401a      	ands	r2, r3
 80026a2:	71a2      	strb	r2, [r4, #6]
 80026a4:	780a      	ldrb	r2, [r1, #0]
 80026a6:	09d2      	lsrs	r2, r2, #7
 80026a8:	71e2      	strb	r2, [r4, #7]
 80026aa:	784a      	ldrb	r2, [r1, #1]
 80026ac:	4013      	ands	r3, r2
 80026ae:	0002      	movs	r2, r0
 80026b0:	3278      	adds	r2, #120	; 0x78
 80026b2:	7013      	strb	r3, [r2, #0]
 80026b4:	788b      	ldrb	r3, [r1, #2]
 80026b6:	3079      	adds	r0, #121	; 0x79
 80026b8:	7003      	strb	r3, [r0, #0]
 80026ba:	bd10      	pop	{r4, pc}

080026bc <_ZN11SolarGators11DataModules8SteeringD0Ev>:
 80026bc:	b510      	push	{r4, lr}
 80026be:	0004      	movs	r4, r0
 80026c0:	217c      	movs	r1, #124	; 0x7c
 80026c2:	f002 ff6f 	bl	80055a4 <_ZdlPvj>
 80026c6:	0020      	movs	r0, r4
 80026c8:	bd10      	pop	{r4, pc}
	...

080026cc <_ZN11SolarGators11DataModules8SteeringC1Ev>:
 80026cc:	4b10      	ldr	r3, [pc, #64]	; (8002710 <_ZN11SolarGators11DataModules8SteeringC1Ev+0x44>)
 80026ce:	b510      	push	{r4, lr}
 80026d0:	6003      	str	r3, [r0, #0]
 80026d2:	4b10      	ldr	r3, [pc, #64]	; (8002714 <_ZN11SolarGators11DataModules8SteeringC1Ev+0x48>)
 80026d4:	0004      	movs	r4, r0
 80026d6:	6043      	str	r3, [r0, #4]
 80026d8:	2302      	movs	r3, #2
 80026da:	6083      	str	r3, [r0, #8]
 80026dc:	4b0e      	ldr	r3, [pc, #56]	; (8002718 <_ZN11SolarGators11DataModules8SteeringC1Ev+0x4c>)
 80026de:	6603      	str	r3, [r0, #96]	; 0x60
 80026e0:	2301      	movs	r3, #1
 80026e2:	6643      	str	r3, [r0, #100]	; 0x64
 80026e4:	0003      	movs	r3, r0
 80026e6:	3310      	adds	r3, #16
 80026e8:	6683      	str	r3, [r0, #104]	; 0x68
 80026ea:	2350      	movs	r3, #80	; 0x50
 80026ec:	3060      	adds	r0, #96	; 0x60
 80026ee:	60c3      	str	r3, [r0, #12]
 80026f0:	f000 ff92 	bl	8003618 <osMutexNew>
 80026f4:	2280      	movs	r2, #128	; 0x80
 80026f6:	4b09      	ldr	r3, [pc, #36]	; (800271c <_ZN11SolarGators11DataModules8SteeringC1Ev+0x50>)
 80026f8:	0052      	lsls	r2, r2, #1
 80026fa:	6762      	str	r2, [r4, #116]	; 0x74
 80026fc:	3308      	adds	r3, #8
 80026fe:	0022      	movs	r2, r4
 8002700:	6023      	str	r3, [r4, #0]
 8002702:	2300      	movs	r3, #0
 8002704:	3278      	adds	r2, #120	; 0x78
 8002706:	60e0      	str	r0, [r4, #12]
 8002708:	6723      	str	r3, [r4, #112]	; 0x70
 800270a:	0020      	movs	r0, r4
 800270c:	8013      	strh	r3, [r2, #0]
 800270e:	bd10      	pop	{r4, pc}
 8002710:	08005b44 	.word	0x08005b44
 8002714:	00001234 	.word	0x00001234
 8002718:	08005b36 	.word	0x08005b36
 800271c:	08005b54 	.word	0x08005b54

08002720 <_ZNK11SolarGators11DataModules8Steering17GetLeftTurnStatusEv>:
 8002720:	3070      	adds	r0, #112	; 0x70
 8002722:	7800      	ldrb	r0, [r0, #0]
 8002724:	4770      	bx	lr

08002726 <_ZNK11SolarGators11DataModules8Steering18GetRightTurnStatusEv>:
 8002726:	3071      	adds	r0, #113	; 0x71
 8002728:	7800      	ldrb	r0, [r0, #0]
 800272a:	4770      	bx	lr

0800272c <_ZNK11SolarGators11DataModules8Steering16GetHazardsStatusEv>:
 800272c:	3072      	adds	r0, #114	; 0x72
 800272e:	7800      	ldrb	r0, [r0, #0]
 8002730:	4770      	bx	lr
	...

08002734 <_ZN11SolarGators11DataModules18SteeringControllerD1Ev>:
 8002734:	b510      	push	{r4, lr}
 8002736:	0004      	movs	r4, r0
 8002738:	4b07      	ldr	r3, [pc, #28]	; (8002758 <_ZN11SolarGators11DataModules18SteeringControllerD1Ev+0x24>)
 800273a:	3308      	adds	r3, #8
 800273c:	6003      	str	r3, [r0, #0]
 800273e:	6fc0      	ldr	r0, [r0, #124]	; 0x7c
 8002740:	f000 ff50 	bl	80035e4 <osEventFlagsDelete>
 8002744:	1d23      	adds	r3, r4, #4
 8002746:	6fd8      	ldr	r0, [r3, #124]	; 0x7c
 8002748:	f001 f8f4 	bl	8003934 <osMessageQueueDelete>
 800274c:	0020      	movs	r0, r4
 800274e:	f7ff ff5a 	bl	8002606 <_ZN11SolarGators11DataModules8SteeringD1Ev>
 8002752:	0020      	movs	r0, r4
 8002754:	bd10      	pop	{r4, pc}
 8002756:	46c0      	nop			; (mov r8, r8)
 8002758:	08005b88 	.word	0x08005b88

0800275c <_ZN11SolarGators11DataModules18SteeringControllerD0Ev>:
 800275c:	b510      	push	{r4, lr}
 800275e:	0004      	movs	r4, r0
 8002760:	f7ff ffe8 	bl	8002734 <_ZN11SolarGators11DataModules18SteeringControllerD1Ev>
 8002764:	21a8      	movs	r1, #168	; 0xa8
 8002766:	0020      	movs	r0, r4
 8002768:	00c9      	lsls	r1, r1, #3
 800276a:	f002 ff1b 	bl	80055a4 <_ZdlPvj>
 800276e:	0020      	movs	r0, r4
 8002770:	bd10      	pop	{r4, pc}

08002772 <_ZN11SolarGators11DataModules18SteeringController13ButtonHandlerEv>:
 8002772:	b5f7      	push	{r0, r1, r2, r4, r5, r6, r7, lr}
 8002774:	2501      	movs	r5, #1
 8002776:	0004      	movs	r4, r0
 8002778:	426d      	negs	r5, r5
 800277a:	002b      	movs	r3, r5
 800277c:	2200      	movs	r2, #0
 800277e:	2101      	movs	r1, #1
 8002780:	6fe0      	ldr	r0, [r4, #124]	; 0x7c
 8002782:	f000 fefd 	bl	8003580 <osEventFlagsWait>
 8002786:	1d27      	adds	r7, r4, #4
 8002788:	6ff8      	ldr	r0, [r7, #124]	; 0x7c
 800278a:	f001 f8cf 	bl	800392c <osMessageQueueGetCount>
 800278e:	2800      	cmp	r0, #0
 8002790:	d0f3      	beq.n	800277a <_ZN11SolarGators11DataModules18SteeringController13ButtonHandlerEv+0x8>
 8002792:	466b      	mov	r3, sp
 8002794:	1d9e      	adds	r6, r3, #6
 8002796:	2300      	movs	r3, #0
 8002798:	0031      	movs	r1, r6
 800279a:	001a      	movs	r2, r3
 800279c:	6ff8      	ldr	r0, [r7, #124]	; 0x7c
 800279e:	f001 f88b 	bl	80038b8 <osMessageQueueGet>
 80027a2:	2297      	movs	r2, #151	; 0x97
 80027a4:	00d2      	lsls	r2, r2, #3
 80027a6:	18a2      	adds	r2, r4, r2
 80027a8:	8833      	ldrh	r3, [r6, #0]
 80027aa:	6810      	ldr	r0, [r2, #0]
 80027ac:	2800      	cmp	r0, #0
 80027ae:	d009      	beq.n	80027c4 <_ZN11SolarGators11DataModules18SteeringController13ButtonHandlerEv+0x52>
 80027b0:	8802      	ldrh	r2, [r0, #0]
 80027b2:	4293      	cmp	r3, r2
 80027b4:	d201      	bcs.n	80027ba <_ZN11SolarGators11DataModules18SteeringController13ButtonHandlerEv+0x48>
 80027b6:	6880      	ldr	r0, [r0, #8]
 80027b8:	e7f8      	b.n	80027ac <_ZN11SolarGators11DataModules18SteeringController13ButtonHandlerEv+0x3a>
 80027ba:	4293      	cmp	r3, r2
 80027bc:	d901      	bls.n	80027c2 <_ZN11SolarGators11DataModules18SteeringController13ButtonHandlerEv+0x50>
 80027be:	68c0      	ldr	r0, [r0, #12]
 80027c0:	e7f4      	b.n	80027ac <_ZN11SolarGators11DataModules18SteeringController13ButtonHandlerEv+0x3a>
 80027c2:	6840      	ldr	r0, [r0, #4]
 80027c4:	f000 f9ef 	bl	8002ba6 <_ZN11SolarGators7Drivers6Button11HandlePressEv>
 80027c8:	e7dd      	b.n	8002786 <_ZN11SolarGators11DataModules18SteeringController13ButtonHandlerEv+0x14>

080027ca <_ZN11SolarGators10Containers3MapItNS_7Drivers6ButtonELi10EE11RightRotateEPNS4_4NodeE.isra.0>:
 80027ca:	0002      	movs	r2, r0
 80027cc:	6880      	ldr	r0, [r0, #8]
 80027ce:	b510      	push	{r4, lr}
 80027d0:	68c3      	ldr	r3, [r0, #12]
 80027d2:	60c2      	str	r2, [r0, #12]
 80027d4:	1e19      	subs	r1, r3, #0
 80027d6:	6093      	str	r3, [r2, #8]
 80027d8:	d000      	beq.n	80027dc <_ZN11SolarGators10Containers3MapItNS_7Drivers6ButtonELi10EE11RightRotateEPNS4_4NodeE.isra.0+0x12>
 80027da:	6919      	ldr	r1, [r3, #16]
 80027dc:	68d4      	ldr	r4, [r2, #12]
 80027de:	1e23      	subs	r3, r4, #0
 80027e0:	d000      	beq.n	80027e4 <_ZN11SolarGators10Containers3MapItNS_7Drivers6ButtonELi10EE11RightRotateEPNS4_4NodeE.isra.0+0x1a>
 80027e2:	6923      	ldr	r3, [r4, #16]
 80027e4:	428b      	cmp	r3, r1
 80027e6:	d200      	bcs.n	80027ea <_ZN11SolarGators10Containers3MapItNS_7Drivers6ButtonELi10EE11RightRotateEPNS4_4NodeE.isra.0+0x20>
 80027e8:	000b      	movs	r3, r1
 80027ea:	6881      	ldr	r1, [r0, #8]
 80027ec:	3301      	adds	r3, #1
 80027ee:	6113      	str	r3, [r2, #16]
 80027f0:	1e0a      	subs	r2, r1, #0
 80027f2:	d000      	beq.n	80027f6 <_ZN11SolarGators10Containers3MapItNS_7Drivers6ButtonELi10EE11RightRotateEPNS4_4NodeE.isra.0+0x2c>
 80027f4:	690a      	ldr	r2, [r1, #16]
 80027f6:	4293      	cmp	r3, r2
 80027f8:	d200      	bcs.n	80027fc <_ZN11SolarGators10Containers3MapItNS_7Drivers6ButtonELi10EE11RightRotateEPNS4_4NodeE.isra.0+0x32>
 80027fa:	0013      	movs	r3, r2
 80027fc:	3301      	adds	r3, #1
 80027fe:	6103      	str	r3, [r0, #16]
 8002800:	bd10      	pop	{r4, pc}

08002802 <_ZN11SolarGators10Containers3MapItNS_7Drivers6ButtonELi10EE10LeftRotateEPNS4_4NodeE.isra.0>:
 8002802:	0002      	movs	r2, r0
 8002804:	68c0      	ldr	r0, [r0, #12]
 8002806:	b510      	push	{r4, lr}
 8002808:	6881      	ldr	r1, [r0, #8]
 800280a:	6082      	str	r2, [r0, #8]
 800280c:	6893      	ldr	r3, [r2, #8]
 800280e:	60d1      	str	r1, [r2, #12]
 8002810:	1e1c      	subs	r4, r3, #0
 8002812:	d000      	beq.n	8002816 <_ZN11SolarGators10Containers3MapItNS_7Drivers6ButtonELi10EE10LeftRotateEPNS4_4NodeE.isra.0+0x14>
 8002814:	691c      	ldr	r4, [r3, #16]
 8002816:	1e0b      	subs	r3, r1, #0
 8002818:	d000      	beq.n	800281c <_ZN11SolarGators10Containers3MapItNS_7Drivers6ButtonELi10EE10LeftRotateEPNS4_4NodeE.isra.0+0x1a>
 800281a:	690b      	ldr	r3, [r1, #16]
 800281c:	42a3      	cmp	r3, r4
 800281e:	d200      	bcs.n	8002822 <_ZN11SolarGators10Containers3MapItNS_7Drivers6ButtonELi10EE10LeftRotateEPNS4_4NodeE.isra.0+0x20>
 8002820:	0023      	movs	r3, r4
 8002822:	68c1      	ldr	r1, [r0, #12]
 8002824:	3301      	adds	r3, #1
 8002826:	6113      	str	r3, [r2, #16]
 8002828:	1e0a      	subs	r2, r1, #0
 800282a:	d000      	beq.n	800282e <_ZN11SolarGators10Containers3MapItNS_7Drivers6ButtonELi10EE10LeftRotateEPNS4_4NodeE.isra.0+0x2c>
 800282c:	690a      	ldr	r2, [r1, #16]
 800282e:	4293      	cmp	r3, r2
 8002830:	d200      	bcs.n	8002834 <_ZN11SolarGators10Containers3MapItNS_7Drivers6ButtonELi10EE10LeftRotateEPNS4_4NodeE.isra.0+0x32>
 8002832:	0013      	movs	r3, r2
 8002834:	3301      	adds	r3, #1
 8002836:	6103      	str	r3, [r0, #16]
 8002838:	bd10      	pop	{r4, pc}
	...

0800283c <_ZN11SolarGators11DataModules18SteeringControllerC1Ev>:
 800283c:	b5f7      	push	{r0, r1, r2, r4, r5, r6, r7, lr}
 800283e:	0004      	movs	r4, r0
 8002840:	0027      	movs	r7, r4
 8002842:	f7ff ff43 	bl	80026cc <_ZN11SolarGators11DataModules8SteeringC1Ev>
 8002846:	4b30      	ldr	r3, [pc, #192]	; (8002908 <_ZN11SolarGators11DataModules18SteeringControllerC1Ev+0xcc>)
 8002848:	37f4      	adds	r7, #244	; 0xf4
 800284a:	3308      	adds	r3, #8
 800284c:	2218      	movs	r2, #24
 800284e:	2100      	movs	r1, #0
 8002850:	6023      	str	r3, [r4, #0]
 8002852:	0038      	movs	r0, r7
 8002854:	f002 ff27 	bl	80056a6 <memset>
 8002858:	4b2c      	ldr	r3, [pc, #176]	; (800290c <_ZN11SolarGators11DataModules18SteeringControllerC1Ev+0xd0>)
 800285a:	0026      	movs	r6, r4
 800285c:	603b      	str	r3, [r7, #0]
 800285e:	0023      	movs	r3, r4
 8002860:	36fc      	adds	r6, #252	; 0xfc
 8002862:	33a4      	adds	r3, #164	; 0xa4
 8002864:	6033      	str	r3, [r6, #0]
 8002866:	2350      	movs	r3, #80	; 0x50
 8002868:	6073      	str	r3, [r6, #4]
 800286a:	0023      	movs	r3, r4
 800286c:	3384      	adds	r3, #132	; 0x84
 800286e:	60b3      	str	r3, [r6, #8]
 8002870:	2320      	movs	r3, #32
 8002872:	60f3      	str	r3, [r6, #12]
 8002874:	23f3      	movs	r3, #243	; 0xf3
 8002876:	009b      	lsls	r3, r3, #2
 8002878:	18e3      	adds	r3, r4, r3
 800287a:	2224      	movs	r2, #36	; 0x24
 800287c:	2100      	movs	r1, #0
 800287e:	0018      	movs	r0, r3
 8002880:	9301      	str	r3, [sp, #4]
 8002882:	f002 ff10 	bl	80056a6 <memset>
 8002886:	23f3      	movs	r3, #243	; 0xf3
 8002888:	4a21      	ldr	r2, [pc, #132]	; (8002910 <_ZN11SolarGators11DataModules18SteeringControllerC1Ev+0xd4>)
 800288a:	009b      	lsls	r3, r3, #2
 800288c:	50e2      	str	r2, [r4, r3]
 800288e:	3bbc      	subs	r3, #188	; 0xbc
 8002890:	18e2      	adds	r2, r4, r3
 8002892:	33c4      	adds	r3, #196	; 0xc4
 8002894:	50e2      	str	r2, [r4, r3]
 8002896:	22bc      	movs	r2, #188	; 0xbc
 8002898:	3304      	adds	r3, #4
 800289a:	50e2      	str	r2, [r4, r3]
 800289c:	0022      	movs	r2, r4
 800289e:	3211      	adds	r2, #17
 80028a0:	32ff      	adds	r2, #255	; 0xff
 80028a2:	3304      	adds	r3, #4
 80028a4:	50e2      	str	r2, [r4, r3]
 80028a6:	2280      	movs	r2, #128	; 0x80
 80028a8:	2500      	movs	r5, #0
 80028aa:	3304      	adds	r3, #4
 80028ac:	0092      	lsls	r2, r2, #2
 80028ae:	50e2      	str	r2, [r4, r3]
 80028b0:	3aca      	subs	r2, #202	; 0xca
 80028b2:	3304      	adds	r3, #4
 80028b4:	3aff      	subs	r2, #255	; 0xff
 80028b6:	50e2      	str	r2, [r4, r3]
 80028b8:	4b16      	ldr	r3, [pc, #88]	; (8002914 <_ZN11SolarGators11DataModules18SteeringControllerC1Ev+0xd8>)
 80028ba:	0021      	movs	r1, r4
 80028bc:	18e3      	adds	r3, r4, r3
 80028be:	601d      	str	r5, [r3, #0]
 80028c0:	2397      	movs	r3, #151	; 0x97
 80028c2:	00db      	lsls	r3, r3, #3
 80028c4:	18e3      	adds	r3, r4, r3
 80028c6:	601d      	str	r5, [r3, #0]
 80028c8:	2398      	movs	r3, #152	; 0x98
 80028ca:	00db      	lsls	r3, r3, #3
 80028cc:	18e3      	adds	r3, r4, r3
 80028ce:	9a01      	ldr	r2, [sp, #4]
 80028d0:	67dd      	str	r5, [r3, #124]	; 0x7c
 80028d2:	679d      	str	r5, [r3, #120]	; 0x78
 80028d4:	4810      	ldr	r0, [pc, #64]	; (8002918 <_ZN11SolarGators11DataModules18SteeringControllerC1Ev+0xdc>)
 80028d6:	f000 fcf5 	bl	80032c4 <osThreadNew>
 80028da:	6130      	str	r0, [r6, #16]
 80028dc:	0028      	movs	r0, r5
 80028de:	f000 fdfb 	bl	80034d8 <osEventFlagsNew>
 80028e2:	67e0      	str	r0, [r4, #124]	; 0x7c
 80028e4:	42a8      	cmp	r0, r5
 80028e6:	d101      	bne.n	80028ec <_ZN11SolarGators11DataModules18SteeringControllerC1Ev+0xb0>
 80028e8:	f7fd fcc6 	bl	8000278 <Error_Handler>
 80028ec:	003a      	movs	r2, r7
 80028ee:	2102      	movs	r1, #2
 80028f0:	2010      	movs	r0, #16
 80028f2:	f000 ff61 	bl	80037b8 <osMessageQueueNew>
 80028f6:	1d23      	adds	r3, r4, #4
 80028f8:	67d8      	str	r0, [r3, #124]	; 0x7c
 80028fa:	2800      	cmp	r0, #0
 80028fc:	d101      	bne.n	8002902 <_ZN11SolarGators11DataModules18SteeringControllerC1Ev+0xc6>
 80028fe:	f7fd fcbb 	bl	8000278 <Error_Handler>
 8002902:	0020      	movs	r0, r4
 8002904:	bdfe      	pop	{r1, r2, r3, r4, r5, r6, r7, pc}
 8002906:	46c0      	nop			; (mov r8, r8)
 8002908:	08005b88 	.word	0x08005b88
 800290c:	08005b6c 	.word	0x08005b6c
 8002910:	08005b79 	.word	0x08005b79
 8002914:	000004bc 	.word	0x000004bc
 8002918:	08002773 	.word	0x08002773

0800291c <_ZN11SolarGators11DataModules18SteeringController20EnableLeftTurnSignalEv>:
 800291c:	0003      	movs	r3, r0
 800291e:	3372      	adds	r3, #114	; 0x72
 8002920:	781b      	ldrb	r3, [r3, #0]
 8002922:	2b00      	cmp	r3, #0
 8002924:	d102      	bne.n	800292c <_ZN11SolarGators11DataModules18SteeringController20EnableLeftTurnSignalEv+0x10>
 8002926:	3070      	adds	r0, #112	; 0x70
 8002928:	3301      	adds	r3, #1
 800292a:	7003      	strb	r3, [r0, #0]
 800292c:	4770      	bx	lr

0800292e <_ZN11SolarGators11DataModules18SteeringController20ToggleLeftTurnSignalEv>:
 800292e:	0003      	movs	r3, r0
 8002930:	b510      	push	{r4, lr}
 8002932:	3370      	adds	r3, #112	; 0x70
 8002934:	781a      	ldrb	r2, [r3, #0]
 8002936:	2a00      	cmp	r2, #0
 8002938:	d002      	beq.n	8002940 <_ZN11SolarGators11DataModules18SteeringController20ToggleLeftTurnSignalEv+0x12>
 800293a:	2200      	movs	r2, #0
 800293c:	701a      	strb	r2, [r3, #0]
 800293e:	bd10      	pop	{r4, pc}
 8002940:	f7ff ffec 	bl	800291c <_ZN11SolarGators11DataModules18SteeringController20EnableLeftTurnSignalEv>
 8002944:	e7fb      	b.n	800293e <_ZN11SolarGators11DataModules18SteeringController20ToggleLeftTurnSignalEv+0x10>

08002946 <_ZN11SolarGators11DataModules18SteeringController21EnableRightTurnSignalEv>:
 8002946:	0003      	movs	r3, r0
 8002948:	3372      	adds	r3, #114	; 0x72
 800294a:	781b      	ldrb	r3, [r3, #0]
 800294c:	2b00      	cmp	r3, #0
 800294e:	d102      	bne.n	8002956 <_ZN11SolarGators11DataModules18SteeringController21EnableRightTurnSignalEv+0x10>
 8002950:	3071      	adds	r0, #113	; 0x71
 8002952:	3301      	adds	r3, #1
 8002954:	7003      	strb	r3, [r0, #0]
 8002956:	4770      	bx	lr

08002958 <_ZN11SolarGators11DataModules18SteeringController21ToggleRightTurnSignalEv>:
 8002958:	0003      	movs	r3, r0
 800295a:	b510      	push	{r4, lr}
 800295c:	3371      	adds	r3, #113	; 0x71
 800295e:	781a      	ldrb	r2, [r3, #0]
 8002960:	2a00      	cmp	r2, #0
 8002962:	d002      	beq.n	800296a <_ZN11SolarGators11DataModules18SteeringController21ToggleRightTurnSignalEv+0x12>
 8002964:	2200      	movs	r2, #0
 8002966:	701a      	strb	r2, [r3, #0]
 8002968:	bd10      	pop	{r4, pc}
 800296a:	f7ff ffec 	bl	8002946 <_ZN11SolarGators11DataModules18SteeringController21EnableRightTurnSignalEv>
 800296e:	e7fb      	b.n	8002968 <_ZN11SolarGators11DataModules18SteeringController21ToggleRightTurnSignalEv+0x10>

08002970 <_ZN11SolarGators11DataModules18SteeringController13ToggleHazardsEv>:
 8002970:	0003      	movs	r3, r0
 8002972:	3372      	adds	r3, #114	; 0x72
 8002974:	781a      	ldrb	r2, [r3, #0]
 8002976:	2a00      	cmp	r2, #0
 8002978:	d002      	beq.n	8002980 <_ZN11SolarGators11DataModules18SteeringController13ToggleHazardsEv+0x10>
 800297a:	2200      	movs	r2, #0
 800297c:	701a      	strb	r2, [r3, #0]
 800297e:	4770      	bx	lr
 8002980:	3070      	adds	r0, #112	; 0x70
 8002982:	8002      	strh	r2, [r0, #0]
 8002984:	2201      	movs	r2, #1
 8002986:	e7f9      	b.n	800297c <_ZN11SolarGators11DataModules18SteeringController13ToggleHazardsEv+0xc>

08002988 <_ZN11SolarGators11DataModules18SteeringController12EnableCruiseEv>:
 8002988:	0003      	movs	r3, r0
 800298a:	3378      	adds	r3, #120	; 0x78
 800298c:	781b      	ldrb	r3, [r3, #0]
 800298e:	2b00      	cmp	r3, #0
 8002990:	d102      	bne.n	8002998 <_ZN11SolarGators11DataModules18SteeringController12EnableCruiseEv+0x10>
 8002992:	3074      	adds	r0, #116	; 0x74
 8002994:	3301      	adds	r3, #1
 8002996:	7003      	strb	r3, [r0, #0]
 8002998:	4770      	bx	lr

0800299a <_ZN11SolarGators11DataModules18SteeringController12ToggleCruiseEv>:
 800299a:	0003      	movs	r3, r0
 800299c:	b510      	push	{r4, lr}
 800299e:	3374      	adds	r3, #116	; 0x74
 80029a0:	781a      	ldrb	r2, [r3, #0]
 80029a2:	2a00      	cmp	r2, #0
 80029a4:	d002      	beq.n	80029ac <_ZN11SolarGators11DataModules18SteeringController12ToggleCruiseEv+0x12>
 80029a6:	2200      	movs	r2, #0
 80029a8:	701a      	strb	r2, [r3, #0]
 80029aa:	bd10      	pop	{r4, pc}
 80029ac:	f7ff ffec 	bl	8002988 <_ZN11SolarGators11DataModules18SteeringController12EnableCruiseEv>
 80029b0:	e7fb      	b.n	80029aa <_ZN11SolarGators11DataModules18SteeringController12ToggleCruiseEv+0x10>

080029b2 <_ZN11SolarGators11DataModules18SteeringController16ToggleHeadlightsEv>:
 80029b2:	2301      	movs	r3, #1
 80029b4:	3076      	adds	r0, #118	; 0x76
 80029b6:	7802      	ldrb	r2, [r0, #0]
 80029b8:	4053      	eors	r3, r2
 80029ba:	7003      	strb	r3, [r0, #0]
 80029bc:	4770      	bx	lr

080029be <_ZN11SolarGators11DataModules18SteeringController10ToggleHornEv>:
 80029be:	2301      	movs	r3, #1
 80029c0:	3077      	adds	r0, #119	; 0x77
 80029c2:	7802      	ldrb	r2, [r0, #0]
 80029c4:	4053      	eors	r3, r2
 80029c6:	7003      	strb	r3, [r0, #0]
 80029c8:	4770      	bx	lr

080029ca <_ZN11SolarGators11DataModules18SteeringController14SetCruiseSpeedEt>:
 80029ca:	1e4b      	subs	r3, r1, #1
 80029cc:	2b3a      	cmp	r3, #58	; 0x3a
 80029ce:	d801      	bhi.n	80029d4 <_ZN11SolarGators11DataModules18SteeringController14SetCruiseSpeedEt+0xa>
 80029d0:	3079      	adds	r0, #121	; 0x79
 80029d2:	7001      	strb	r1, [r0, #0]
 80029d4:	4770      	bx	lr

080029d6 <_ZN11SolarGators11DataModules18SteeringController19IncreaseCruiseSpeedEv>:
 80029d6:	0003      	movs	r3, r0
 80029d8:	b510      	push	{r4, lr}
 80029da:	3379      	adds	r3, #121	; 0x79
 80029dc:	7819      	ldrb	r1, [r3, #0]
 80029de:	1c4a      	adds	r2, r1, #1
 80029e0:	701a      	strb	r2, [r3, #0]
 80029e2:	b289      	uxth	r1, r1
 80029e4:	f7ff fff1 	bl	80029ca <_ZN11SolarGators11DataModules18SteeringController14SetCruiseSpeedEt>
 80029e8:	bd10      	pop	{r4, pc}

080029ea <_ZN11SolarGators11DataModules18SteeringController19DecreaseCruiseSpeedEv>:
 80029ea:	0003      	movs	r3, r0
 80029ec:	b510      	push	{r4, lr}
 80029ee:	3379      	adds	r3, #121	; 0x79
 80029f0:	7819      	ldrb	r1, [r3, #0]
 80029f2:	1e4a      	subs	r2, r1, #1
 80029f4:	701a      	strb	r2, [r3, #0]
 80029f6:	b289      	uxth	r1, r1
 80029f8:	f7ff ffe7 	bl	80029ca <_ZN11SolarGators11DataModules18SteeringController14SetCruiseSpeedEt>
 80029fc:	bd10      	pop	{r4, pc}

080029fe <_ZN11SolarGators11DataModules18SteeringController13ToggleReverseEv>:
 80029fe:	0003      	movs	r3, r0
 8002a00:	3378      	adds	r3, #120	; 0x78
 8002a02:	781a      	ldrb	r2, [r3, #0]
 8002a04:	2a00      	cmp	r2, #0
 8002a06:	d002      	beq.n	8002a0e <_ZN11SolarGators11DataModules18SteeringController13ToggleReverseEv+0x10>
 8002a08:	2200      	movs	r2, #0
 8002a0a:	701a      	strb	r2, [r3, #0]
 8002a0c:	4770      	bx	lr
 8002a0e:	3074      	adds	r0, #116	; 0x74
 8002a10:	7002      	strb	r2, [r0, #0]
 8002a12:	2201      	movs	r2, #1
 8002a14:	e7f9      	b.n	8002a0a <_ZN11SolarGators11DataModules18SteeringController13ToggleReverseEv+0xc>

08002a16 <_ZN11SolarGators11DataModules18SteeringController9ToggleEcoEv>:
 8002a16:	2301      	movs	r3, #1
 8002a18:	3075      	adds	r0, #117	; 0x75
 8002a1a:	7802      	ldrb	r2, [r0, #0]
 8002a1c:	4053      	eors	r3, r2
 8002a1e:	7003      	strb	r3, [r0, #0]
 8002a20:	4770      	bx	lr

08002a22 <_ZN11SolarGators11DataModules18SteeringController11HandlePressEt>:
 8002a22:	b537      	push	{r0, r1, r2, r4, r5, lr}
 8002a24:	466b      	mov	r3, sp
 8002a26:	0004      	movs	r4, r0
 8002a28:	80d9      	strh	r1, [r3, #6]
 8002a2a:	6fc0      	ldr	r0, [r0, #124]	; 0x7c
 8002a2c:	2101      	movs	r1, #1
 8002a2e:	1d9d      	adds	r5, r3, #6
 8002a30:	f000 fd74 	bl	800351c <osEventFlagsSet>
 8002a34:	2300      	movs	r3, #0
 8002a36:	3404      	adds	r4, #4
 8002a38:	0029      	movs	r1, r5
 8002a3a:	001a      	movs	r2, r3
 8002a3c:	6fe0      	ldr	r0, [r4, #124]	; 0x7c
 8002a3e:	f000 feff 	bl	8003840 <osMessageQueuePut>
 8002a42:	bd37      	pop	{r0, r1, r2, r4, r5, pc}

08002a44 <_ZN11SolarGators10Containers3MapItNS_7Drivers6ButtonELi10EE7AddNodeEPNS4_4NodeES6_>:
 8002a44:	b570      	push	{r4, r5, r6, lr}
 8002a46:	000d      	movs	r5, r1
 8002a48:	0014      	movs	r4, r2
 8002a4a:	2900      	cmp	r1, #0
 8002a4c:	d02a      	beq.n	8002aa4 <_ZN11SolarGators10Containers3MapItNS_7Drivers6ButtonELi10EE7AddNodeEPNS4_4NodeES6_+0x60>
 8002a4e:	8812      	ldrh	r2, [r2, #0]
 8002a50:	880b      	ldrh	r3, [r1, #0]
 8002a52:	429a      	cmp	r2, r3
 8002a54:	d223      	bcs.n	8002a9e <_ZN11SolarGators10Containers3MapItNS_7Drivers6ButtonELi10EE7AddNodeEPNS4_4NodeES6_+0x5a>
 8002a56:	0022      	movs	r2, r4
 8002a58:	6889      	ldr	r1, [r1, #8]
 8002a5a:	f7ff fff3 	bl	8002a44 <_ZN11SolarGators10Containers3MapItNS_7Drivers6ButtonELi10EE7AddNodeEPNS4_4NodeES6_>
 8002a5e:	60a8      	str	r0, [r5, #8]
 8002a60:	68a8      	ldr	r0, [r5, #8]
 8002a62:	1e01      	subs	r1, r0, #0
 8002a64:	d000      	beq.n	8002a68 <_ZN11SolarGators10Containers3MapItNS_7Drivers6ButtonELi10EE7AddNodeEPNS4_4NodeES6_+0x24>
 8002a66:	6901      	ldr	r1, [r0, #16]
 8002a68:	68eb      	ldr	r3, [r5, #12]
 8002a6a:	1e1a      	subs	r2, r3, #0
 8002a6c:	d000      	beq.n	8002a70 <_ZN11SolarGators10Containers3MapItNS_7Drivers6ButtonELi10EE7AddNodeEPNS4_4NodeES6_+0x2c>
 8002a6e:	691a      	ldr	r2, [r3, #16]
 8002a70:	428a      	cmp	r2, r1
 8002a72:	d200      	bcs.n	8002a76 <_ZN11SolarGators10Containers3MapItNS_7Drivers6ButtonELi10EE7AddNodeEPNS4_4NodeES6_+0x32>
 8002a74:	000a      	movs	r2, r1
 8002a76:	3201      	adds	r2, #1
 8002a78:	612a      	str	r2, [r5, #16]
 8002a7a:	1e02      	subs	r2, r0, #0
 8002a7c:	d000      	beq.n	8002a80 <_ZN11SolarGators10Containers3MapItNS_7Drivers6ButtonELi10EE7AddNodeEPNS4_4NodeES6_+0x3c>
 8002a7e:	6902      	ldr	r2, [r0, #16]
 8002a80:	1e19      	subs	r1, r3, #0
 8002a82:	d000      	beq.n	8002a86 <_ZN11SolarGators10Containers3MapItNS_7Drivers6ButtonELi10EE7AddNodeEPNS4_4NodeES6_+0x42>
 8002a84:	6919      	ldr	r1, [r3, #16]
 8002a86:	1a52      	subs	r2, r2, r1
 8002a88:	2a01      	cmp	r2, #1
 8002a8a:	dd13      	ble.n	8002ab4 <_ZN11SolarGators10Containers3MapItNS_7Drivers6ButtonELi10EE7AddNodeEPNS4_4NodeES6_+0x70>
 8002a8c:	8822      	ldrh	r2, [r4, #0]
 8002a8e:	8803      	ldrh	r3, [r0, #0]
 8002a90:	429a      	cmp	r2, r3
 8002a92:	d219      	bcs.n	8002ac8 <_ZN11SolarGators10Containers3MapItNS_7Drivers6ButtonELi10EE7AddNodeEPNS4_4NodeES6_+0x84>
 8002a94:	0028      	movs	r0, r5
 8002a96:	f7ff fe98 	bl	80027ca <_ZN11SolarGators10Containers3MapItNS_7Drivers6ButtonELi10EE11RightRotateEPNS4_4NodeE.isra.0>
 8002a9a:	0004      	movs	r4, r0
 8002a9c:	e002      	b.n	8002aa4 <_ZN11SolarGators10Containers3MapItNS_7Drivers6ButtonELi10EE7AddNodeEPNS4_4NodeES6_+0x60>
 8002a9e:	429a      	cmp	r2, r3
 8002aa0:	d802      	bhi.n	8002aa8 <_ZN11SolarGators10Containers3MapItNS_7Drivers6ButtonELi10EE7AddNodeEPNS4_4NodeES6_+0x64>
 8002aa2:	002c      	movs	r4, r5
 8002aa4:	0020      	movs	r0, r4
 8002aa6:	bd70      	pop	{r4, r5, r6, pc}
 8002aa8:	0022      	movs	r2, r4
 8002aaa:	68c9      	ldr	r1, [r1, #12]
 8002aac:	f7ff ffca 	bl	8002a44 <_ZN11SolarGators10Containers3MapItNS_7Drivers6ButtonELi10EE7AddNodeEPNS4_4NodeES6_>
 8002ab0:	60e8      	str	r0, [r5, #12]
 8002ab2:	e7d5      	b.n	8002a60 <_ZN11SolarGators10Containers3MapItNS_7Drivers6ButtonELi10EE7AddNodeEPNS4_4NodeES6_+0x1c>
 8002ab4:	3201      	adds	r2, #1
 8002ab6:	daf4      	bge.n	8002aa2 <_ZN11SolarGators10Containers3MapItNS_7Drivers6ButtonELi10EE7AddNodeEPNS4_4NodeES6_+0x5e>
 8002ab8:	8821      	ldrh	r1, [r4, #0]
 8002aba:	881a      	ldrh	r2, [r3, #0]
 8002abc:	4291      	cmp	r1, r2
 8002abe:	d909      	bls.n	8002ad4 <_ZN11SolarGators10Containers3MapItNS_7Drivers6ButtonELi10EE7AddNodeEPNS4_4NodeES6_+0x90>
 8002ac0:	0028      	movs	r0, r5
 8002ac2:	f7ff fe9e 	bl	8002802 <_ZN11SolarGators10Containers3MapItNS_7Drivers6ButtonELi10EE10LeftRotateEPNS4_4NodeE.isra.0>
 8002ac6:	e7e8      	b.n	8002a9a <_ZN11SolarGators10Containers3MapItNS_7Drivers6ButtonELi10EE7AddNodeEPNS4_4NodeES6_+0x56>
 8002ac8:	429a      	cmp	r2, r3
 8002aca:	d9ea      	bls.n	8002aa2 <_ZN11SolarGators10Containers3MapItNS_7Drivers6ButtonELi10EE7AddNodeEPNS4_4NodeES6_+0x5e>
 8002acc:	f7ff fe99 	bl	8002802 <_ZN11SolarGators10Containers3MapItNS_7Drivers6ButtonELi10EE10LeftRotateEPNS4_4NodeE.isra.0>
 8002ad0:	60a8      	str	r0, [r5, #8]
 8002ad2:	e7df      	b.n	8002a94 <_ZN11SolarGators10Containers3MapItNS_7Drivers6ButtonELi10EE7AddNodeEPNS4_4NodeES6_+0x50>
 8002ad4:	4291      	cmp	r1, r2
 8002ad6:	d2e4      	bcs.n	8002aa2 <_ZN11SolarGators10Containers3MapItNS_7Drivers6ButtonELi10EE7AddNodeEPNS4_4NodeES6_+0x5e>
 8002ad8:	0018      	movs	r0, r3
 8002ada:	f7ff fe76 	bl	80027ca <_ZN11SolarGators10Containers3MapItNS_7Drivers6ButtonELi10EE11RightRotateEPNS4_4NodeE.isra.0>
 8002ade:	60e8      	str	r0, [r5, #12]
 8002ae0:	e7ee      	b.n	8002ac0 <_ZN11SolarGators10Containers3MapItNS_7Drivers6ButtonELi10EE7AddNodeEPNS4_4NodeES6_+0x7c>
	...

08002ae4 <_ZN11SolarGators11DataModules18SteeringController9AddButtonEPNS_7Drivers6ButtonE>:
 8002ae4:	b5f7      	push	{r0, r1, r2, r4, r5, r6, r7, lr}
 8002ae6:	22fc      	movs	r2, #252	; 0xfc
 8002ae8:	0003      	movs	r3, r0
 8002aea:	0092      	lsls	r2, r2, #2
 8002aec:	1880      	adds	r0, r0, r2
 8002aee:	4a11      	ldr	r2, [pc, #68]	; (8002b34 <_ZN11SolarGators11DataModules18SteeringController9AddButtonEPNS_7Drivers6ButtonE+0x50>)
 8002af0:	000d      	movs	r5, r1
 8002af2:	189f      	adds	r7, r3, r2
 8002af4:	683a      	ldr	r2, [r7, #0]
 8002af6:	2a09      	cmp	r2, #9
 8002af8:	d81b      	bhi.n	8002b32 <_ZN11SolarGators11DataModules18SteeringController9AddButtonEPNS_7Drivers6ButtonE+0x4e>
 8002afa:	8b0e      	ldrh	r6, [r1, #24]
 8002afc:	2197      	movs	r1, #151	; 0x97
 8002afe:	00c9      	lsls	r1, r1, #3
 8002b00:	185c      	adds	r4, r3, r1
 8002b02:	6821      	ldr	r1, [r4, #0]
 8002b04:	9101      	str	r1, [sp, #4]
 8002b06:	1c51      	adds	r1, r2, #1
 8002b08:	6039      	str	r1, [r7, #0]
 8002b0a:	2714      	movs	r7, #20
 8002b0c:	437a      	muls	r2, r7
 8002b0e:	27fd      	movs	r7, #253	; 0xfd
 8002b10:	189b      	adds	r3, r3, r2
 8002b12:	00bf      	lsls	r7, r7, #2
 8002b14:	51dd      	str	r5, [r3, r7]
 8002b16:	25fc      	movs	r5, #252	; 0xfc
 8002b18:	21fe      	movs	r1, #254	; 0xfe
 8002b1a:	00ad      	lsls	r5, r5, #2
 8002b1c:	535e      	strh	r6, [r3, r5]
 8002b1e:	2500      	movs	r5, #0
 8002b20:	0089      	lsls	r1, r1, #2
 8002b22:	185b      	adds	r3, r3, r1
 8002b24:	1882      	adds	r2, r0, r2
 8002b26:	601d      	str	r5, [r3, #0]
 8002b28:	9901      	ldr	r1, [sp, #4]
 8002b2a:	60d5      	str	r5, [r2, #12]
 8002b2c:	f7ff ff8a 	bl	8002a44 <_ZN11SolarGators10Containers3MapItNS_7Drivers6ButtonELi10EE7AddNodeEPNS4_4NodeES6_>
 8002b30:	6020      	str	r0, [r4, #0]
 8002b32:	bdf7      	pop	{r0, r1, r2, r4, r5, r6, r7, pc}
 8002b34:	000004bc 	.word	0x000004bc

08002b38 <_Z12GetASCIICodePhh>:
 8002b38:	4b05      	ldr	r3, [pc, #20]	; (8002b50 <_Z12GetASCIICodePhh+0x18>)
 8002b3a:	0109      	lsls	r1, r1, #4
 8002b3c:	18c9      	adds	r1, r1, r3
 8002b3e:	4b05      	ldr	r3, [pc, #20]	; (8002b54 <_Z12GetASCIICodePhh+0x1c>)
 8002b40:	18c9      	adds	r1, r1, r3
 8002b42:	2300      	movs	r3, #0
 8002b44:	5cca      	ldrb	r2, [r1, r3]
 8002b46:	54c2      	strb	r2, [r0, r3]
 8002b48:	3301      	adds	r3, #1
 8002b4a:	2b10      	cmp	r3, #16
 8002b4c:	d1fa      	bne.n	8002b44 <_Z12GetASCIICodePhh+0xc>
 8002b4e:	4770      	bx	lr
 8002b50:	fffffe00 	.word	0xfffffe00
 8002b54:	08005ba0 	.word	0x08005ba0

08002b58 <_ZN11SolarGators7Drivers6ButtonC1EPKcP12GPIO_TypeDeftt13GPIO_PinState>:
 8002b58:	b570      	push	{r4, r5, r6, lr}
 8002b5a:	ac04      	add	r4, sp, #16
 8002b5c:	8826      	ldrh	r6, [r4, #0]
 8002b5e:	ac05      	add	r4, sp, #20
 8002b60:	7825      	ldrb	r5, [r4, #0]
 8002b62:	2400      	movs	r4, #0
 8002b64:	8303      	strh	r3, [r0, #24]
 8002b66:	1dc3      	adds	r3, r0, #7
 8002b68:	8486      	strh	r6, [r0, #36]	; 0x24
 8002b6a:	6084      	str	r4, [r0, #8]
 8002b6c:	6101      	str	r1, [r0, #16]
 8002b6e:	6142      	str	r2, [r0, #20]
 8002b70:	77dd      	strb	r5, [r3, #31]
 8002b72:	2332      	movs	r3, #50	; 0x32
 8002b74:	8503      	strh	r3, [r0, #40]	; 0x28
 8002b76:	0003      	movs	r3, r0
 8002b78:	f3bf 8f5b 	dmb	ish
 8002b7c:	332a      	adds	r3, #42	; 0x2a
 8002b7e:	701c      	strb	r4, [r3, #0]
 8002b80:	f3bf 8f5b 	dmb	ish
 8002b84:	bd70      	pop	{r4, r5, r6, pc}

08002b86 <_ZN11SolarGators7Drivers6ButtonD1Ev>:
 8002b86:	6883      	ldr	r3, [r0, #8]
 8002b88:	b510      	push	{r4, lr}
 8002b8a:	0004      	movs	r4, r0
 8002b8c:	2b00      	cmp	r3, #0
 8002b8e:	d002      	beq.n	8002b96 <_ZN11SolarGators7Drivers6ButtonD1Ev+0x10>
 8002b90:	2203      	movs	r2, #3
 8002b92:	0001      	movs	r1, r0
 8002b94:	4798      	blx	r3
 8002b96:	0020      	movs	r0, r4
 8002b98:	bd10      	pop	{r4, pc}

08002b9a <_ZN11SolarGators7Drivers6Button7ReadPinEv>:
 8002b9a:	b510      	push	{r4, lr}
 8002b9c:	8b01      	ldrh	r1, [r0, #24]
 8002b9e:	6940      	ldr	r0, [r0, #20]
 8002ba0:	f7fe fcca 	bl	8001538 <HAL_GPIO_ReadPin>
 8002ba4:	bd10      	pop	{r4, pc}

08002ba6 <_ZN11SolarGators7Drivers6Button11HandlePressEv>:
 8002ba6:	b570      	push	{r4, r5, r6, lr}
 8002ba8:	69c3      	ldr	r3, [r0, #28]
 8002baa:	8d05      	ldrh	r5, [r0, #40]	; 0x28
 8002bac:	0004      	movs	r4, r0
 8002bae:	18ed      	adds	r5, r5, r3
 8002bb0:	f000 fb72 	bl	8003298 <osKernelGetTickCount>
 8002bb4:	4285      	cmp	r5, r0
 8002bb6:	d21a      	bcs.n	8002bee <_ZN11SolarGators7Drivers6Button11HandlePressEv+0x48>
 8002bb8:	6a23      	ldr	r3, [r4, #32]
 8002bba:	3301      	adds	r3, #1
 8002bbc:	6223      	str	r3, [r4, #32]
 8002bbe:	f000 fb6b 	bl	8003298 <osKernelGetTickCount>
 8002bc2:	8ca3      	ldrh	r3, [r4, #36]	; 0x24
 8002bc4:	61e0      	str	r0, [r4, #28]
 8002bc6:	8d20      	ldrh	r0, [r4, #40]	; 0x28
 8002bc8:	18c0      	adds	r0, r0, r3
 8002bca:	f000 fbdf 	bl	800338c <osDelay>
 8002bce:	0020      	movs	r0, r4
 8002bd0:	f7ff ffe3 	bl	8002b9a <_ZN11SolarGators7Drivers6Button7ReadPinEv>
 8002bd4:	1de3      	adds	r3, r4, #7
 8002bd6:	7fdb      	ldrb	r3, [r3, #31]
 8002bd8:	4283      	cmp	r3, r0
 8002bda:	d108      	bne.n	8002bee <_ZN11SolarGators7Drivers6Button11HandlePressEv+0x48>
 8002bdc:	68a3      	ldr	r3, [r4, #8]
 8002bde:	2b00      	cmp	r3, #0
 8002be0:	d005      	beq.n	8002bee <_ZN11SolarGators7Drivers6Button11HandlePressEv+0x48>
 8002be2:	68e3      	ldr	r3, [r4, #12]
 8002be4:	0020      	movs	r0, r4
 8002be6:	4798      	blx	r3
 8002be8:	7ea3      	ldrb	r3, [r4, #26]
 8002bea:	3301      	adds	r3, #1
 8002bec:	76a3      	strb	r3, [r4, #26]
 8002bee:	bd70      	pop	{r4, r5, r6, pc}

08002bf0 <_ZN11SolarGators7Drivers9CANDriverD1Ev>:
 8002bf0:	b510      	push	{r4, lr}
 8002bf2:	0004      	movs	r4, r0
 8002bf4:	4b03      	ldr	r3, [pc, #12]	; (8002c04 <_ZN11SolarGators7Drivers9CANDriverD1Ev+0x14>)
 8002bf6:	3308      	adds	r3, #8
 8002bf8:	6003      	str	r3, [r0, #0]
 8002bfa:	6f80      	ldr	r0, [r0, #120]	; 0x78
 8002bfc:	f000 fc40 	bl	8003480 <osTimerDelete>
 8002c00:	0020      	movs	r0, r4
 8002c02:	bd10      	pop	{r4, pc}
 8002c04:	080061ac 	.word	0x080061ac

08002c08 <_ZN11SolarGators7Drivers9CANDriverD0Ev>:
 8002c08:	b510      	push	{r4, lr}
 8002c0a:	0004      	movs	r4, r0
 8002c0c:	f7ff fff0 	bl	8002bf0 <_ZN11SolarGators7Drivers9CANDriverD1Ev>
 8002c10:	21fa      	movs	r1, #250	; 0xfa
 8002c12:	0020      	movs	r0, r4
 8002c14:	0049      	lsls	r1, r1, #1
 8002c16:	f002 fcc5 	bl	80055a4 <_ZdlPvj>
 8002c1a:	0020      	movs	r0, r4
 8002c1c:	bd10      	pop	{r4, pc}
	...

08002c20 <_ZN11SolarGators7Drivers9CANDriverC1ER19__CAN_HandleTypeDefm>:
 8002c20:	b570      	push	{r4, r5, r6, lr}
 8002c22:	2500      	movs	r5, #0
 8002c24:	0004      	movs	r4, r0
 8002c26:	4b16      	ldr	r3, [pc, #88]	; (8002c80 <_ZN11SolarGators7Drivers9CANDriverC1ER19__CAN_HandleTypeDefm+0x60>)
 8002c28:	66c5      	str	r5, [r0, #108]	; 0x6c
 8002c2a:	3308      	adds	r3, #8
 8002c2c:	6685      	str	r5, [r0, #104]	; 0x68
 8002c2e:	6003      	str	r3, [r0, #0]
 8002c30:	6701      	str	r1, [r0, #112]	; 0x70
 8002c32:	6742      	str	r2, [r0, #116]	; 0x74
 8002c34:	0029      	movs	r1, r5
 8002c36:	2210      	movs	r2, #16
 8002c38:	307c      	adds	r0, #124	; 0x7c
 8002c3a:	f002 fd34 	bl	80056a6 <memset>
 8002c3e:	0020      	movs	r0, r4
 8002c40:	4b10      	ldr	r3, [pc, #64]	; (8002c84 <_ZN11SolarGators7Drivers9CANDriverC1ER19__CAN_HandleTypeDefm+0x64>)
 8002c42:	30d1      	adds	r0, #209	; 0xd1
 8002c44:	0029      	movs	r1, r5
 8002c46:	67e3      	str	r3, [r4, #124]	; 0x7c
 8002c48:	2224      	movs	r2, #36	; 0x24
 8002c4a:	30ff      	adds	r0, #255	; 0xff
 8002c4c:	f002 fd2b 	bl	80056a6 <memset>
 8002c50:	23e8      	movs	r3, #232	; 0xe8
 8002c52:	4a0d      	ldr	r2, [pc, #52]	; (8002c88 <_ZN11SolarGators7Drivers9CANDriverC1ER19__CAN_HandleTypeDefm+0x68>)
 8002c54:	005b      	lsls	r3, r3, #1
 8002c56:	50e2      	str	r2, [r4, r3]
 8002c58:	0022      	movs	r2, r4
 8002c5a:	3215      	adds	r2, #21
 8002c5c:	32ff      	adds	r2, #255	; 0xff
 8002c5e:	3308      	adds	r3, #8
 8002c60:	50e2      	str	r2, [r4, r3]
 8002c62:	22bc      	movs	r2, #188	; 0xbc
 8002c64:	3304      	adds	r3, #4
 8002c66:	50e2      	str	r2, [r4, r3]
 8002c68:	0022      	movs	r2, r4
 8002c6a:	3304      	adds	r3, #4
 8002c6c:	3294      	adds	r2, #148	; 0x94
 8002c6e:	50e2      	str	r2, [r4, r3]
 8002c70:	2280      	movs	r2, #128	; 0x80
 8002c72:	3304      	adds	r3, #4
 8002c74:	50e2      	str	r2, [r4, r3]
 8002c76:	3304      	adds	r3, #4
 8002c78:	3a78      	subs	r2, #120	; 0x78
 8002c7a:	0020      	movs	r0, r4
 8002c7c:	50e2      	str	r2, [r4, r3]
 8002c7e:	bd70      	pop	{r4, r5, r6, pc}
 8002c80:	080061ac 	.word	0x080061ac
 8002c84:	08006190 	.word	0x08006190
 8002c88:	0800619c 	.word	0x0800619c

08002c8c <_ZN11SolarGators7Drivers9CANDriver13HandleReceiveEv>:
 8002c8c:	b570      	push	{r4, r5, r6, lr}
 8002c8e:	2501      	movs	r5, #1
 8002c90:	0004      	movs	r4, r0
 8002c92:	b08e      	sub	sp, #56	; 0x38
 8002c94:	426d      	negs	r5, r5
 8002c96:	0020      	movs	r0, r4
 8002c98:	308c      	adds	r0, #140	; 0x8c
 8002c9a:	002b      	movs	r3, r5
 8002c9c:	2200      	movs	r2, #0
 8002c9e:	2101      	movs	r1, #1
 8002ca0:	6800      	ldr	r0, [r0, #0]
 8002ca2:	f000 fc6d 	bl	8003580 <osEventFlagsWait>
 8002ca6:	6f61      	ldr	r1, [r4, #116]	; 0x74
 8002ca8:	6f20      	ldr	r0, [r4, #112]	; 0x70
 8002caa:	f7fe fa31 	bl	8001110 <HAL_CAN_GetRxFifoFillLevel>
 8002cae:	2800      	cmp	r0, #0
 8002cb0:	d0f1      	beq.n	8002c96 <_ZN11SolarGators7Drivers9CANDriver13HandleReceiveEv+0xa>
 8002cb2:	ab03      	add	r3, sp, #12
 8002cb4:	6f61      	ldr	r1, [r4, #116]	; 0x74
 8002cb6:	6f20      	ldr	r0, [r4, #112]	; 0x70
 8002cb8:	aa07      	add	r2, sp, #28
 8002cba:	f7fe f9a6 	bl	800100a <HAL_CAN_GetRxMessage>
 8002cbe:	9b09      	ldr	r3, [sp, #36]	; 0x24
 8002cc0:	9301      	str	r3, [sp, #4]
 8002cc2:	2b00      	cmp	r3, #0
 8002cc4:	d109      	bne.n	8002cda <_ZN11SolarGators7Drivers9CANDriver13HandleReceiveEv+0x4e>
 8002cc6:	9b07      	ldr	r3, [sp, #28]
 8002cc8:	b29a      	uxth	r2, r3
 8002cca:	6ea3      	ldr	r3, [r4, #104]	; 0x68
 8002ccc:	2b00      	cmp	r3, #0
 8002cce:	d0ea      	beq.n	8002ca6 <_ZN11SolarGators7Drivers9CANDriver13HandleReceiveEv+0x1a>
 8002cd0:	8819      	ldrh	r1, [r3, #0]
 8002cd2:	428a      	cmp	r2, r1
 8002cd4:	d204      	bcs.n	8002ce0 <_ZN11SolarGators7Drivers9CANDriver13HandleReceiveEv+0x54>
 8002cd6:	689b      	ldr	r3, [r3, #8]
 8002cd8:	e7f8      	b.n	8002ccc <_ZN11SolarGators7Drivers9CANDriver13HandleReceiveEv+0x40>
 8002cda:	9a08      	ldr	r2, [sp, #32]
 8002cdc:	b292      	uxth	r2, r2
 8002cde:	e7f4      	b.n	8002cca <_ZN11SolarGators7Drivers9CANDriver13HandleReceiveEv+0x3e>
 8002ce0:	428a      	cmp	r2, r1
 8002ce2:	d901      	bls.n	8002ce8 <_ZN11SolarGators7Drivers9CANDriver13HandleReceiveEv+0x5c>
 8002ce4:	68db      	ldr	r3, [r3, #12]
 8002ce6:	e7f1      	b.n	8002ccc <_ZN11SolarGators7Drivers9CANDriver13HandleReceiveEv+0x40>
 8002ce8:	685e      	ldr	r6, [r3, #4]
 8002cea:	2e00      	cmp	r6, #0
 8002cec:	d0db      	beq.n	8002ca6 <_ZN11SolarGators7Drivers9CANDriver13HandleReceiveEv+0x1a>
 8002cee:	0029      	movs	r1, r5
 8002cf0:	68f0      	ldr	r0, [r6, #12]
 8002cf2:	f000 fcd1 	bl	8003698 <osMutexAcquire>
 8002cf6:	6833      	ldr	r3, [r6, #0]
 8002cf8:	0030      	movs	r0, r6
 8002cfa:	68db      	ldr	r3, [r3, #12]
 8002cfc:	a903      	add	r1, sp, #12
 8002cfe:	4798      	blx	r3
 8002d00:	68f0      	ldr	r0, [r6, #12]
 8002d02:	f000 fcf5 	bl	80036f0 <osMutexRelease>
 8002d06:	e7ce      	b.n	8002ca6 <_ZN11SolarGators7Drivers9CANDriver13HandleReceiveEv+0x1a>

08002d08 <_ZN5HY28bD1Ev>:
 8002d08:	4770      	bx	lr

08002d0a <_ZN5HY28bD0Ev>:
 8002d0a:	b510      	push	{r4, lr}
 8002d0c:	0004      	movs	r4, r0
 8002d0e:	2108      	movs	r1, #8
 8002d10:	f002 fc48 	bl	80055a4 <_ZdlPvj>
 8002d14:	0020      	movs	r0, r4
 8002d16:	bd10      	pop	{r4, pc}

08002d18 <_ZN5HY28b15SPISendRecvByteEh.isra.0>:
 8002d18:	b57f      	push	{r0, r1, r2, r3, r4, r5, r6, lr}
 8002d1a:	000b      	movs	r3, r1
 8002d1c:	210f      	movs	r1, #15
 8002d1e:	4469      	add	r1, sp
 8002d20:	700b      	strb	r3, [r1, #0]
 8002d22:	466a      	mov	r2, sp
 8002d24:	2300      	movs	r3, #0
 8002d26:	75d3      	strb	r3, [r2, #23]
 8002d28:	2217      	movs	r2, #23
 8002d2a:	3b01      	subs	r3, #1
 8002d2c:	9300      	str	r3, [sp, #0]
 8002d2e:	446a      	add	r2, sp
 8002d30:	3302      	adds	r3, #2
 8002d32:	f7ff f9f1 	bl	8002118 <HAL_SPI_TransmitReceive>
 8002d36:	466b      	mov	r3, sp
 8002d38:	7dd8      	ldrb	r0, [r3, #23]
 8002d3a:	b007      	add	sp, #28
 8002d3c:	bd00      	pop	{pc}
	...

08002d40 <_ZN5HY28b10WriteIndexEt>:
 8002d40:	b570      	push	{r4, r5, r6, lr}
 8002d42:	0004      	movs	r4, r0
 8002d44:	000d      	movs	r5, r1
 8002d46:	4e0c      	ldr	r6, [pc, #48]	; (8002d78 <_ZN5HY28b10WriteIndexEt+0x38>)
 8002d48:	2200      	movs	r2, #0
 8002d4a:	0030      	movs	r0, r6
 8002d4c:	2104      	movs	r1, #4
 8002d4e:	f7fe fbf9 	bl	8001544 <HAL_GPIO_WritePin>
 8002d52:	2170      	movs	r1, #112	; 0x70
 8002d54:	6860      	ldr	r0, [r4, #4]
 8002d56:	f7ff ffdf 	bl	8002d18 <_ZN5HY28b15SPISendRecvByteEh.isra.0>
 8002d5a:	2100      	movs	r1, #0
 8002d5c:	6860      	ldr	r0, [r4, #4]
 8002d5e:	f7ff ffdb 	bl	8002d18 <_ZN5HY28b15SPISendRecvByteEh.isra.0>
 8002d62:	b2e9      	uxtb	r1, r5
 8002d64:	6860      	ldr	r0, [r4, #4]
 8002d66:	f7ff ffd7 	bl	8002d18 <_ZN5HY28b15SPISendRecvByteEh.isra.0>
 8002d6a:	0030      	movs	r0, r6
 8002d6c:	2201      	movs	r2, #1
 8002d6e:	2104      	movs	r1, #4
 8002d70:	f7fe fbe8 	bl	8001544 <HAL_GPIO_WritePin>
 8002d74:	bd70      	pop	{r4, r5, r6, pc}
 8002d76:	46c0      	nop			; (mov r8, r8)
 8002d78:	48000c00 	.word	0x48000c00

08002d7c <_ZN5HY28b8WriteRegEtt>:
 8002d7c:	b570      	push	{r4, r5, r6, lr}
 8002d7e:	0004      	movs	r4, r0
 8002d80:	0015      	movs	r5, r2
 8002d82:	4e0d      	ldr	r6, [pc, #52]	; (8002db8 <_ZN5HY28b8WriteRegEtt+0x3c>)
 8002d84:	f7ff ffdc 	bl	8002d40 <_ZN5HY28b10WriteIndexEt>
 8002d88:	2200      	movs	r2, #0
 8002d8a:	0030      	movs	r0, r6
 8002d8c:	2104      	movs	r1, #4
 8002d8e:	f7fe fbd9 	bl	8001544 <HAL_GPIO_WritePin>
 8002d92:	2172      	movs	r1, #114	; 0x72
 8002d94:	6860      	ldr	r0, [r4, #4]
 8002d96:	f7ff ffbf 	bl	8002d18 <_ZN5HY28b15SPISendRecvByteEh.isra.0>
 8002d9a:	0a29      	lsrs	r1, r5, #8
 8002d9c:	6860      	ldr	r0, [r4, #4]
 8002d9e:	f7ff ffbb 	bl	8002d18 <_ZN5HY28b15SPISendRecvByteEh.isra.0>
 8002da2:	b2e9      	uxtb	r1, r5
 8002da4:	6860      	ldr	r0, [r4, #4]
 8002da6:	f7ff ffb7 	bl	8002d18 <_ZN5HY28b15SPISendRecvByteEh.isra.0>
 8002daa:	0030      	movs	r0, r6
 8002dac:	2201      	movs	r2, #1
 8002dae:	2104      	movs	r1, #4
 8002db0:	f7fe fbc8 	bl	8001544 <HAL_GPIO_WritePin>
 8002db4:	bd70      	pop	{r4, r5, r6, pc}
 8002db6:	46c0      	nop			; (mov r8, r8)
 8002db8:	48000c00 	.word	0x48000c00

08002dbc <_ZN5HY28b8SetPointEttt>:
 8002dbc:	b570      	push	{r4, r5, r6, lr}
 8002dbe:	0004      	movs	r4, r0
 8002dc0:	000e      	movs	r6, r1
 8002dc2:	001d      	movs	r5, r3
 8002dc4:	2120      	movs	r1, #32
 8002dc6:	f7ff ffd9 	bl	8002d7c <_ZN5HY28b8WriteRegEtt>
 8002dca:	0032      	movs	r2, r6
 8002dcc:	0020      	movs	r0, r4
 8002dce:	2121      	movs	r1, #33	; 0x21
 8002dd0:	f7ff ffd4 	bl	8002d7c <_ZN5HY28b8WriteRegEtt>
 8002dd4:	002a      	movs	r2, r5
 8002dd6:	2122      	movs	r1, #34	; 0x22
 8002dd8:	0020      	movs	r0, r4
 8002dda:	f7ff ffcf 	bl	8002d7c <_ZN5HY28b8WriteRegEtt>
 8002dde:	bd70      	pop	{r4, r5, r6, pc}

08002de0 <_ZN5HY28b8DrawTextEttPht>:
 8002de0:	b5f0      	push	{r4, r5, r6, r7, lr}
 8002de2:	0006      	movs	r6, r0
 8002de4:	b089      	sub	sp, #36	; 0x24
 8002de6:	001f      	movs	r7, r3
 8002de8:	ab0e      	add	r3, sp, #56	; 0x38
 8002dea:	881b      	ldrh	r3, [r3, #0]
 8002dec:	000c      	movs	r4, r1
 8002dee:	0015      	movs	r5, r2
 8002df0:	2150      	movs	r1, #80	; 0x50
 8002df2:	2200      	movs	r2, #0
 8002df4:	9303      	str	r3, [sp, #12]
 8002df6:	f7ff ffc1 	bl	8002d7c <_ZN5HY28b8WriteRegEtt>
 8002dfa:	22ef      	movs	r2, #239	; 0xef
 8002dfc:	2151      	movs	r1, #81	; 0x51
 8002dfe:	0030      	movs	r0, r6
 8002e00:	f7ff ffbc 	bl	8002d7c <_ZN5HY28b8WriteRegEtt>
 8002e04:	2200      	movs	r2, #0
 8002e06:	2152      	movs	r1, #82	; 0x52
 8002e08:	0030      	movs	r0, r6
 8002e0a:	f7ff ffb7 	bl	8002d7c <_ZN5HY28b8WriteRegEtt>
 8002e0e:	2240      	movs	r2, #64	; 0x40
 8002e10:	2153      	movs	r1, #83	; 0x53
 8002e12:	0030      	movs	r0, r6
 8002e14:	32ff      	adds	r2, #255	; 0xff
 8002e16:	f7ff ffb1 	bl	8002d7c <_ZN5HY28b8WriteRegEtt>
 8002e1a:	9701      	str	r7, [sp, #4]
 8002e1c:	9b01      	ldr	r3, [sp, #4]
 8002e1e:	a804      	add	r0, sp, #16
 8002e20:	7819      	ldrb	r1, [r3, #0]
 8002e22:	f7ff fe89 	bl	8002b38 <_Z12GetASCIICodePhh>
 8002e26:	2300      	movs	r3, #0
 8002e28:	9300      	str	r3, [sp, #0]
 8002e2a:	2700      	movs	r7, #0
 8002e2c:	9a00      	ldr	r2, [sp, #0]
 8002e2e:	ab04      	add	r3, sp, #16
 8002e30:	5cd3      	ldrb	r3, [r2, r3]
 8002e32:	9302      	str	r3, [sp, #8]
 8002e34:	2307      	movs	r3, #7
 8002e36:	9a02      	ldr	r2, [sp, #8]
 8002e38:	1bdb      	subs	r3, r3, r7
 8002e3a:	411a      	asrs	r2, r3
 8002e3c:	0013      	movs	r3, r2
 8002e3e:	2201      	movs	r2, #1
 8002e40:	4213      	tst	r3, r2
 8002e42:	d008      	beq.n	8002e56 <_ZN5HY28b8DrawTextEttPht+0x76>
 8002e44:	9b00      	ldr	r3, [sp, #0]
 8002e46:	19e1      	adds	r1, r4, r7
 8002e48:	18ea      	adds	r2, r5, r3
 8002e4a:	0030      	movs	r0, r6
 8002e4c:	9b03      	ldr	r3, [sp, #12]
 8002e4e:	b292      	uxth	r2, r2
 8002e50:	b289      	uxth	r1, r1
 8002e52:	f7ff ffb3 	bl	8002dbc <_ZN5HY28b8SetPointEttt>
 8002e56:	3701      	adds	r7, #1
 8002e58:	2f08      	cmp	r7, #8
 8002e5a:	d1eb      	bne.n	8002e34 <_ZN5HY28b8DrawTextEttPht+0x54>
 8002e5c:	9b00      	ldr	r3, [sp, #0]
 8002e5e:	3301      	adds	r3, #1
 8002e60:	9300      	str	r3, [sp, #0]
 8002e62:	2b10      	cmp	r3, #16
 8002e64:	d1e1      	bne.n	8002e2a <_ZN5HY28b8DrawTextEttPht+0x4a>
 8002e66:	3329      	adds	r3, #41	; 0x29
 8002e68:	33ff      	adds	r3, #255	; 0xff
 8002e6a:	429c      	cmp	r4, r3
 8002e6c:	d209      	bcs.n	8002e82 <_ZN5HY28b8DrawTextEttPht+0xa2>
 8002e6e:	3408      	adds	r4, #8
 8002e70:	b2a4      	uxth	r4, r4
 8002e72:	9b01      	ldr	r3, [sp, #4]
 8002e74:	3301      	adds	r3, #1
 8002e76:	9301      	str	r3, [sp, #4]
 8002e78:	781b      	ldrb	r3, [r3, #0]
 8002e7a:	2b00      	cmp	r3, #0
 8002e7c:	d1ce      	bne.n	8002e1c <_ZN5HY28b8DrawTextEttPht+0x3c>
 8002e7e:	b009      	add	sp, #36	; 0x24
 8002e80:	bdf0      	pop	{r4, r5, r6, r7, pc}
 8002e82:	2398      	movs	r3, #152	; 0x98
 8002e84:	005b      	lsls	r3, r3, #1
 8002e86:	429d      	cmp	r5, r3
 8002e88:	d203      	bcs.n	8002e92 <_ZN5HY28b8DrawTextEttPht+0xb2>
 8002e8a:	3510      	adds	r5, #16
 8002e8c:	2400      	movs	r4, #0
 8002e8e:	b2ad      	uxth	r5, r5
 8002e90:	e7ef      	b.n	8002e72 <_ZN5HY28b8DrawTextEttPht+0x92>
 8002e92:	2500      	movs	r5, #0
 8002e94:	002c      	movs	r4, r5
 8002e96:	e7ec      	b.n	8002e72 <_ZN5HY28b8DrawTextEttPht+0x92>

08002e98 <_ZN5HY28bC1EP19__SPI_HandleTypeDefb>:
 8002e98:	4bbb      	ldr	r3, [pc, #748]	; (8003188 <_ZN5HY28bC1EP19__SPI_HandleTypeDefb+0x2f0>)
 8002e9a:	b570      	push	{r4, r5, r6, lr}
 8002e9c:	3308      	adds	r3, #8
 8002e9e:	0004      	movs	r4, r0
 8002ea0:	6003      	str	r3, [r0, #0]
 8002ea2:	6041      	str	r1, [r0, #4]
 8002ea4:	2201      	movs	r2, #1
 8002ea6:	2104      	movs	r1, #4
 8002ea8:	48b8      	ldr	r0, [pc, #736]	; (800318c <_ZN5HY28bC1EP19__SPI_HandleTypeDefb+0x2f4>)
 8002eaa:	f7fe fb4b 	bl	8001544 <HAL_GPIO_WritePin>
 8002eae:	2201      	movs	r2, #1
 8002eb0:	2140      	movs	r1, #64	; 0x40
 8002eb2:	48b7      	ldr	r0, [pc, #732]	; (8003190 <_ZN5HY28bC1EP19__SPI_HandleTypeDefb+0x2f8>)
 8002eb4:	f7fe fb46 	bl	8001544 <HAL_GPIO_WritePin>
 8002eb8:	2180      	movs	r1, #128	; 0x80
 8002eba:	2201      	movs	r2, #1
 8002ebc:	01c9      	lsls	r1, r1, #7
 8002ebe:	48b4      	ldr	r0, [pc, #720]	; (8003190 <_ZN5HY28bC1EP19__SPI_HandleTypeDefb+0x2f8>)
 8002ec0:	f7fe fb40 	bl	8001544 <HAL_GPIO_WritePin>
 8002ec4:	2064      	movs	r0, #100	; 0x64
 8002ec6:	f000 fa61 	bl	800338c <osDelay>
 8002eca:	2180      	movs	r1, #128	; 0x80
 8002ecc:	2200      	movs	r2, #0
 8002ece:	01c9      	lsls	r1, r1, #7
 8002ed0:	48af      	ldr	r0, [pc, #700]	; (8003190 <_ZN5HY28bC1EP19__SPI_HandleTypeDefb+0x2f8>)
 8002ed2:	f7fe fb37 	bl	8001544 <HAL_GPIO_WritePin>
 8002ed6:	2064      	movs	r0, #100	; 0x64
 8002ed8:	f000 fa58 	bl	800338c <osDelay>
 8002edc:	2180      	movs	r1, #128	; 0x80
 8002ede:	2201      	movs	r2, #1
 8002ee0:	48ab      	ldr	r0, [pc, #684]	; (8003190 <_ZN5HY28bC1EP19__SPI_HandleTypeDefb+0x2f8>)
 8002ee2:	01c9      	lsls	r1, r1, #7
 8002ee4:	f7fe fb2e 	bl	8001544 <HAL_GPIO_WritePin>
 8002ee8:	21e5      	movs	r1, #229	; 0xe5
 8002eea:	0020      	movs	r0, r4
 8002eec:	4aa9      	ldr	r2, [pc, #676]	; (8003194 <_ZN5HY28bC1EP19__SPI_HandleTypeDefb+0x2fc>)
 8002eee:	f7ff ff45 	bl	8002d7c <_ZN5HY28b8WriteRegEtt>
 8002ef2:	2280      	movs	r2, #128	; 0x80
 8002ef4:	2101      	movs	r1, #1
 8002ef6:	0020      	movs	r0, r4
 8002ef8:	0052      	lsls	r2, r2, #1
 8002efa:	f7ff ff3f 	bl	8002d7c <_ZN5HY28b8WriteRegEtt>
 8002efe:	22e0      	movs	r2, #224	; 0xe0
 8002f00:	2102      	movs	r1, #2
 8002f02:	0020      	movs	r0, r4
 8002f04:	00d2      	lsls	r2, r2, #3
 8002f06:	f7ff ff39 	bl	8002d7c <_ZN5HY28b8WriteRegEtt>
 8002f0a:	2103      	movs	r1, #3
 8002f0c:	0020      	movs	r0, r4
 8002f0e:	4aa2      	ldr	r2, [pc, #648]	; (8003198 <_ZN5HY28bC1EP19__SPI_HandleTypeDefb+0x300>)
 8002f10:	f7ff ff34 	bl	8002d7c <_ZN5HY28b8WriteRegEtt>
 8002f14:	2200      	movs	r2, #0
 8002f16:	2104      	movs	r1, #4
 8002f18:	0020      	movs	r0, r4
 8002f1a:	f7ff ff2f 	bl	8002d7c <_ZN5HY28b8WriteRegEtt>
 8002f1e:	2108      	movs	r1, #8
 8002f20:	0020      	movs	r0, r4
 8002f22:	4a9e      	ldr	r2, [pc, #632]	; (800319c <_ZN5HY28bC1EP19__SPI_HandleTypeDefb+0x304>)
 8002f24:	f7ff ff2a 	bl	8002d7c <_ZN5HY28b8WriteRegEtt>
 8002f28:	2200      	movs	r2, #0
 8002f2a:	2109      	movs	r1, #9
 8002f2c:	0020      	movs	r0, r4
 8002f2e:	f7ff ff25 	bl	8002d7c <_ZN5HY28b8WriteRegEtt>
 8002f32:	2200      	movs	r2, #0
 8002f34:	210a      	movs	r1, #10
 8002f36:	0020      	movs	r0, r4
 8002f38:	f7ff ff20 	bl	8002d7c <_ZN5HY28b8WriteRegEtt>
 8002f3c:	2200      	movs	r2, #0
 8002f3e:	210c      	movs	r1, #12
 8002f40:	0020      	movs	r0, r4
 8002f42:	f7ff ff1b 	bl	8002d7c <_ZN5HY28b8WriteRegEtt>
 8002f46:	2200      	movs	r2, #0
 8002f48:	210d      	movs	r1, #13
 8002f4a:	0020      	movs	r0, r4
 8002f4c:	f7ff ff16 	bl	8002d7c <_ZN5HY28b8WriteRegEtt>
 8002f50:	2200      	movs	r2, #0
 8002f52:	210f      	movs	r1, #15
 8002f54:	0020      	movs	r0, r4
 8002f56:	f7ff ff11 	bl	8002d7c <_ZN5HY28b8WriteRegEtt>
 8002f5a:	2200      	movs	r2, #0
 8002f5c:	2110      	movs	r1, #16
 8002f5e:	0020      	movs	r0, r4
 8002f60:	f7ff ff0c 	bl	8002d7c <_ZN5HY28b8WriteRegEtt>
 8002f64:	2207      	movs	r2, #7
 8002f66:	2111      	movs	r1, #17
 8002f68:	0020      	movs	r0, r4
 8002f6a:	f7ff ff07 	bl	8002d7c <_ZN5HY28b8WriteRegEtt>
 8002f6e:	2200      	movs	r2, #0
 8002f70:	2112      	movs	r1, #18
 8002f72:	0020      	movs	r0, r4
 8002f74:	f7ff ff02 	bl	8002d7c <_ZN5HY28b8WriteRegEtt>
 8002f78:	2200      	movs	r2, #0
 8002f7a:	2113      	movs	r1, #19
 8002f7c:	0020      	movs	r0, r4
 8002f7e:	f7ff fefd 	bl	8002d7c <_ZN5HY28b8WriteRegEtt>
 8002f82:	2201      	movs	r2, #1
 8002f84:	2107      	movs	r1, #7
 8002f86:	0020      	movs	r0, r4
 8002f88:	f7ff fef8 	bl	8002d7c <_ZN5HY28b8WriteRegEtt>
 8002f8c:	20c8      	movs	r0, #200	; 0xc8
 8002f8e:	f000 f9fd 	bl	800338c <osDelay>
 8002f92:	2110      	movs	r1, #16
 8002f94:	0020      	movs	r0, r4
 8002f96:	4a82      	ldr	r2, [pc, #520]	; (80031a0 <_ZN5HY28bC1EP19__SPI_HandleTypeDefb+0x308>)
 8002f98:	f7ff fef0 	bl	8002d7c <_ZN5HY28b8WriteRegEtt>
 8002f9c:	2111      	movs	r1, #17
 8002f9e:	4a81      	ldr	r2, [pc, #516]	; (80031a4 <_ZN5HY28bC1EP19__SPI_HandleTypeDefb+0x30c>)
 8002fa0:	0020      	movs	r0, r4
 8002fa2:	f7ff feeb 	bl	8002d7c <_ZN5HY28b8WriteRegEtt>
 8002fa6:	2032      	movs	r0, #50	; 0x32
 8002fa8:	f000 f9f0 	bl	800338c <osDelay>
 8002fac:	221f      	movs	r2, #31
 8002fae:	2112      	movs	r1, #18
 8002fb0:	0020      	movs	r0, r4
 8002fb2:	f7ff fee3 	bl	8002d7c <_ZN5HY28b8WriteRegEtt>
 8002fb6:	2032      	movs	r0, #50	; 0x32
 8002fb8:	f000 f9e8 	bl	800338c <osDelay>
 8002fbc:	22a8      	movs	r2, #168	; 0xa8
 8002fbe:	2113      	movs	r1, #19
 8002fc0:	0020      	movs	r0, r4
 8002fc2:	0152      	lsls	r2, r2, #5
 8002fc4:	f7ff feda 	bl	8002d7c <_ZN5HY28b8WriteRegEtt>
 8002fc8:	2227      	movs	r2, #39	; 0x27
 8002fca:	2129      	movs	r1, #41	; 0x29
 8002fcc:	0020      	movs	r0, r4
 8002fce:	f7ff fed5 	bl	8002d7c <_ZN5HY28b8WriteRegEtt>
 8002fd2:	220d      	movs	r2, #13
 8002fd4:	212b      	movs	r1, #43	; 0x2b
 8002fd6:	0020      	movs	r0, r4
 8002fd8:	f7ff fed0 	bl	8002d7c <_ZN5HY28b8WriteRegEtt>
 8002fdc:	2032      	movs	r0, #50	; 0x32
 8002fde:	f000 f9d5 	bl	800338c <osDelay>
 8002fe2:	2200      	movs	r2, #0
 8002fe4:	2120      	movs	r1, #32
 8002fe6:	0020      	movs	r0, r4
 8002fe8:	f7ff fec8 	bl	8002d7c <_ZN5HY28b8WriteRegEtt>
 8002fec:	2200      	movs	r2, #0
 8002fee:	2121      	movs	r1, #33	; 0x21
 8002ff0:	0020      	movs	r0, r4
 8002ff2:	f7ff fec3 	bl	8002d7c <_ZN5HY28b8WriteRegEtt>
 8002ff6:	2200      	movs	r2, #0
 8002ff8:	2130      	movs	r1, #48	; 0x30
 8002ffa:	0020      	movs	r0, r4
 8002ffc:	f7ff febe 	bl	8002d7c <_ZN5HY28b8WriteRegEtt>
 8003000:	2131      	movs	r1, #49	; 0x31
 8003002:	0020      	movs	r0, r4
 8003004:	4a68      	ldr	r2, [pc, #416]	; (80031a8 <_ZN5HY28bC1EP19__SPI_HandleTypeDefb+0x310>)
 8003006:	f7ff feb9 	bl	8002d7c <_ZN5HY28b8WriteRegEtt>
 800300a:	2132      	movs	r1, #50	; 0x32
 800300c:	0020      	movs	r0, r4
 800300e:	4a67      	ldr	r2, [pc, #412]	; (80031ac <_ZN5HY28bC1EP19__SPI_HandleTypeDefb+0x314>)
 8003010:	f7ff feb4 	bl	8002d7c <_ZN5HY28b8WriteRegEtt>
 8003014:	2280      	movs	r2, #128	; 0x80
 8003016:	2135      	movs	r1, #53	; 0x35
 8003018:	0020      	movs	r0, r4
 800301a:	0092      	lsls	r2, r2, #2
 800301c:	f7ff feae 	bl	8002d7c <_ZN5HY28b8WriteRegEtt>
 8003020:	2208      	movs	r2, #8
 8003022:	2136      	movs	r1, #54	; 0x36
 8003024:	0020      	movs	r0, r4
 8003026:	f7ff fea9 	bl	8002d7c <_ZN5HY28b8WriteRegEtt>
 800302a:	2204      	movs	r2, #4
 800302c:	2137      	movs	r1, #55	; 0x37
 800302e:	0020      	movs	r0, r4
 8003030:	f7ff fea4 	bl	8002d7c <_ZN5HY28b8WriteRegEtt>
 8003034:	2200      	movs	r2, #0
 8003036:	2138      	movs	r1, #56	; 0x38
 8003038:	0020      	movs	r0, r4
 800303a:	f7ff fe9f 	bl	8002d7c <_ZN5HY28b8WriteRegEtt>
 800303e:	2139      	movs	r1, #57	; 0x39
 8003040:	0020      	movs	r0, r4
 8003042:	4a59      	ldr	r2, [pc, #356]	; (80031a8 <_ZN5HY28bC1EP19__SPI_HandleTypeDefb+0x310>)
 8003044:	f7ff fe9a 	bl	8002d7c <_ZN5HY28b8WriteRegEtt>
 8003048:	2202      	movs	r2, #2
 800304a:	213c      	movs	r1, #60	; 0x3c
 800304c:	0020      	movs	r0, r4
 800304e:	f7ff fe95 	bl	8002d7c <_ZN5HY28b8WriteRegEtt>
 8003052:	213d      	movs	r1, #61	; 0x3d
 8003054:	0020      	movs	r0, r4
 8003056:	4a56      	ldr	r2, [pc, #344]	; (80031b0 <_ZN5HY28bC1EP19__SPI_HandleTypeDefb+0x318>)
 8003058:	f7ff fe90 	bl	8002d7c <_ZN5HY28b8WriteRegEtt>
 800305c:	2200      	movs	r2, #0
 800305e:	2150      	movs	r1, #80	; 0x50
 8003060:	0020      	movs	r0, r4
 8003062:	f7ff fe8b 	bl	8002d7c <_ZN5HY28b8WriteRegEtt>
 8003066:	22ef      	movs	r2, #239	; 0xef
 8003068:	2151      	movs	r1, #81	; 0x51
 800306a:	0020      	movs	r0, r4
 800306c:	f7ff fe86 	bl	8002d7c <_ZN5HY28b8WriteRegEtt>
 8003070:	2200      	movs	r2, #0
 8003072:	2152      	movs	r1, #82	; 0x52
 8003074:	0020      	movs	r0, r4
 8003076:	f7ff fe81 	bl	8002d7c <_ZN5HY28b8WriteRegEtt>
 800307a:	2240      	movs	r2, #64	; 0x40
 800307c:	2153      	movs	r1, #83	; 0x53
 800307e:	0020      	movs	r0, r4
 8003080:	32ff      	adds	r2, #255	; 0xff
 8003082:	f7ff fe7b 	bl	8002d7c <_ZN5HY28b8WriteRegEtt>
 8003086:	229c      	movs	r2, #156	; 0x9c
 8003088:	2160      	movs	r1, #96	; 0x60
 800308a:	0020      	movs	r0, r4
 800308c:	0192      	lsls	r2, r2, #6
 800308e:	f7ff fe75 	bl	8002d7c <_ZN5HY28b8WriteRegEtt>
 8003092:	2201      	movs	r2, #1
 8003094:	2161      	movs	r1, #97	; 0x61
 8003096:	0020      	movs	r0, r4
 8003098:	f7ff fe70 	bl	8002d7c <_ZN5HY28b8WriteRegEtt>
 800309c:	2200      	movs	r2, #0
 800309e:	216a      	movs	r1, #106	; 0x6a
 80030a0:	0020      	movs	r0, r4
 80030a2:	f7ff fe6b 	bl	8002d7c <_ZN5HY28b8WriteRegEtt>
 80030a6:	2200      	movs	r2, #0
 80030a8:	2180      	movs	r1, #128	; 0x80
 80030aa:	0020      	movs	r0, r4
 80030ac:	f7ff fe66 	bl	8002d7c <_ZN5HY28b8WriteRegEtt>
 80030b0:	2200      	movs	r2, #0
 80030b2:	2181      	movs	r1, #129	; 0x81
 80030b4:	0020      	movs	r0, r4
 80030b6:	f7ff fe61 	bl	8002d7c <_ZN5HY28b8WriteRegEtt>
 80030ba:	2200      	movs	r2, #0
 80030bc:	2181      	movs	r1, #129	; 0x81
 80030be:	0020      	movs	r0, r4
 80030c0:	f7ff fe5c 	bl	8002d7c <_ZN5HY28b8WriteRegEtt>
 80030c4:	2200      	movs	r2, #0
 80030c6:	2183      	movs	r1, #131	; 0x83
 80030c8:	0020      	movs	r0, r4
 80030ca:	f7ff fe57 	bl	8002d7c <_ZN5HY28b8WriteRegEtt>
 80030ce:	2200      	movs	r2, #0
 80030d0:	2184      	movs	r1, #132	; 0x84
 80030d2:	0020      	movs	r0, r4
 80030d4:	f7ff fe52 	bl	8002d7c <_ZN5HY28b8WriteRegEtt>
 80030d8:	2200      	movs	r2, #0
 80030da:	2185      	movs	r1, #133	; 0x85
 80030dc:	0020      	movs	r0, r4
 80030de:	f7ff fe4d 	bl	8002d7c <_ZN5HY28b8WriteRegEtt>
 80030e2:	2210      	movs	r2, #16
 80030e4:	2190      	movs	r1, #144	; 0x90
 80030e6:	0020      	movs	r0, r4
 80030e8:	f7ff fe48 	bl	8002d7c <_ZN5HY28b8WriteRegEtt>
 80030ec:	22c0      	movs	r2, #192	; 0xc0
 80030ee:	2192      	movs	r1, #146	; 0x92
 80030f0:	0020      	movs	r0, r4
 80030f2:	00d2      	lsls	r2, r2, #3
 80030f4:	f7ff fe42 	bl	8002d7c <_ZN5HY28b8WriteRegEtt>
 80030f8:	2234      	movs	r2, #52	; 0x34
 80030fa:	2107      	movs	r1, #7
 80030fc:	32ff      	adds	r2, #255	; 0xff
 80030fe:	0020      	movs	r0, r4
 8003100:	f7ff fe3c 	bl	8002d7c <_ZN5HY28b8WriteRegEtt>
 8003104:	2032      	movs	r0, #50	; 0x32
 8003106:	f000 f941 	bl	800338c <osDelay>
 800310a:	2200      	movs	r2, #0
 800310c:	2150      	movs	r1, #80	; 0x50
 800310e:	0020      	movs	r0, r4
 8003110:	f7ff fe34 	bl	8002d7c <_ZN5HY28b8WriteRegEtt>
 8003114:	22f0      	movs	r2, #240	; 0xf0
 8003116:	2151      	movs	r1, #81	; 0x51
 8003118:	0020      	movs	r0, r4
 800311a:	f7ff fe2f 	bl	8002d7c <_ZN5HY28b8WriteRegEtt>
 800311e:	2200      	movs	r2, #0
 8003120:	2152      	movs	r1, #82	; 0x52
 8003122:	0020      	movs	r0, r4
 8003124:	f7ff fe2a 	bl	8002d7c <_ZN5HY28b8WriteRegEtt>
 8003128:	22a0      	movs	r2, #160	; 0xa0
 800312a:	2153      	movs	r1, #83	; 0x53
 800312c:	0020      	movs	r0, r4
 800312e:	0052      	lsls	r2, r2, #1
 8003130:	f7ff fe24 	bl	8002d7c <_ZN5HY28b8WriteRegEtt>
 8003134:	2200      	movs	r2, #0
 8003136:	2120      	movs	r1, #32
 8003138:	0020      	movs	r0, r4
 800313a:	f7ff fe1f 	bl	8002d7c <_ZN5HY28b8WriteRegEtt>
 800313e:	2200      	movs	r2, #0
 8003140:	2121      	movs	r1, #33	; 0x21
 8003142:	0020      	movs	r0, r4
 8003144:	f7ff fe1a 	bl	8002d7c <_ZN5HY28b8WriteRegEtt>
 8003148:	2122      	movs	r1, #34	; 0x22
 800314a:	0020      	movs	r0, r4
 800314c:	f7ff fdf8 	bl	8002d40 <_ZN5HY28b10WriteIndexEt>
 8003150:	2200      	movs	r2, #0
 8003152:	2104      	movs	r1, #4
 8003154:	480d      	ldr	r0, [pc, #52]	; (800318c <_ZN5HY28bC1EP19__SPI_HandleTypeDefb+0x2f4>)
 8003156:	f7fe f9f5 	bl	8001544 <HAL_GPIO_WritePin>
 800315a:	2172      	movs	r1, #114	; 0x72
 800315c:	6860      	ldr	r0, [r4, #4]
 800315e:	f7ff fddb 	bl	8002d18 <_ZN5HY28b15SPISendRecvByteEh.isra.0>
 8003162:	4d14      	ldr	r5, [pc, #80]	; (80031b4 <_ZN5HY28bC1EP19__SPI_HandleTypeDefb+0x31c>)
 8003164:	2100      	movs	r1, #0
 8003166:	6860      	ldr	r0, [r4, #4]
 8003168:	f7ff fdd6 	bl	8002d18 <_ZN5HY28b15SPISendRecvByteEh.isra.0>
 800316c:	3d01      	subs	r5, #1
 800316e:	2100      	movs	r1, #0
 8003170:	6860      	ldr	r0, [r4, #4]
 8003172:	f7ff fdd1 	bl	8002d18 <_ZN5HY28b15SPISendRecvByteEh.isra.0>
 8003176:	2d00      	cmp	r5, #0
 8003178:	d1f4      	bne.n	8003164 <_ZN5HY28bC1EP19__SPI_HandleTypeDefb+0x2cc>
 800317a:	2201      	movs	r2, #1
 800317c:	2104      	movs	r1, #4
 800317e:	4803      	ldr	r0, [pc, #12]	; (800318c <_ZN5HY28bC1EP19__SPI_HandleTypeDefb+0x2f4>)
 8003180:	f7fe f9e0 	bl	8001544 <HAL_GPIO_WritePin>
 8003184:	0020      	movs	r0, r4
 8003186:	bd70      	pop	{r4, r5, r6, pc}
 8003188:	080061bc 	.word	0x080061bc
 800318c:	48000c00 	.word	0x48000c00
 8003190:	48000400 	.word	0x48000400
 8003194:	000078f0 	.word	0x000078f0
 8003198:	00001038 	.word	0x00001038
 800319c:	00000207 	.word	0x00000207
 80031a0:	00001090 	.word	0x00001090
 80031a4:	00000227 	.word	0x00000227
 80031a8:	00000707 	.word	0x00000707
 80031ac:	00000307 	.word	0x00000307
 80031b0:	00001d04 	.word	0x00001d04
 80031b4:	00012e31 	.word	0x00012e31

080031b8 <_ZN11SolarGators7Drivers3LEDD1Ev>:
 80031b8:	4770      	bx	lr

080031ba <_ZN11SolarGators7Drivers3LEDD0Ev>:
 80031ba:	b510      	push	{r4, lr}
 80031bc:	0004      	movs	r4, r0
 80031be:	2114      	movs	r1, #20
 80031c0:	f002 f9f0 	bl	80055a4 <_ZdlPvj>
 80031c4:	0020      	movs	r0, r4
 80031c6:	bd10      	pop	{r4, pc}

080031c8 <_ZN11SolarGators7Drivers3LED7TurnOffEv>:
 80031c8:	b510      	push	{r4, lr}
 80031ca:	2200      	movs	r2, #0
 80031cc:	0004      	movs	r4, r0
 80031ce:	8a01      	ldrh	r1, [r0, #16]
 80031d0:	68c0      	ldr	r0, [r0, #12]
 80031d2:	f7fe f9b7 	bl	8001544 <HAL_GPIO_WritePin>
 80031d6:	2300      	movs	r3, #0
 80031d8:	7123      	strb	r3, [r4, #4]
 80031da:	bd10      	pop	{r4, pc}

080031dc <_ZN11SolarGators7Drivers3LEDC1EPKcP12GPIO_TypeDeft>:
 80031dc:	b510      	push	{r4, lr}
 80031de:	0004      	movs	r4, r0
 80031e0:	4806      	ldr	r0, [pc, #24]	; (80031fc <_ZN11SolarGators7Drivers3LEDC1EPKcP12GPIO_TypeDeft+0x20>)
 80031e2:	60a1      	str	r1, [r4, #8]
 80031e4:	3008      	adds	r0, #8
 80031e6:	6020      	str	r0, [r4, #0]
 80031e8:	2000      	movs	r0, #0
 80031ea:	60e2      	str	r2, [r4, #12]
 80031ec:	7120      	strb	r0, [r4, #4]
 80031ee:	8223      	strh	r3, [r4, #16]
 80031f0:	0020      	movs	r0, r4
 80031f2:	f7ff ffe9 	bl	80031c8 <_ZN11SolarGators7Drivers3LED7TurnOffEv>
 80031f6:	0020      	movs	r0, r4
 80031f8:	bd10      	pop	{r4, pc}
 80031fa:	46c0      	nop			; (mov r8, r8)
 80031fc:	080061cc 	.word	0x080061cc

08003200 <_ZN11SolarGators7Drivers3LED6ToggleEv>:
 8003200:	b510      	push	{r4, lr}
 8003202:	0004      	movs	r4, r0
 8003204:	8a01      	ldrh	r1, [r0, #16]
 8003206:	68c0      	ldr	r0, [r0, #12]
 8003208:	f7fe f9a2 	bl	8001550 <HAL_GPIO_TogglePin>
 800320c:	2301      	movs	r3, #1
 800320e:	7922      	ldrb	r2, [r4, #4]
 8003210:	4053      	eors	r3, r2
 8003212:	7123      	strb	r3, [r4, #4]
 8003214:	bd10      	pop	{r4, pc}

08003216 <TimerCallback>:
 8003216:	b510      	push	{r4, lr}
 8003218:	f002 f808 	bl	800522c <pvTimerGetTimerID>
 800321c:	2800      	cmp	r0, #0
 800321e:	d002      	beq.n	8003226 <TimerCallback+0x10>
 8003220:	6803      	ldr	r3, [r0, #0]
 8003222:	6840      	ldr	r0, [r0, #4]
 8003224:	4798      	blx	r3
 8003226:	bd10      	pop	{r4, pc}

08003228 <osKernelInitialize>:
 8003228:	f3ef 8305 	mrs	r3, IPSR
 800322c:	2b00      	cmp	r3, #0
 800322e:	d002      	beq.n	8003236 <osKernelInitialize+0xe>
 8003230:	2006      	movs	r0, #6
 8003232:	4240      	negs	r0, r0
 8003234:	e00c      	b.n	8003250 <osKernelInitialize+0x28>
 8003236:	f3ef 8210 	mrs	r2, PRIMASK
 800323a:	4b07      	ldr	r3, [pc, #28]	; (8003258 <osKernelInitialize+0x30>)
 800323c:	2a00      	cmp	r2, #0
 800323e:	d002      	beq.n	8003246 <osKernelInitialize+0x1e>
 8003240:	681a      	ldr	r2, [r3, #0]
 8003242:	2a02      	cmp	r2, #2
 8003244:	d0f4      	beq.n	8003230 <osKernelInitialize+0x8>
 8003246:	6818      	ldr	r0, [r3, #0]
 8003248:	2800      	cmp	r0, #0
 800324a:	d102      	bne.n	8003252 <osKernelInitialize+0x2a>
 800324c:	2201      	movs	r2, #1
 800324e:	601a      	str	r2, [r3, #0]
 8003250:	4770      	bx	lr
 8003252:	2001      	movs	r0, #1
 8003254:	e7ed      	b.n	8003232 <osKernelInitialize+0xa>
 8003256:	46c0      	nop			; (mov r8, r8)
 8003258:	20000ccc 	.word	0x20000ccc

0800325c <osKernelStart>:
 800325c:	b510      	push	{r4, lr}
 800325e:	f3ef 8305 	mrs	r3, IPSR
 8003262:	2b00      	cmp	r3, #0
 8003264:	d002      	beq.n	800326c <osKernelStart+0x10>
 8003266:	2006      	movs	r0, #6
 8003268:	4240      	negs	r0, r0
 800326a:	e00f      	b.n	800328c <osKernelStart+0x30>
 800326c:	f3ef 8210 	mrs	r2, PRIMASK
 8003270:	4b08      	ldr	r3, [pc, #32]	; (8003294 <osKernelStart+0x38>)
 8003272:	2a00      	cmp	r2, #0
 8003274:	d002      	beq.n	800327c <osKernelStart+0x20>
 8003276:	681a      	ldr	r2, [r3, #0]
 8003278:	2a02      	cmp	r2, #2
 800327a:	d0f4      	beq.n	8003266 <osKernelStart+0xa>
 800327c:	681a      	ldr	r2, [r3, #0]
 800327e:	2a01      	cmp	r2, #1
 8003280:	d105      	bne.n	800328e <osKernelStart+0x32>
 8003282:	3201      	adds	r2, #1
 8003284:	601a      	str	r2, [r3, #0]
 8003286:	f001 fa79 	bl	800477c <vTaskStartScheduler>
 800328a:	2000      	movs	r0, #0
 800328c:	bd10      	pop	{r4, pc}
 800328e:	2001      	movs	r0, #1
 8003290:	e7ea      	b.n	8003268 <osKernelStart+0xc>
 8003292:	46c0      	nop			; (mov r8, r8)
 8003294:	20000ccc 	.word	0x20000ccc

08003298 <osKernelGetTickCount>:
 8003298:	b510      	push	{r4, lr}
 800329a:	f3ef 8305 	mrs	r3, IPSR
 800329e:	2b00      	cmp	r3, #0
 80032a0:	d002      	beq.n	80032a8 <osKernelGetTickCount+0x10>
 80032a2:	f001 fab9 	bl	8004818 <xTaskGetTickCountFromISR>
 80032a6:	bd10      	pop	{r4, pc}
 80032a8:	f3ef 8310 	mrs	r3, PRIMASK
 80032ac:	2b00      	cmp	r3, #0
 80032ae:	d003      	beq.n	80032b8 <osKernelGetTickCount+0x20>
 80032b0:	4b03      	ldr	r3, [pc, #12]	; (80032c0 <osKernelGetTickCount+0x28>)
 80032b2:	681b      	ldr	r3, [r3, #0]
 80032b4:	2b02      	cmp	r3, #2
 80032b6:	d0f4      	beq.n	80032a2 <osKernelGetTickCount+0xa>
 80032b8:	f001 faa8 	bl	800480c <xTaskGetTickCount>
 80032bc:	e7f3      	b.n	80032a6 <osKernelGetTickCount+0xe>
 80032be:	46c0      	nop			; (mov r8, r8)
 80032c0:	20000ccc 	.word	0x20000ccc

080032c4 <osThreadNew>:
 80032c4:	b5f0      	push	{r4, r5, r6, r7, lr}
 80032c6:	0014      	movs	r4, r2
 80032c8:	2200      	movs	r2, #0
 80032ca:	b089      	sub	sp, #36	; 0x24
 80032cc:	9105      	str	r1, [sp, #20]
 80032ce:	9207      	str	r2, [sp, #28]
 80032d0:	f3ef 8205 	mrs	r2, IPSR
 80032d4:	2a00      	cmp	r2, #0
 80032d6:	d134      	bne.n	8003342 <osThreadNew+0x7e>
 80032d8:	f3ef 8210 	mrs	r2, PRIMASK
 80032dc:	2a00      	cmp	r2, #0
 80032de:	d003      	beq.n	80032e8 <osThreadNew+0x24>
 80032e0:	4a29      	ldr	r2, [pc, #164]	; (8003388 <osThreadNew+0xc4>)
 80032e2:	6812      	ldr	r2, [r2, #0]
 80032e4:	2a02      	cmp	r2, #2
 80032e6:	d02c      	beq.n	8003342 <osThreadNew+0x7e>
 80032e8:	2800      	cmp	r0, #0
 80032ea:	d02a      	beq.n	8003342 <osThreadNew+0x7e>
 80032ec:	2513      	movs	r5, #19
 80032ee:	2200      	movs	r2, #0
 80032f0:	ab02      	add	r3, sp, #8
 80032f2:	18ed      	adds	r5, r5, r3
 80032f4:	702a      	strb	r2, [r5, #0]
 80032f6:	4294      	cmp	r4, r2
 80032f8:	d039      	beq.n	800336e <osThreadNew+0xaa>
 80032fa:	6821      	ldr	r1, [r4, #0]
 80032fc:	4291      	cmp	r1, r2
 80032fe:	d100      	bne.n	8003302 <osThreadNew+0x3e>
 8003300:	0029      	movs	r1, r5
 8003302:	69a5      	ldr	r5, [r4, #24]
 8003304:	2d00      	cmp	r5, #0
 8003306:	d100      	bne.n	800330a <osThreadNew+0x46>
 8003308:	3518      	adds	r5, #24
 800330a:	1e6e      	subs	r6, r5, #1
 800330c:	002f      	movs	r7, r5
 800330e:	2200      	movs	r2, #0
 8003310:	2e37      	cmp	r6, #55	; 0x37
 8003312:	d817      	bhi.n	8003344 <osThreadNew+0x80>
 8003314:	6866      	ldr	r6, [r4, #4]
 8003316:	07f3      	lsls	r3, r6, #31
 8003318:	d414      	bmi.n	8003344 <osThreadNew+0x80>
 800331a:	6966      	ldr	r6, [r4, #20]
 800331c:	3280      	adds	r2, #128	; 0x80
 800331e:	2e00      	cmp	r6, #0
 8003320:	d000      	beq.n	8003324 <osThreadNew+0x60>
 8003322:	08b2      	lsrs	r2, r6, #2
 8003324:	68a3      	ldr	r3, [r4, #8]
 8003326:	9304      	str	r3, [sp, #16]
 8003328:	68e3      	ldr	r3, [r4, #12]
 800332a:	469c      	mov	ip, r3
 800332c:	9b04      	ldr	r3, [sp, #16]
 800332e:	2b00      	cmp	r3, #0
 8003330:	d00b      	beq.n	800334a <osThreadNew+0x86>
 8003332:	4663      	mov	r3, ip
 8003334:	2bbb      	cmp	r3, #187	; 0xbb
 8003336:	d904      	bls.n	8003342 <osThreadNew+0x7e>
 8003338:	6924      	ldr	r4, [r4, #16]
 800333a:	2c00      	cmp	r4, #0
 800333c:	d001      	beq.n	8003342 <osThreadNew+0x7e>
 800333e:	2e00      	cmp	r6, #0
 8003340:	d119      	bne.n	8003376 <osThreadNew+0xb2>
 8003342:	9a07      	ldr	r2, [sp, #28]
 8003344:	0010      	movs	r0, r2
 8003346:	b009      	add	sp, #36	; 0x24
 8003348:	bdf0      	pop	{r4, r5, r6, r7, pc}
 800334a:	4663      	mov	r3, ip
 800334c:	2b00      	cmp	r3, #0
 800334e:	d1f8      	bne.n	8003342 <osThreadNew+0x7e>
 8003350:	6924      	ldr	r4, [r4, #16]
 8003352:	2c00      	cmp	r4, #0
 8003354:	d1f5      	bne.n	8003342 <osThreadNew+0x7e>
 8003356:	ac07      	add	r4, sp, #28
 8003358:	9b05      	ldr	r3, [sp, #20]
 800335a:	b292      	uxth	r2, r2
 800335c:	9401      	str	r4, [sp, #4]
 800335e:	9700      	str	r7, [sp, #0]
 8003360:	f001 f9df 	bl	8004722 <xTaskCreate>
 8003364:	2801      	cmp	r0, #1
 8003366:	d0ec      	beq.n	8003342 <osThreadNew+0x7e>
 8003368:	2300      	movs	r3, #0
 800336a:	9307      	str	r3, [sp, #28]
 800336c:	e7e9      	b.n	8003342 <osThreadNew+0x7e>
 800336e:	2718      	movs	r7, #24
 8003370:	2280      	movs	r2, #128	; 0x80
 8003372:	0029      	movs	r1, r5
 8003374:	e7ef      	b.n	8003356 <osThreadNew+0x92>
 8003376:	9b04      	ldr	r3, [sp, #16]
 8003378:	9401      	str	r4, [sp, #4]
 800337a:	9302      	str	r3, [sp, #8]
 800337c:	9500      	str	r5, [sp, #0]
 800337e:	9b05      	ldr	r3, [sp, #20]
 8003380:	f001 f9aa 	bl	80046d8 <xTaskCreateStatic>
 8003384:	9007      	str	r0, [sp, #28]
 8003386:	e7dc      	b.n	8003342 <osThreadNew+0x7e>
 8003388:	20000ccc 	.word	0x20000ccc

0800338c <osDelay>:
 800338c:	b510      	push	{r4, lr}
 800338e:	f3ef 8305 	mrs	r3, IPSR
 8003392:	2b00      	cmp	r3, #0
 8003394:	d003      	beq.n	800339e <osDelay+0x12>
 8003396:	2406      	movs	r4, #6
 8003398:	4264      	negs	r4, r4
 800339a:	0020      	movs	r0, r4
 800339c:	bd10      	pop	{r4, pc}
 800339e:	f3ef 8310 	mrs	r3, PRIMASK
 80033a2:	2b00      	cmp	r3, #0
 80033a4:	d003      	beq.n	80033ae <osDelay+0x22>
 80033a6:	4b05      	ldr	r3, [pc, #20]	; (80033bc <osDelay+0x30>)
 80033a8:	681b      	ldr	r3, [r3, #0]
 80033aa:	2b02      	cmp	r3, #2
 80033ac:	d0f3      	beq.n	8003396 <osDelay+0xa>
 80033ae:	2400      	movs	r4, #0
 80033b0:	42a0      	cmp	r0, r4
 80033b2:	d0f2      	beq.n	800339a <osDelay+0xe>
 80033b4:	f001 fb1e 	bl	80049f4 <vTaskDelay>
 80033b8:	e7ef      	b.n	800339a <osDelay+0xe>
 80033ba:	46c0      	nop			; (mov r8, r8)
 80033bc:	20000ccc 	.word	0x20000ccc

080033c0 <osTimerNew>:
 80033c0:	b5f7      	push	{r0, r1, r2, r4, r5, r6, r7, lr}
 80033c2:	0006      	movs	r6, r0
 80033c4:	000d      	movs	r5, r1
 80033c6:	0017      	movs	r7, r2
 80033c8:	001c      	movs	r4, r3
 80033ca:	f3ef 8305 	mrs	r3, IPSR
 80033ce:	2b00      	cmp	r3, #0
 80033d0:	d001      	beq.n	80033d6 <osTimerNew+0x16>
 80033d2:	2000      	movs	r0, #0
 80033d4:	bdfe      	pop	{r1, r2, r3, r4, r5, r6, r7, pc}
 80033d6:	f3ef 8310 	mrs	r3, PRIMASK
 80033da:	2b00      	cmp	r3, #0
 80033dc:	d003      	beq.n	80033e6 <osTimerNew+0x26>
 80033de:	4b15      	ldr	r3, [pc, #84]	; (8003434 <osTimerNew+0x74>)
 80033e0:	681b      	ldr	r3, [r3, #0]
 80033e2:	2b02      	cmp	r3, #2
 80033e4:	d0f5      	beq.n	80033d2 <osTimerNew+0x12>
 80033e6:	2e00      	cmp	r6, #0
 80033e8:	d0f3      	beq.n	80033d2 <osTimerNew+0x12>
 80033ea:	2008      	movs	r0, #8
 80033ec:	f002 f838 	bl	8005460 <pvPortMalloc>
 80033f0:	1e03      	subs	r3, r0, #0
 80033f2:	d0ee      	beq.n	80033d2 <osTimerNew+0x12>
 80033f4:	002a      	movs	r2, r5
 80033f6:	6006      	str	r6, [r0, #0]
 80033f8:	1e55      	subs	r5, r2, #1
 80033fa:	41aa      	sbcs	r2, r5
 80033fc:	6047      	str	r7, [r0, #4]
 80033fe:	2c00      	cmp	r4, #0
 8003400:	d010      	beq.n	8003424 <osTimerNew+0x64>
 8003402:	68a1      	ldr	r1, [r4, #8]
 8003404:	6820      	ldr	r0, [r4, #0]
 8003406:	68e4      	ldr	r4, [r4, #12]
 8003408:	2900      	cmp	r1, #0
 800340a:	d008      	beq.n	800341e <osTimerNew+0x5e>
 800340c:	2c2f      	cmp	r4, #47	; 0x2f
 800340e:	d9e0      	bls.n	80033d2 <osTimerNew+0x12>
 8003410:	9101      	str	r1, [sp, #4]
 8003412:	4909      	ldr	r1, [pc, #36]	; (8003438 <osTimerNew+0x78>)
 8003414:	9100      	str	r1, [sp, #0]
 8003416:	2101      	movs	r1, #1
 8003418:	f001 fdc2 	bl	8004fa0 <xTimerCreateStatic>
 800341c:	e7da      	b.n	80033d4 <osTimerNew+0x14>
 800341e:	2c00      	cmp	r4, #0
 8003420:	d1d7      	bne.n	80033d2 <osTimerNew+0x12>
 8003422:	0004      	movs	r4, r0
 8003424:	4904      	ldr	r1, [pc, #16]	; (8003438 <osTimerNew+0x78>)
 8003426:	0020      	movs	r0, r4
 8003428:	9100      	str	r1, [sp, #0]
 800342a:	2101      	movs	r1, #1
 800342c:	f001 fd98 	bl	8004f60 <xTimerCreate>
 8003430:	e7d0      	b.n	80033d4 <osTimerNew+0x14>
 8003432:	46c0      	nop			; (mov r8, r8)
 8003434:	20000ccc 	.word	0x20000ccc
 8003438:	08003217 	.word	0x08003217

0800343c <osTimerStart>:
 800343c:	000a      	movs	r2, r1
 800343e:	b513      	push	{r0, r1, r4, lr}
 8003440:	f3ef 8305 	mrs	r3, IPSR
 8003444:	2b00      	cmp	r3, #0
 8003446:	d002      	beq.n	800344e <osTimerStart+0x12>
 8003448:	2406      	movs	r4, #6
 800344a:	4264      	negs	r4, r4
 800344c:	e012      	b.n	8003474 <osTimerStart+0x38>
 800344e:	f3ef 8310 	mrs	r3, PRIMASK
 8003452:	2b00      	cmp	r3, #0
 8003454:	d003      	beq.n	800345e <osTimerStart+0x22>
 8003456:	4b09      	ldr	r3, [pc, #36]	; (800347c <osTimerStart+0x40>)
 8003458:	681b      	ldr	r3, [r3, #0]
 800345a:	2b02      	cmp	r3, #2
 800345c:	d0f4      	beq.n	8003448 <osTimerStart+0xc>
 800345e:	2800      	cmp	r0, #0
 8003460:	d00a      	beq.n	8003478 <osTimerStart+0x3c>
 8003462:	2400      	movs	r4, #0
 8003464:	2104      	movs	r1, #4
 8003466:	0023      	movs	r3, r4
 8003468:	9400      	str	r4, [sp, #0]
 800346a:	f001 fdc3 	bl	8004ff4 <xTimerGenericCommand>
 800346e:	2801      	cmp	r0, #1
 8003470:	d000      	beq.n	8003474 <osTimerStart+0x38>
 8003472:	3c03      	subs	r4, #3
 8003474:	0020      	movs	r0, r4
 8003476:	bd16      	pop	{r1, r2, r4, pc}
 8003478:	2404      	movs	r4, #4
 800347a:	e7e6      	b.n	800344a <osTimerStart+0xe>
 800347c:	20000ccc 	.word	0x20000ccc

08003480 <osTimerDelete>:
 8003480:	b573      	push	{r0, r1, r4, r5, r6, lr}
 8003482:	0005      	movs	r5, r0
 8003484:	f3ef 8305 	mrs	r3, IPSR
 8003488:	2b00      	cmp	r3, #0
 800348a:	d002      	beq.n	8003492 <osTimerDelete+0x12>
 800348c:	2006      	movs	r0, #6
 800348e:	4240      	negs	r0, r0
 8003490:	e01b      	b.n	80034ca <osTimerDelete+0x4a>
 8003492:	f3ef 8310 	mrs	r3, PRIMASK
 8003496:	2b00      	cmp	r3, #0
 8003498:	d003      	beq.n	80034a2 <osTimerDelete+0x22>
 800349a:	4b0e      	ldr	r3, [pc, #56]	; (80034d4 <osTimerDelete+0x54>)
 800349c:	681b      	ldr	r3, [r3, #0]
 800349e:	2b02      	cmp	r3, #2
 80034a0:	d0f4      	beq.n	800348c <osTimerDelete+0xc>
 80034a2:	2d00      	cmp	r5, #0
 80034a4:	d012      	beq.n	80034cc <osTimerDelete+0x4c>
 80034a6:	0028      	movs	r0, r5
 80034a8:	f001 fec0 	bl	800522c <pvTimerGetTimerID>
 80034ac:	2400      	movs	r4, #0
 80034ae:	0006      	movs	r6, r0
 80034b0:	0023      	movs	r3, r4
 80034b2:	0022      	movs	r2, r4
 80034b4:	2105      	movs	r1, #5
 80034b6:	0028      	movs	r0, r5
 80034b8:	9400      	str	r4, [sp, #0]
 80034ba:	f001 fd9b 	bl	8004ff4 <xTimerGenericCommand>
 80034be:	2801      	cmp	r0, #1
 80034c0:	d106      	bne.n	80034d0 <osTimerDelete+0x50>
 80034c2:	0030      	movs	r0, r6
 80034c4:	f002 f84a 	bl	800555c <vPortFree>
 80034c8:	0020      	movs	r0, r4
 80034ca:	bd76      	pop	{r1, r2, r4, r5, r6, pc}
 80034cc:	2004      	movs	r0, #4
 80034ce:	e7de      	b.n	800348e <osTimerDelete+0xe>
 80034d0:	2003      	movs	r0, #3
 80034d2:	e7dc      	b.n	800348e <osTimerDelete+0xe>
 80034d4:	20000ccc 	.word	0x20000ccc

080034d8 <osEventFlagsNew>:
 80034d8:	0003      	movs	r3, r0
 80034da:	b510      	push	{r4, lr}
 80034dc:	f3ef 8205 	mrs	r2, IPSR
 80034e0:	2a00      	cmp	r2, #0
 80034e2:	d001      	beq.n	80034e8 <osEventFlagsNew+0x10>
 80034e4:	2000      	movs	r0, #0
 80034e6:	bd10      	pop	{r4, pc}
 80034e8:	f3ef 8210 	mrs	r2, PRIMASK
 80034ec:	2a00      	cmp	r2, #0
 80034ee:	d003      	beq.n	80034f8 <osEventFlagsNew+0x20>
 80034f0:	4a09      	ldr	r2, [pc, #36]	; (8003518 <osEventFlagsNew+0x40>)
 80034f2:	6812      	ldr	r2, [r2, #0]
 80034f4:	2a02      	cmp	r2, #2
 80034f6:	d0f5      	beq.n	80034e4 <osEventFlagsNew+0xc>
 80034f8:	2b00      	cmp	r3, #0
 80034fa:	d00a      	beq.n	8003512 <osEventFlagsNew+0x3a>
 80034fc:	6898      	ldr	r0, [r3, #8]
 80034fe:	68db      	ldr	r3, [r3, #12]
 8003500:	2800      	cmp	r0, #0
 8003502:	d004      	beq.n	800350e <osEventFlagsNew+0x36>
 8003504:	2b1f      	cmp	r3, #31
 8003506:	d9ed      	bls.n	80034e4 <osEventFlagsNew+0xc>
 8003508:	f000 fa30 	bl	800396c <xEventGroupCreateStatic>
 800350c:	e7eb      	b.n	80034e6 <osEventFlagsNew+0xe>
 800350e:	2b00      	cmp	r3, #0
 8003510:	d1e8      	bne.n	80034e4 <osEventFlagsNew+0xc>
 8003512:	f000 fa3f 	bl	8003994 <xEventGroupCreate>
 8003516:	e7e6      	b.n	80034e6 <osEventFlagsNew+0xe>
 8003518:	20000ccc 	.word	0x20000ccc

0800351c <osEventFlagsSet>:
 800351c:	b513      	push	{r0, r1, r4, lr}
 800351e:	000c      	movs	r4, r1
 8003520:	2800      	cmp	r0, #0
 8003522:	d025      	beq.n	8003570 <osEventFlagsSet+0x54>
 8003524:	0e0b      	lsrs	r3, r1, #24
 8003526:	d123      	bne.n	8003570 <osEventFlagsSet+0x54>
 8003528:	f3ef 8305 	mrs	r3, IPSR
 800352c:	2b00      	cmp	r3, #0
 800352e:	d009      	beq.n	8003544 <osEventFlagsSet+0x28>
 8003530:	2300      	movs	r3, #0
 8003532:	0021      	movs	r1, r4
 8003534:	aa01      	add	r2, sp, #4
 8003536:	9301      	str	r3, [sp, #4]
 8003538:	f000 fb02 	bl	8003b40 <xEventGroupSetBitsFromISR>
 800353c:	2800      	cmp	r0, #0
 800353e:	d00e      	beq.n	800355e <osEventFlagsSet+0x42>
 8003540:	2403      	movs	r4, #3
 8003542:	e016      	b.n	8003572 <osEventFlagsSet+0x56>
 8003544:	f3ef 8310 	mrs	r3, PRIMASK
 8003548:	2b00      	cmp	r3, #0
 800354a:	d003      	beq.n	8003554 <osEventFlagsSet+0x38>
 800354c:	4b0a      	ldr	r3, [pc, #40]	; (8003578 <osEventFlagsSet+0x5c>)
 800354e:	681b      	ldr	r3, [r3, #0]
 8003550:	2b02      	cmp	r3, #2
 8003552:	d0ed      	beq.n	8003530 <osEventFlagsSet+0x14>
 8003554:	0021      	movs	r1, r4
 8003556:	f000 fa94 	bl	8003a82 <xEventGroupSetBits>
 800355a:	0004      	movs	r4, r0
 800355c:	e006      	b.n	800356c <osEventFlagsSet+0x50>
 800355e:	9b01      	ldr	r3, [sp, #4]
 8003560:	2b00      	cmp	r3, #0
 8003562:	d003      	beq.n	800356c <osEventFlagsSet+0x50>
 8003564:	2280      	movs	r2, #128	; 0x80
 8003566:	4b05      	ldr	r3, [pc, #20]	; (800357c <osEventFlagsSet+0x60>)
 8003568:	0552      	lsls	r2, r2, #21
 800356a:	601a      	str	r2, [r3, #0]
 800356c:	0020      	movs	r0, r4
 800356e:	bd16      	pop	{r1, r2, r4, pc}
 8003570:	2404      	movs	r4, #4
 8003572:	4264      	negs	r4, r4
 8003574:	e7fa      	b.n	800356c <osEventFlagsSet+0x50>
 8003576:	46c0      	nop			; (mov r8, r8)
 8003578:	20000ccc 	.word	0x20000ccc
 800357c:	e000ed04 	.word	0xe000ed04

08003580 <osEventFlagsWait>:
 8003580:	b573      	push	{r0, r1, r4, r5, r6, lr}
 8003582:	000c      	movs	r4, r1
 8003584:	001d      	movs	r5, r3
 8003586:	2800      	cmp	r0, #0
 8003588:	d027      	beq.n	80035da <osEventFlagsWait+0x5a>
 800358a:	0e0b      	lsrs	r3, r1, #24
 800358c:	d125      	bne.n	80035da <osEventFlagsWait+0x5a>
 800358e:	f3ef 8305 	mrs	r3, IPSR
 8003592:	2b00      	cmp	r3, #0
 8003594:	d002      	beq.n	800359c <osEventFlagsWait+0x1c>
 8003596:	2006      	movs	r0, #6
 8003598:	4240      	negs	r0, r0
 800359a:	e01a      	b.n	80035d2 <osEventFlagsWait+0x52>
 800359c:	f3ef 8310 	mrs	r3, PRIMASK
 80035a0:	2b00      	cmp	r3, #0
 80035a2:	d003      	beq.n	80035ac <osEventFlagsWait+0x2c>
 80035a4:	4b0e      	ldr	r3, [pc, #56]	; (80035e0 <osEventFlagsWait+0x60>)
 80035a6:	681b      	ldr	r3, [r3, #0]
 80035a8:	2b02      	cmp	r3, #2
 80035aa:	d0f4      	beq.n	8003596 <osEventFlagsWait+0x16>
 80035ac:	2301      	movs	r3, #1
 80035ae:	0016      	movs	r6, r2
 80035b0:	40da      	lsrs	r2, r3
 80035b2:	401e      	ands	r6, r3
 80035b4:	4393      	bics	r3, r2
 80035b6:	001a      	movs	r2, r3
 80035b8:	0021      	movs	r1, r4
 80035ba:	0033      	movs	r3, r6
 80035bc:	9500      	str	r5, [sp, #0]
 80035be:	f000 f9f6 	bl	80039ae <xEventGroupWaitBits>
 80035c2:	2e00      	cmp	r6, #0
 80035c4:	d006      	beq.n	80035d4 <osEventFlagsWait+0x54>
 80035c6:	4284      	cmp	r4, r0
 80035c8:	d003      	beq.n	80035d2 <osEventFlagsWait+0x52>
 80035ca:	0028      	movs	r0, r5
 80035cc:	1e45      	subs	r5, r0, #1
 80035ce:	41a8      	sbcs	r0, r5
 80035d0:	3803      	subs	r0, #3
 80035d2:	bd76      	pop	{r1, r2, r4, r5, r6, pc}
 80035d4:	4220      	tst	r0, r4
 80035d6:	d0f8      	beq.n	80035ca <osEventFlagsWait+0x4a>
 80035d8:	e7fb      	b.n	80035d2 <osEventFlagsWait+0x52>
 80035da:	2004      	movs	r0, #4
 80035dc:	e7dc      	b.n	8003598 <osEventFlagsWait+0x18>
 80035de:	46c0      	nop			; (mov r8, r8)
 80035e0:	20000ccc 	.word	0x20000ccc

080035e4 <osEventFlagsDelete>:
 80035e4:	b510      	push	{r4, lr}
 80035e6:	f3ef 8305 	mrs	r3, IPSR
 80035ea:	2b00      	cmp	r3, #0
 80035ec:	d002      	beq.n	80035f4 <osEventFlagsDelete+0x10>
 80035ee:	2006      	movs	r0, #6
 80035f0:	4240      	negs	r0, r0
 80035f2:	e00c      	b.n	800360e <osEventFlagsDelete+0x2a>
 80035f4:	f3ef 8310 	mrs	r3, PRIMASK
 80035f8:	2b00      	cmp	r3, #0
 80035fa:	d003      	beq.n	8003604 <osEventFlagsDelete+0x20>
 80035fc:	4b05      	ldr	r3, [pc, #20]	; (8003614 <osEventFlagsDelete+0x30>)
 80035fe:	681b      	ldr	r3, [r3, #0]
 8003600:	2b02      	cmp	r3, #2
 8003602:	d0f4      	beq.n	80035ee <osEventFlagsDelete+0xa>
 8003604:	2800      	cmp	r0, #0
 8003606:	d003      	beq.n	8003610 <osEventFlagsDelete+0x2c>
 8003608:	f000 fa7c 	bl	8003b04 <vEventGroupDelete>
 800360c:	2000      	movs	r0, #0
 800360e:	bd10      	pop	{r4, pc}
 8003610:	2004      	movs	r0, #4
 8003612:	e7ed      	b.n	80035f0 <osEventFlagsDelete+0xc>
 8003614:	20000ccc 	.word	0x20000ccc

08003618 <osMutexNew>:
 8003618:	b570      	push	{r4, r5, r6, lr}
 800361a:	0005      	movs	r5, r0
 800361c:	f3ef 8605 	mrs	r6, IPSR
 8003620:	2e00      	cmp	r6, #0
 8003622:	d002      	beq.n	800362a <osMutexNew+0x12>
 8003624:	2400      	movs	r4, #0
 8003626:	0020      	movs	r0, r4
 8003628:	bd70      	pop	{r4, r5, r6, pc}
 800362a:	f3ef 8310 	mrs	r3, PRIMASK
 800362e:	2b00      	cmp	r3, #0
 8003630:	d003      	beq.n	800363a <osMutexNew+0x22>
 8003632:	4b18      	ldr	r3, [pc, #96]	; (8003694 <osMutexNew+0x7c>)
 8003634:	681b      	ldr	r3, [r3, #0]
 8003636:	2b02      	cmp	r3, #2
 8003638:	d0f4      	beq.n	8003624 <osMutexNew+0xc>
 800363a:	2d00      	cmp	r5, #0
 800363c:	d002      	beq.n	8003644 <osMutexNew+0x2c>
 800363e:	686e      	ldr	r6, [r5, #4]
 8003640:	0733      	lsls	r3, r6, #28
 8003642:	d4ef      	bmi.n	8003624 <osMutexNew+0xc>
 8003644:	2001      	movs	r0, #1
 8003646:	4006      	ands	r6, r0
 8003648:	2d00      	cmp	r5, #0
 800364a:	d010      	beq.n	800366e <osMutexNew+0x56>
 800364c:	68a9      	ldr	r1, [r5, #8]
 800364e:	68eb      	ldr	r3, [r5, #12]
 8003650:	2900      	cmp	r1, #0
 8003652:	d00a      	beq.n	800366a <osMutexNew+0x52>
 8003654:	2b4f      	cmp	r3, #79	; 0x4f
 8003656:	d9e5      	bls.n	8003624 <osMutexNew+0xc>
 8003658:	2e00      	cmp	r6, #0
 800365a:	d000      	beq.n	800365e <osMutexNew+0x46>
 800365c:	2004      	movs	r0, #4
 800365e:	f000 fc5d 	bl	8003f1c <xQueueCreateMutexStatic>
 8003662:	1e04      	subs	r4, r0, #0
 8003664:	d0de      	beq.n	8003624 <osMutexNew+0xc>
 8003666:	682d      	ldr	r5, [r5, #0]
 8003668:	e00b      	b.n	8003682 <osMutexNew+0x6a>
 800366a:	2b00      	cmp	r3, #0
 800366c:	d1da      	bne.n	8003624 <osMutexNew+0xc>
 800366e:	2004      	movs	r0, #4
 8003670:	2e00      	cmp	r6, #0
 8003672:	d100      	bne.n	8003676 <osMutexNew+0x5e>
 8003674:	2001      	movs	r0, #1
 8003676:	f000 fc7d 	bl	8003f74 <xQueueCreateMutex>
 800367a:	1e04      	subs	r4, r0, #0
 800367c:	d0d2      	beq.n	8003624 <osMutexNew+0xc>
 800367e:	2d00      	cmp	r5, #0
 8003680:	d1f1      	bne.n	8003666 <osMutexNew+0x4e>
 8003682:	0029      	movs	r1, r5
 8003684:	0020      	movs	r0, r4
 8003686:	f000 fe75 	bl	8004374 <vQueueAddToRegistry>
 800368a:	2e00      	cmp	r6, #0
 800368c:	d0cb      	beq.n	8003626 <osMutexNew+0xe>
 800368e:	2301      	movs	r3, #1
 8003690:	431c      	orrs	r4, r3
 8003692:	e7c8      	b.n	8003626 <osMutexNew+0xe>
 8003694:	20000ccc 	.word	0x20000ccc

08003698 <osMutexAcquire>:
 8003698:	2201      	movs	r2, #1
 800369a:	0003      	movs	r3, r0
 800369c:	b510      	push	{r4, lr}
 800369e:	4390      	bics	r0, r2
 80036a0:	000c      	movs	r4, r1
 80036a2:	4013      	ands	r3, r2
 80036a4:	f3ef 8205 	mrs	r2, IPSR
 80036a8:	2a00      	cmp	r2, #0
 80036aa:	d002      	beq.n	80036b2 <osMutexAcquire+0x1a>
 80036ac:	2006      	movs	r0, #6
 80036ae:	4240      	negs	r0, r0
 80036b0:	e011      	b.n	80036d6 <osMutexAcquire+0x3e>
 80036b2:	f3ef 8210 	mrs	r2, PRIMASK
 80036b6:	2a00      	cmp	r2, #0
 80036b8:	d003      	beq.n	80036c2 <osMutexAcquire+0x2a>
 80036ba:	4a0c      	ldr	r2, [pc, #48]	; (80036ec <osMutexAcquire+0x54>)
 80036bc:	6812      	ldr	r2, [r2, #0]
 80036be:	2a02      	cmp	r2, #2
 80036c0:	d0f4      	beq.n	80036ac <osMutexAcquire+0x14>
 80036c2:	2800      	cmp	r0, #0
 80036c4:	d010      	beq.n	80036e8 <osMutexAcquire+0x50>
 80036c6:	0021      	movs	r1, r4
 80036c8:	2b00      	cmp	r3, #0
 80036ca:	d00a      	beq.n	80036e2 <osMutexAcquire+0x4a>
 80036cc:	f000 fde5 	bl	800429a <xQueueTakeMutexRecursive>
 80036d0:	2801      	cmp	r0, #1
 80036d2:	d101      	bne.n	80036d8 <osMutexAcquire+0x40>
 80036d4:	2000      	movs	r0, #0
 80036d6:	bd10      	pop	{r4, pc}
 80036d8:	0020      	movs	r0, r4
 80036da:	1e44      	subs	r4, r0, #1
 80036dc:	41a0      	sbcs	r0, r4
 80036de:	3803      	subs	r0, #3
 80036e0:	e7f9      	b.n	80036d6 <osMutexAcquire+0x3e>
 80036e2:	f000 fd34 	bl	800414e <xQueueSemaphoreTake>
 80036e6:	e7f3      	b.n	80036d0 <osMutexAcquire+0x38>
 80036e8:	2004      	movs	r0, #4
 80036ea:	e7e0      	b.n	80036ae <osMutexAcquire+0x16>
 80036ec:	20000ccc 	.word	0x20000ccc

080036f0 <osMutexRelease>:
 80036f0:	2301      	movs	r3, #1
 80036f2:	0001      	movs	r1, r0
 80036f4:	b510      	push	{r4, lr}
 80036f6:	4398      	bics	r0, r3
 80036f8:	4019      	ands	r1, r3
 80036fa:	f3ef 8305 	mrs	r3, IPSR
 80036fe:	2b00      	cmp	r3, #0
 8003700:	d002      	beq.n	8003708 <osMutexRelease+0x18>
 8003702:	2006      	movs	r0, #6
 8003704:	4240      	negs	r0, r0
 8003706:	e010      	b.n	800372a <osMutexRelease+0x3a>
 8003708:	f3ef 8310 	mrs	r3, PRIMASK
 800370c:	2b00      	cmp	r3, #0
 800370e:	d003      	beq.n	8003718 <osMutexRelease+0x28>
 8003710:	4b0b      	ldr	r3, [pc, #44]	; (8003740 <osMutexRelease+0x50>)
 8003712:	681b      	ldr	r3, [r3, #0]
 8003714:	2b02      	cmp	r3, #2
 8003716:	d0f4      	beq.n	8003702 <osMutexRelease+0x12>
 8003718:	2800      	cmp	r0, #0
 800371a:	d00e      	beq.n	800373a <osMutexRelease+0x4a>
 800371c:	2900      	cmp	r1, #0
 800371e:	d007      	beq.n	8003730 <osMutexRelease+0x40>
 8003720:	f000 fc10 	bl	8003f44 <xQueueGiveMutexRecursive>
 8003724:	2801      	cmp	r0, #1
 8003726:	d101      	bne.n	800372c <osMutexRelease+0x3c>
 8003728:	2000      	movs	r0, #0
 800372a:	bd10      	pop	{r4, pc}
 800372c:	2003      	movs	r0, #3
 800372e:	e7e9      	b.n	8003704 <osMutexRelease+0x14>
 8003730:	000b      	movs	r3, r1
 8003732:	000a      	movs	r2, r1
 8003734:	f000 fb62 	bl	8003dfc <xQueueGenericSend>
 8003738:	e7f4      	b.n	8003724 <osMutexRelease+0x34>
 800373a:	2004      	movs	r0, #4
 800373c:	e7e2      	b.n	8003704 <osMutexRelease+0x14>
 800373e:	46c0      	nop			; (mov r8, r8)
 8003740:	20000ccc 	.word	0x20000ccc

08003744 <osSemaphoreGetCount>:
 8003744:	0003      	movs	r3, r0
 8003746:	b510      	push	{r4, lr}
 8003748:	2800      	cmp	r0, #0
 800374a:	d006      	beq.n	800375a <osSemaphoreGetCount+0x16>
 800374c:	f3ef 8305 	mrs	r3, IPSR
 8003750:	2b00      	cmp	r3, #0
 8003752:	d004      	beq.n	800375e <osSemaphoreGetCount+0x1a>
 8003754:	f000 fe08 	bl	8004368 <uxQueueMessagesWaitingFromISR>
 8003758:	0003      	movs	r3, r0
 800375a:	0018      	movs	r0, r3
 800375c:	bd10      	pop	{r4, pc}
 800375e:	f3ef 8310 	mrs	r3, PRIMASK
 8003762:	2b00      	cmp	r3, #0
 8003764:	d003      	beq.n	800376e <osSemaphoreGetCount+0x2a>
 8003766:	4b03      	ldr	r3, [pc, #12]	; (8003774 <osSemaphoreGetCount+0x30>)
 8003768:	681b      	ldr	r3, [r3, #0]
 800376a:	2b02      	cmp	r3, #2
 800376c:	d0f2      	beq.n	8003754 <osSemaphoreGetCount+0x10>
 800376e:	f000 fdef 	bl	8004350 <uxQueueMessagesWaiting>
 8003772:	e7f1      	b.n	8003758 <osSemaphoreGetCount+0x14>
 8003774:	20000ccc 	.word	0x20000ccc

08003778 <osSemaphoreDelete>:
 8003778:	b510      	push	{r4, lr}
 800377a:	0004      	movs	r4, r0
 800377c:	f3ef 8305 	mrs	r3, IPSR
 8003780:	2b00      	cmp	r3, #0
 8003782:	d002      	beq.n	800378a <osSemaphoreDelete+0x12>
 8003784:	2006      	movs	r0, #6
 8003786:	4240      	negs	r0, r0
 8003788:	e010      	b.n	80037ac <osSemaphoreDelete+0x34>
 800378a:	f3ef 8310 	mrs	r3, PRIMASK
 800378e:	2b00      	cmp	r3, #0
 8003790:	d003      	beq.n	800379a <osSemaphoreDelete+0x22>
 8003792:	4b08      	ldr	r3, [pc, #32]	; (80037b4 <osSemaphoreDelete+0x3c>)
 8003794:	681b      	ldr	r3, [r3, #0]
 8003796:	2b02      	cmp	r3, #2
 8003798:	d0f4      	beq.n	8003784 <osSemaphoreDelete+0xc>
 800379a:	2c00      	cmp	r4, #0
 800379c:	d007      	beq.n	80037ae <osSemaphoreDelete+0x36>
 800379e:	0020      	movs	r0, r4
 80037a0:	f000 fdfa 	bl	8004398 <vQueueUnregisterQueue>
 80037a4:	0020      	movs	r0, r4
 80037a6:	f000 fe0b 	bl	80043c0 <vQueueDelete>
 80037aa:	2000      	movs	r0, #0
 80037ac:	bd10      	pop	{r4, pc}
 80037ae:	2004      	movs	r0, #4
 80037b0:	e7e9      	b.n	8003786 <osSemaphoreDelete+0xe>
 80037b2:	46c0      	nop			; (mov r8, r8)
 80037b4:	20000ccc 	.word	0x20000ccc

080037b8 <osMessageQueueNew>:
 80037b8:	b573      	push	{r0, r1, r4, r5, r6, lr}
 80037ba:	0014      	movs	r4, r2
 80037bc:	f3ef 8305 	mrs	r3, IPSR
 80037c0:	2b00      	cmp	r3, #0
 80037c2:	d002      	beq.n	80037ca <osMessageQueueNew+0x12>
 80037c4:	2500      	movs	r5, #0
 80037c6:	0028      	movs	r0, r5
 80037c8:	bd76      	pop	{r1, r2, r4, r5, r6, pc}
 80037ca:	f3ef 8310 	mrs	r3, PRIMASK
 80037ce:	2b00      	cmp	r3, #0
 80037d0:	d003      	beq.n	80037da <osMessageQueueNew+0x22>
 80037d2:	4b1a      	ldr	r3, [pc, #104]	; (800383c <osMessageQueueNew+0x84>)
 80037d4:	681b      	ldr	r3, [r3, #0]
 80037d6:	2b02      	cmp	r3, #2
 80037d8:	d0f4      	beq.n	80037c4 <osMessageQueueNew+0xc>
 80037da:	2800      	cmp	r0, #0
 80037dc:	d0f2      	beq.n	80037c4 <osMessageQueueNew+0xc>
 80037de:	2900      	cmp	r1, #0
 80037e0:	d0f0      	beq.n	80037c4 <osMessageQueueNew+0xc>
 80037e2:	2c00      	cmp	r4, #0
 80037e4:	d01d      	beq.n	8003822 <osMessageQueueNew+0x6a>
 80037e6:	68a3      	ldr	r3, [r4, #8]
 80037e8:	68e2      	ldr	r2, [r4, #12]
 80037ea:	2b00      	cmp	r3, #0
 80037ec:	d011      	beq.n	8003812 <osMessageQueueNew+0x5a>
 80037ee:	2a4f      	cmp	r2, #79	; 0x4f
 80037f0:	d9e8      	bls.n	80037c4 <osMessageQueueNew+0xc>
 80037f2:	6922      	ldr	r2, [r4, #16]
 80037f4:	2a00      	cmp	r2, #0
 80037f6:	d0e5      	beq.n	80037c4 <osMessageQueueNew+0xc>
 80037f8:	000d      	movs	r5, r1
 80037fa:	4345      	muls	r5, r0
 80037fc:	6966      	ldr	r6, [r4, #20]
 80037fe:	42ae      	cmp	r6, r5
 8003800:	d3e0      	bcc.n	80037c4 <osMessageQueueNew+0xc>
 8003802:	2500      	movs	r5, #0
 8003804:	9500      	str	r5, [sp, #0]
 8003806:	f000 faa6 	bl	8003d56 <xQueueGenericCreateStatic>
 800380a:	1e05      	subs	r5, r0, #0
 800380c:	d0da      	beq.n	80037c4 <osMessageQueueNew+0xc>
 800380e:	6824      	ldr	r4, [r4, #0]
 8003810:	e00e      	b.n	8003830 <osMessageQueueNew+0x78>
 8003812:	2a00      	cmp	r2, #0
 8003814:	d1d6      	bne.n	80037c4 <osMessageQueueNew+0xc>
 8003816:	6923      	ldr	r3, [r4, #16]
 8003818:	2b00      	cmp	r3, #0
 800381a:	d1d3      	bne.n	80037c4 <osMessageQueueNew+0xc>
 800381c:	6963      	ldr	r3, [r4, #20]
 800381e:	2b00      	cmp	r3, #0
 8003820:	d1d0      	bne.n	80037c4 <osMessageQueueNew+0xc>
 8003822:	2200      	movs	r2, #0
 8003824:	f000 fac7 	bl	8003db6 <xQueueGenericCreate>
 8003828:	1e05      	subs	r5, r0, #0
 800382a:	d0cb      	beq.n	80037c4 <osMessageQueueNew+0xc>
 800382c:	2c00      	cmp	r4, #0
 800382e:	d1ee      	bne.n	800380e <osMessageQueueNew+0x56>
 8003830:	0021      	movs	r1, r4
 8003832:	0028      	movs	r0, r5
 8003834:	f000 fd9e 	bl	8004374 <vQueueAddToRegistry>
 8003838:	e7c5      	b.n	80037c6 <osMessageQueueNew+0xe>
 800383a:	46c0      	nop			; (mov r8, r8)
 800383c:	20000ccc 	.word	0x20000ccc

08003840 <osMessageQueuePut>:
 8003840:	b513      	push	{r0, r1, r4, lr}
 8003842:	001c      	movs	r4, r3
 8003844:	f3ef 8305 	mrs	r3, IPSR
 8003848:	2b00      	cmp	r3, #0
 800384a:	d004      	beq.n	8003856 <osMessageQueuePut+0x16>
 800384c:	2800      	cmp	r0, #0
 800384e:	d119      	bne.n	8003884 <osMessageQueuePut+0x44>
 8003850:	2004      	movs	r0, #4
 8003852:	4240      	negs	r0, r0
 8003854:	e025      	b.n	80038a2 <osMessageQueuePut+0x62>
 8003856:	f3ef 8310 	mrs	r3, PRIMASK
 800385a:	2b00      	cmp	r3, #0
 800385c:	d003      	beq.n	8003866 <osMessageQueuePut+0x26>
 800385e:	4b14      	ldr	r3, [pc, #80]	; (80038b0 <osMessageQueuePut+0x70>)
 8003860:	681b      	ldr	r3, [r3, #0]
 8003862:	2b02      	cmp	r3, #2
 8003864:	d0f2      	beq.n	800384c <osMessageQueuePut+0xc>
 8003866:	2800      	cmp	r0, #0
 8003868:	d0f2      	beq.n	8003850 <osMessageQueuePut+0x10>
 800386a:	2900      	cmp	r1, #0
 800386c:	d0f0      	beq.n	8003850 <osMessageQueuePut+0x10>
 800386e:	2300      	movs	r3, #0
 8003870:	0022      	movs	r2, r4
 8003872:	f000 fac3 	bl	8003dfc <xQueueGenericSend>
 8003876:	2801      	cmp	r0, #1
 8003878:	d012      	beq.n	80038a0 <osMessageQueuePut+0x60>
 800387a:	2002      	movs	r0, #2
 800387c:	2c00      	cmp	r4, #0
 800387e:	d1e8      	bne.n	8003852 <osMessageQueuePut+0x12>
 8003880:	2003      	movs	r0, #3
 8003882:	e7e6      	b.n	8003852 <osMessageQueuePut+0x12>
 8003884:	2900      	cmp	r1, #0
 8003886:	d0e3      	beq.n	8003850 <osMessageQueuePut+0x10>
 8003888:	2c00      	cmp	r4, #0
 800388a:	d1e1      	bne.n	8003850 <osMessageQueuePut+0x10>
 800388c:	0023      	movs	r3, r4
 800388e:	aa01      	add	r2, sp, #4
 8003890:	9401      	str	r4, [sp, #4]
 8003892:	f000 fb8e 	bl	8003fb2 <xQueueGenericSendFromISR>
 8003896:	2801      	cmp	r0, #1
 8003898:	d1f2      	bne.n	8003880 <osMessageQueuePut+0x40>
 800389a:	9b01      	ldr	r3, [sp, #4]
 800389c:	2b00      	cmp	r3, #0
 800389e:	d101      	bne.n	80038a4 <osMessageQueuePut+0x64>
 80038a0:	2000      	movs	r0, #0
 80038a2:	bd16      	pop	{r1, r2, r4, pc}
 80038a4:	2280      	movs	r2, #128	; 0x80
 80038a6:	4b03      	ldr	r3, [pc, #12]	; (80038b4 <osMessageQueuePut+0x74>)
 80038a8:	0552      	lsls	r2, r2, #21
 80038aa:	601a      	str	r2, [r3, #0]
 80038ac:	e7f8      	b.n	80038a0 <osMessageQueuePut+0x60>
 80038ae:	46c0      	nop			; (mov r8, r8)
 80038b0:	20000ccc 	.word	0x20000ccc
 80038b4:	e000ed04 	.word	0xe000ed04

080038b8 <osMessageQueueGet>:
 80038b8:	b513      	push	{r0, r1, r4, lr}
 80038ba:	001c      	movs	r4, r3
 80038bc:	f3ef 8305 	mrs	r3, IPSR
 80038c0:	2b00      	cmp	r3, #0
 80038c2:	d004      	beq.n	80038ce <osMessageQueueGet+0x16>
 80038c4:	2800      	cmp	r0, #0
 80038c6:	d118      	bne.n	80038fa <osMessageQueueGet+0x42>
 80038c8:	2004      	movs	r0, #4
 80038ca:	4240      	negs	r0, r0
 80038cc:	e023      	b.n	8003916 <osMessageQueueGet+0x5e>
 80038ce:	f3ef 8310 	mrs	r3, PRIMASK
 80038d2:	2b00      	cmp	r3, #0
 80038d4:	d003      	beq.n	80038de <osMessageQueueGet+0x26>
 80038d6:	4b13      	ldr	r3, [pc, #76]	; (8003924 <osMessageQueueGet+0x6c>)
 80038d8:	681b      	ldr	r3, [r3, #0]
 80038da:	2b02      	cmp	r3, #2
 80038dc:	d0f2      	beq.n	80038c4 <osMessageQueueGet+0xc>
 80038de:	2800      	cmp	r0, #0
 80038e0:	d0f2      	beq.n	80038c8 <osMessageQueueGet+0x10>
 80038e2:	2900      	cmp	r1, #0
 80038e4:	d0f0      	beq.n	80038c8 <osMessageQueueGet+0x10>
 80038e6:	0022      	movs	r2, r4
 80038e8:	f000 fbac 	bl	8004044 <xQueueReceive>
 80038ec:	2801      	cmp	r0, #1
 80038ee:	d011      	beq.n	8003914 <osMessageQueueGet+0x5c>
 80038f0:	2002      	movs	r0, #2
 80038f2:	2c00      	cmp	r4, #0
 80038f4:	d1e9      	bne.n	80038ca <osMessageQueueGet+0x12>
 80038f6:	2003      	movs	r0, #3
 80038f8:	e7e7      	b.n	80038ca <osMessageQueueGet+0x12>
 80038fa:	2900      	cmp	r1, #0
 80038fc:	d0e4      	beq.n	80038c8 <osMessageQueueGet+0x10>
 80038fe:	2c00      	cmp	r4, #0
 8003900:	d1e2      	bne.n	80038c8 <osMessageQueueGet+0x10>
 8003902:	aa01      	add	r2, sp, #4
 8003904:	9401      	str	r4, [sp, #4]
 8003906:	f000 fce3 	bl	80042d0 <xQueueReceiveFromISR>
 800390a:	2801      	cmp	r0, #1
 800390c:	d1f3      	bne.n	80038f6 <osMessageQueueGet+0x3e>
 800390e:	9b01      	ldr	r3, [sp, #4]
 8003910:	2b00      	cmp	r3, #0
 8003912:	d101      	bne.n	8003918 <osMessageQueueGet+0x60>
 8003914:	2000      	movs	r0, #0
 8003916:	bd16      	pop	{r1, r2, r4, pc}
 8003918:	2280      	movs	r2, #128	; 0x80
 800391a:	4b03      	ldr	r3, [pc, #12]	; (8003928 <osMessageQueueGet+0x70>)
 800391c:	0552      	lsls	r2, r2, #21
 800391e:	601a      	str	r2, [r3, #0]
 8003920:	e7f8      	b.n	8003914 <osMessageQueueGet+0x5c>
 8003922:	46c0      	nop			; (mov r8, r8)
 8003924:	20000ccc 	.word	0x20000ccc
 8003928:	e000ed04 	.word	0xe000ed04

0800392c <osMessageQueueGetCount>:
 800392c:	b510      	push	{r4, lr}
 800392e:	f7ff ff09 	bl	8003744 <osSemaphoreGetCount>
 8003932:	bd10      	pop	{r4, pc}

08003934 <osMessageQueueDelete>:
 8003934:	b510      	push	{r4, lr}
 8003936:	f7ff ff1f 	bl	8003778 <osSemaphoreDelete>
 800393a:	bd10      	pop	{r4, pc}

0800393c <vApplicationGetIdleTaskMemory>:
 800393c:	4b03      	ldr	r3, [pc, #12]	; (800394c <vApplicationGetIdleTaskMemory+0x10>)
 800393e:	6003      	str	r3, [r0, #0]
 8003940:	4b03      	ldr	r3, [pc, #12]	; (8003950 <vApplicationGetIdleTaskMemory+0x14>)
 8003942:	600b      	str	r3, [r1, #0]
 8003944:	2380      	movs	r3, #128	; 0x80
 8003946:	6013      	str	r3, [r2, #0]
 8003948:	4770      	bx	lr
 800394a:	46c0      	nop			; (mov r8, r8)
 800394c:	20000c10 	.word	0x20000c10
 8003950:	20000a10 	.word	0x20000a10

08003954 <vApplicationGetTimerTaskMemory>:
 8003954:	4b03      	ldr	r3, [pc, #12]	; (8003964 <vApplicationGetTimerTaskMemory+0x10>)
 8003956:	6003      	str	r3, [r0, #0]
 8003958:	4b03      	ldr	r3, [pc, #12]	; (8003968 <vApplicationGetTimerTaskMemory+0x14>)
 800395a:	600b      	str	r3, [r1, #0]
 800395c:	2380      	movs	r3, #128	; 0x80
 800395e:	005b      	lsls	r3, r3, #1
 8003960:	6013      	str	r3, [r2, #0]
 8003962:	4770      	bx	lr
 8003964:	200010d0 	.word	0x200010d0
 8003968:	20000cd0 	.word	0x20000cd0

0800396c <xEventGroupCreateStatic>:
 800396c:	b513      	push	{r0, r1, r4, lr}
 800396e:	1e04      	subs	r4, r0, #0
 8003970:	d101      	bne.n	8003976 <xEventGroupCreateStatic+0xa>
 8003972:	b672      	cpsid	i
 8003974:	e7fe      	b.n	8003974 <xEventGroupCreateStatic+0x8>
 8003976:	2320      	movs	r3, #32
 8003978:	9301      	str	r3, [sp, #4]
 800397a:	9b01      	ldr	r3, [sp, #4]
 800397c:	2b20      	cmp	r3, #32
 800397e:	d001      	beq.n	8003984 <xEventGroupCreateStatic+0x18>
 8003980:	b672      	cpsid	i
 8003982:	e7fe      	b.n	8003982 <xEventGroupCreateStatic+0x16>
 8003984:	2300      	movs	r3, #0
 8003986:	c008      	stmia	r0!, {r3}
 8003988:	f000 f8e4 	bl	8003b54 <vListInitialise>
 800398c:	2301      	movs	r3, #1
 800398e:	0020      	movs	r0, r4
 8003990:	7723      	strb	r3, [r4, #28]
 8003992:	bd16      	pop	{r1, r2, r4, pc}

08003994 <xEventGroupCreate>:
 8003994:	b570      	push	{r4, r5, r6, lr}
 8003996:	2020      	movs	r0, #32
 8003998:	f001 fd62 	bl	8005460 <pvPortMalloc>
 800399c:	1e04      	subs	r4, r0, #0
 800399e:	d004      	beq.n	80039aa <xEventGroupCreate+0x16>
 80039a0:	2500      	movs	r5, #0
 80039a2:	c020      	stmia	r0!, {r5}
 80039a4:	f000 f8d6 	bl	8003b54 <vListInitialise>
 80039a8:	7725      	strb	r5, [r4, #28]
 80039aa:	0020      	movs	r0, r4
 80039ac:	bd70      	pop	{r4, r5, r6, pc}

080039ae <xEventGroupWaitBits>:
 80039ae:	b5f7      	push	{r0, r1, r2, r4, r5, r6, r7, lr}
 80039b0:	0006      	movs	r6, r0
 80039b2:	000d      	movs	r5, r1
 80039b4:	9200      	str	r2, [sp, #0]
 80039b6:	9301      	str	r3, [sp, #4]
 80039b8:	2800      	cmp	r0, #0
 80039ba:	d101      	bne.n	80039c0 <xEventGroupWaitBits+0x12>
 80039bc:	b672      	cpsid	i
 80039be:	e7fe      	b.n	80039be <xEventGroupWaitBits+0x10>
 80039c0:	0e0b      	lsrs	r3, r1, #24
 80039c2:	061f      	lsls	r7, r3, #24
 80039c4:	2b00      	cmp	r3, #0
 80039c6:	d001      	beq.n	80039cc <xEventGroupWaitBits+0x1e>
 80039c8:	b672      	cpsid	i
 80039ca:	e7fe      	b.n	80039ca <xEventGroupWaitBits+0x1c>
 80039cc:	2900      	cmp	r1, #0
 80039ce:	d101      	bne.n	80039d4 <xEventGroupWaitBits+0x26>
 80039d0:	b672      	cpsid	i
 80039d2:	e7fe      	b.n	80039d2 <xEventGroupWaitBits+0x24>
 80039d4:	f001 f96c 	bl	8004cb0 <xTaskGetSchedulerState>
 80039d8:	2800      	cmp	r0, #0
 80039da:	d104      	bne.n	80039e6 <xEventGroupWaitBits+0x38>
 80039dc:	9b08      	ldr	r3, [sp, #32]
 80039de:	2b00      	cmp	r3, #0
 80039e0:	d001      	beq.n	80039e6 <xEventGroupWaitBits+0x38>
 80039e2:	b672      	cpsid	i
 80039e4:	e7fe      	b.n	80039e4 <xEventGroupWaitBits+0x36>
 80039e6:	f000 ff09 	bl	80047fc <vTaskSuspendAll>
 80039ea:	6834      	ldr	r4, [r6, #0]
 80039ec:	9a01      	ldr	r2, [sp, #4]
 80039ee:	0023      	movs	r3, r4
 80039f0:	402b      	ands	r3, r5
 80039f2:	2a00      	cmp	r2, #0
 80039f4:	d117      	bne.n	8003a26 <xEventGroupWaitBits+0x78>
 80039f6:	2b00      	cmp	r3, #0
 80039f8:	d117      	bne.n	8003a2a <xEventGroupWaitBits+0x7c>
 80039fa:	2700      	movs	r7, #0
 80039fc:	9b08      	ldr	r3, [sp, #32]
 80039fe:	42bb      	cmp	r3, r7
 8003a00:	d019      	beq.n	8003a36 <xEventGroupWaitBits+0x88>
 8003a02:	9900      	ldr	r1, [sp, #0]
 8003a04:	1e4b      	subs	r3, r1, #1
 8003a06:	4199      	sbcs	r1, r3
 8003a08:	9b01      	ldr	r3, [sp, #4]
 8003a0a:	0609      	lsls	r1, r1, #24
 8003a0c:	42bb      	cmp	r3, r7
 8003a0e:	d002      	beq.n	8003a16 <xEventGroupWaitBits+0x68>
 8003a10:	2380      	movs	r3, #128	; 0x80
 8003a12:	04db      	lsls	r3, r3, #19
 8003a14:	4319      	orrs	r1, r3
 8003a16:	9a08      	ldr	r2, [sp, #32]
 8003a18:	4329      	orrs	r1, r5
 8003a1a:	1d30      	adds	r0, r6, #4
 8003a1c:	f001 f852 	bl	8004ac4 <vTaskPlaceOnUnorderedEventList>
 8003a20:	2400      	movs	r4, #0
 8003a22:	9f08      	ldr	r7, [sp, #32]
 8003a24:	e007      	b.n	8003a36 <xEventGroupWaitBits+0x88>
 8003a26:	429d      	cmp	r5, r3
 8003a28:	d1e7      	bne.n	80039fa <xEventGroupWaitBits+0x4c>
 8003a2a:	9b00      	ldr	r3, [sp, #0]
 8003a2c:	2b00      	cmp	r3, #0
 8003a2e:	d002      	beq.n	8003a36 <xEventGroupWaitBits+0x88>
 8003a30:	0023      	movs	r3, r4
 8003a32:	43ab      	bics	r3, r5
 8003a34:	6033      	str	r3, [r6, #0]
 8003a36:	f000 ff75 	bl	8004924 <xTaskResumeAll>
 8003a3a:	2f00      	cmp	r7, #0
 8003a3c:	d016      	beq.n	8003a6c <xEventGroupWaitBits+0xbe>
 8003a3e:	2800      	cmp	r0, #0
 8003a40:	d101      	bne.n	8003a46 <xEventGroupWaitBits+0x98>
 8003a42:	f001 fc83 	bl	800534c <vPortYield>
 8003a46:	f001 f9f3 	bl	8004e30 <uxTaskResetEventItemValue>
 8003a4a:	0004      	movs	r4, r0
 8003a4c:	0183      	lsls	r3, r0, #6
 8003a4e:	d40b      	bmi.n	8003a68 <xEventGroupWaitBits+0xba>
 8003a50:	f001 fc88 	bl	8005364 <vPortEnterCritical>
 8003a54:	6834      	ldr	r4, [r6, #0]
 8003a56:	9a01      	ldr	r2, [sp, #4]
 8003a58:	0023      	movs	r3, r4
 8003a5a:	402b      	ands	r3, r5
 8003a5c:	2a00      	cmp	r2, #0
 8003a5e:	d107      	bne.n	8003a70 <xEventGroupWaitBits+0xc2>
 8003a60:	2b00      	cmp	r3, #0
 8003a62:	d107      	bne.n	8003a74 <xEventGroupWaitBits+0xc6>
 8003a64:	f001 fc8a 	bl	800537c <vPortExitCritical>
 8003a68:	0224      	lsls	r4, r4, #8
 8003a6a:	0a24      	lsrs	r4, r4, #8
 8003a6c:	0020      	movs	r0, r4
 8003a6e:	bdfe      	pop	{r1, r2, r3, r4, r5, r6, r7, pc}
 8003a70:	429d      	cmp	r5, r3
 8003a72:	d1f7      	bne.n	8003a64 <xEventGroupWaitBits+0xb6>
 8003a74:	9b00      	ldr	r3, [sp, #0]
 8003a76:	2b00      	cmp	r3, #0
 8003a78:	d0f4      	beq.n	8003a64 <xEventGroupWaitBits+0xb6>
 8003a7a:	0023      	movs	r3, r4
 8003a7c:	43ab      	bics	r3, r5
 8003a7e:	6033      	str	r3, [r6, #0]
 8003a80:	e7f0      	b.n	8003a64 <xEventGroupWaitBits+0xb6>

08003a82 <xEventGroupSetBits>:
 8003a82:	b5f7      	push	{r0, r1, r2, r4, r5, r6, r7, lr}
 8003a84:	0004      	movs	r4, r0
 8003a86:	000e      	movs	r6, r1
 8003a88:	2800      	cmp	r0, #0
 8003a8a:	d101      	bne.n	8003a90 <xEventGroupSetBits+0xe>
 8003a8c:	b672      	cpsid	i
 8003a8e:	e7fe      	b.n	8003a8e <xEventGroupSetBits+0xc>
 8003a90:	0e0b      	lsrs	r3, r1, #24
 8003a92:	061d      	lsls	r5, r3, #24
 8003a94:	2b00      	cmp	r3, #0
 8003a96:	d001      	beq.n	8003a9c <xEventGroupSetBits+0x1a>
 8003a98:	b672      	cpsid	i
 8003a9a:	e7fe      	b.n	8003a9a <xEventGroupSetBits+0x18>
 8003a9c:	0003      	movs	r3, r0
 8003a9e:	330c      	adds	r3, #12
 8003aa0:	9301      	str	r3, [sp, #4]
 8003aa2:	f000 feab 	bl	80047fc <vTaskSuspendAll>
 8003aa6:	6823      	ldr	r3, [r4, #0]
 8003aa8:	6920      	ldr	r0, [r4, #16]
 8003aaa:	431e      	orrs	r6, r3
 8003aac:	6026      	str	r6, [r4, #0]
 8003aae:	9b01      	ldr	r3, [sp, #4]
 8003ab0:	6821      	ldr	r1, [r4, #0]
 8003ab2:	4283      	cmp	r3, r0
 8003ab4:	d105      	bne.n	8003ac2 <xEventGroupSetBits+0x40>
 8003ab6:	43a9      	bics	r1, r5
 8003ab8:	6021      	str	r1, [r4, #0]
 8003aba:	f000 ff33 	bl	8004924 <xTaskResumeAll>
 8003abe:	6820      	ldr	r0, [r4, #0]
 8003ac0:	bdfe      	pop	{r1, r2, r3, r4, r5, r6, r7, pc}
 8003ac2:	000e      	movs	r6, r1
 8003ac4:	6802      	ldr	r2, [r0, #0]
 8003ac6:	6847      	ldr	r7, [r0, #4]
 8003ac8:	0213      	lsls	r3, r2, #8
 8003aca:	0a1b      	lsrs	r3, r3, #8
 8003acc:	401e      	ands	r6, r3
 8003ace:	46b4      	mov	ip, r6
 8003ad0:	2680      	movs	r6, #128	; 0x80
 8003ad2:	04f6      	lsls	r6, r6, #19
 8003ad4:	4232      	tst	r2, r6
 8003ad6:	d104      	bne.n	8003ae2 <xEventGroupSetBits+0x60>
 8003ad8:	4666      	mov	r6, ip
 8003ada:	2e00      	cmp	r6, #0
 8003adc:	d103      	bne.n	8003ae6 <xEventGroupSetBits+0x64>
 8003ade:	0038      	movs	r0, r7
 8003ae0:	e7e5      	b.n	8003aae <xEventGroupSetBits+0x2c>
 8003ae2:	4563      	cmp	r3, ip
 8003ae4:	d1fb      	bne.n	8003ade <xEventGroupSetBits+0x5c>
 8003ae6:	2680      	movs	r6, #128	; 0x80
 8003ae8:	0476      	lsls	r6, r6, #17
 8003aea:	4232      	tst	r2, r6
 8003aec:	d000      	beq.n	8003af0 <xEventGroupSetBits+0x6e>
 8003aee:	431d      	orrs	r5, r3
 8003af0:	2380      	movs	r3, #128	; 0x80
 8003af2:	049b      	lsls	r3, r3, #18
 8003af4:	4319      	orrs	r1, r3
 8003af6:	f001 f859 	bl	8004bac <vTaskRemoveFromUnorderedEventList>
 8003afa:	e7f0      	b.n	8003ade <xEventGroupSetBits+0x5c>

08003afc <vEventGroupSetBitsCallback>:
 8003afc:	b510      	push	{r4, lr}
 8003afe:	f7ff ffc0 	bl	8003a82 <xEventGroupSetBits>
 8003b02:	bd10      	pop	{r4, pc}

08003b04 <vEventGroupDelete>:
 8003b04:	b570      	push	{r4, r5, r6, lr}
 8003b06:	2580      	movs	r5, #128	; 0x80
 8003b08:	0004      	movs	r4, r0
 8003b0a:	f000 fe77 	bl	80047fc <vTaskSuspendAll>
 8003b0e:	04ad      	lsls	r5, r5, #18
 8003b10:	6863      	ldr	r3, [r4, #4]
 8003b12:	2b00      	cmp	r3, #0
 8003b14:	d108      	bne.n	8003b28 <vEventGroupDelete+0x24>
 8003b16:	7f23      	ldrb	r3, [r4, #28]
 8003b18:	2b00      	cmp	r3, #0
 8003b1a:	d102      	bne.n	8003b22 <vEventGroupDelete+0x1e>
 8003b1c:	0020      	movs	r0, r4
 8003b1e:	f001 fd1d 	bl	800555c <vPortFree>
 8003b22:	f000 feff 	bl	8004924 <xTaskResumeAll>
 8003b26:	bd70      	pop	{r4, r5, r6, pc}
 8003b28:	0023      	movs	r3, r4
 8003b2a:	6920      	ldr	r0, [r4, #16]
 8003b2c:	330c      	adds	r3, #12
 8003b2e:	4298      	cmp	r0, r3
 8003b30:	d101      	bne.n	8003b36 <vEventGroupDelete+0x32>
 8003b32:	b672      	cpsid	i
 8003b34:	e7fe      	b.n	8003b34 <vEventGroupDelete+0x30>
 8003b36:	0029      	movs	r1, r5
 8003b38:	f001 f838 	bl	8004bac <vTaskRemoveFromUnorderedEventList>
 8003b3c:	e7e8      	b.n	8003b10 <vEventGroupDelete+0xc>
	...

08003b40 <xEventGroupSetBitsFromISR>:
 8003b40:	b510      	push	{r4, lr}
 8003b42:	0013      	movs	r3, r2
 8003b44:	000a      	movs	r2, r1
 8003b46:	0001      	movs	r1, r0
 8003b48:	4801      	ldr	r0, [pc, #4]	; (8003b50 <xEventGroupSetBitsFromISR+0x10>)
 8003b4a:	f001 fb7b 	bl	8005244 <xTimerPendFunctionCallFromISR>
 8003b4e:	bd10      	pop	{r4, pc}
 8003b50:	08003afd 	.word	0x08003afd

08003b54 <vListInitialise>:
 8003b54:	0003      	movs	r3, r0
 8003b56:	2201      	movs	r2, #1
 8003b58:	3308      	adds	r3, #8
 8003b5a:	6043      	str	r3, [r0, #4]
 8003b5c:	60c3      	str	r3, [r0, #12]
 8003b5e:	6103      	str	r3, [r0, #16]
 8003b60:	2300      	movs	r3, #0
 8003b62:	4252      	negs	r2, r2
 8003b64:	6082      	str	r2, [r0, #8]
 8003b66:	6003      	str	r3, [r0, #0]
 8003b68:	4770      	bx	lr

08003b6a <vListInitialiseItem>:
 8003b6a:	2300      	movs	r3, #0
 8003b6c:	6103      	str	r3, [r0, #16]
 8003b6e:	4770      	bx	lr

08003b70 <vListInsertEnd>:
 8003b70:	6843      	ldr	r3, [r0, #4]
 8003b72:	689a      	ldr	r2, [r3, #8]
 8003b74:	604b      	str	r3, [r1, #4]
 8003b76:	608a      	str	r2, [r1, #8]
 8003b78:	689a      	ldr	r2, [r3, #8]
 8003b7a:	6051      	str	r1, [r2, #4]
 8003b7c:	6099      	str	r1, [r3, #8]
 8003b7e:	6803      	ldr	r3, [r0, #0]
 8003b80:	6108      	str	r0, [r1, #16]
 8003b82:	3301      	adds	r3, #1
 8003b84:	6003      	str	r3, [r0, #0]
 8003b86:	4770      	bx	lr

08003b88 <vListInsert>:
 8003b88:	0002      	movs	r2, r0
 8003b8a:	b530      	push	{r4, r5, lr}
 8003b8c:	680c      	ldr	r4, [r1, #0]
 8003b8e:	3208      	adds	r2, #8
 8003b90:	1c63      	adds	r3, r4, #1
 8003b92:	d10a      	bne.n	8003baa <vListInsert+0x22>
 8003b94:	6903      	ldr	r3, [r0, #16]
 8003b96:	685a      	ldr	r2, [r3, #4]
 8003b98:	604a      	str	r2, [r1, #4]
 8003b9a:	6091      	str	r1, [r2, #8]
 8003b9c:	608b      	str	r3, [r1, #8]
 8003b9e:	6059      	str	r1, [r3, #4]
 8003ba0:	6803      	ldr	r3, [r0, #0]
 8003ba2:	6108      	str	r0, [r1, #16]
 8003ba4:	3301      	adds	r3, #1
 8003ba6:	6003      	str	r3, [r0, #0]
 8003ba8:	bd30      	pop	{r4, r5, pc}
 8003baa:	0013      	movs	r3, r2
 8003bac:	6852      	ldr	r2, [r2, #4]
 8003bae:	6815      	ldr	r5, [r2, #0]
 8003bb0:	42a5      	cmp	r5, r4
 8003bb2:	d9fa      	bls.n	8003baa <vListInsert+0x22>
 8003bb4:	e7ef      	b.n	8003b96 <vListInsert+0xe>

08003bb6 <uxListRemove>:
 8003bb6:	6903      	ldr	r3, [r0, #16]
 8003bb8:	6841      	ldr	r1, [r0, #4]
 8003bba:	6882      	ldr	r2, [r0, #8]
 8003bbc:	608a      	str	r2, [r1, #8]
 8003bbe:	6051      	str	r1, [r2, #4]
 8003bc0:	6859      	ldr	r1, [r3, #4]
 8003bc2:	4281      	cmp	r1, r0
 8003bc4:	d100      	bne.n	8003bc8 <uxListRemove+0x12>
 8003bc6:	605a      	str	r2, [r3, #4]
 8003bc8:	2200      	movs	r2, #0
 8003bca:	6102      	str	r2, [r0, #16]
 8003bcc:	681a      	ldr	r2, [r3, #0]
 8003bce:	3a01      	subs	r2, #1
 8003bd0:	601a      	str	r2, [r3, #0]
 8003bd2:	6818      	ldr	r0, [r3, #0]
 8003bd4:	4770      	bx	lr

08003bd6 <prvIsQueueEmpty>:
 8003bd6:	b510      	push	{r4, lr}
 8003bd8:	0004      	movs	r4, r0
 8003bda:	f001 fbc3 	bl	8005364 <vPortEnterCritical>
 8003bde:	6ba4      	ldr	r4, [r4, #56]	; 0x38
 8003be0:	f001 fbcc 	bl	800537c <vPortExitCritical>
 8003be4:	4260      	negs	r0, r4
 8003be6:	4160      	adcs	r0, r4
 8003be8:	bd10      	pop	{r4, pc}

08003bea <prvCopyDataToQueue>:
 8003bea:	b5f8      	push	{r3, r4, r5, r6, r7, lr}
 8003bec:	0015      	movs	r5, r2
 8003bee:	6c02      	ldr	r2, [r0, #64]	; 0x40
 8003bf0:	0004      	movs	r4, r0
 8003bf2:	6b86      	ldr	r6, [r0, #56]	; 0x38
 8003bf4:	2a00      	cmp	r2, #0
 8003bf6:	d10c      	bne.n	8003c12 <prvCopyDataToQueue+0x28>
 8003bf8:	6807      	ldr	r7, [r0, #0]
 8003bfa:	0015      	movs	r5, r2
 8003bfc:	2f00      	cmp	r7, #0
 8003bfe:	d104      	bne.n	8003c0a <prvCopyDataToQueue+0x20>
 8003c00:	6840      	ldr	r0, [r0, #4]
 8003c02:	f001 f8a3 	bl	8004d4c <xTaskPriorityDisinherit>
 8003c06:	0005      	movs	r5, r0
 8003c08:	6067      	str	r7, [r4, #4]
 8003c0a:	3601      	adds	r6, #1
 8003c0c:	0028      	movs	r0, r5
 8003c0e:	63a6      	str	r6, [r4, #56]	; 0x38
 8003c10:	bdf8      	pop	{r3, r4, r5, r6, r7, pc}
 8003c12:	2d00      	cmp	r5, #0
 8003c14:	d10c      	bne.n	8003c30 <prvCopyDataToQueue+0x46>
 8003c16:	6880      	ldr	r0, [r0, #8]
 8003c18:	f001 fd3c 	bl	8005694 <memcpy>
 8003c1c:	68a3      	ldr	r3, [r4, #8]
 8003c1e:	6c22      	ldr	r2, [r4, #64]	; 0x40
 8003c20:	189b      	adds	r3, r3, r2
 8003c22:	6862      	ldr	r2, [r4, #4]
 8003c24:	60a3      	str	r3, [r4, #8]
 8003c26:	4293      	cmp	r3, r2
 8003c28:	d3ef      	bcc.n	8003c0a <prvCopyDataToQueue+0x20>
 8003c2a:	6823      	ldr	r3, [r4, #0]
 8003c2c:	60a3      	str	r3, [r4, #8]
 8003c2e:	e7ec      	b.n	8003c0a <prvCopyDataToQueue+0x20>
 8003c30:	68c0      	ldr	r0, [r0, #12]
 8003c32:	f001 fd2f 	bl	8005694 <memcpy>
 8003c36:	68e3      	ldr	r3, [r4, #12]
 8003c38:	6c22      	ldr	r2, [r4, #64]	; 0x40
 8003c3a:	4251      	negs	r1, r2
 8003c3c:	1a9a      	subs	r2, r3, r2
 8003c3e:	6823      	ldr	r3, [r4, #0]
 8003c40:	60e2      	str	r2, [r4, #12]
 8003c42:	429a      	cmp	r2, r3
 8003c44:	d202      	bcs.n	8003c4c <prvCopyDataToQueue+0x62>
 8003c46:	6863      	ldr	r3, [r4, #4]
 8003c48:	1859      	adds	r1, r3, r1
 8003c4a:	60e1      	str	r1, [r4, #12]
 8003c4c:	2d02      	cmp	r5, #2
 8003c4e:	d105      	bne.n	8003c5c <prvCopyDataToQueue+0x72>
 8003c50:	0033      	movs	r3, r6
 8003c52:	1e5a      	subs	r2, r3, #1
 8003c54:	4193      	sbcs	r3, r2
 8003c56:	2500      	movs	r5, #0
 8003c58:	1af6      	subs	r6, r6, r3
 8003c5a:	e7d6      	b.n	8003c0a <prvCopyDataToQueue+0x20>
 8003c5c:	2500      	movs	r5, #0
 8003c5e:	e7d4      	b.n	8003c0a <prvCopyDataToQueue+0x20>

08003c60 <prvCopyDataFromQueue>:
 8003c60:	0003      	movs	r3, r0
 8003c62:	6c1a      	ldr	r2, [r3, #64]	; 0x40
 8003c64:	0008      	movs	r0, r1
 8003c66:	b510      	push	{r4, lr}
 8003c68:	2a00      	cmp	r2, #0
 8003c6a:	d00a      	beq.n	8003c82 <prvCopyDataFromQueue+0x22>
 8003c6c:	68d9      	ldr	r1, [r3, #12]
 8003c6e:	188c      	adds	r4, r1, r2
 8003c70:	6859      	ldr	r1, [r3, #4]
 8003c72:	60dc      	str	r4, [r3, #12]
 8003c74:	428c      	cmp	r4, r1
 8003c76:	d301      	bcc.n	8003c7c <prvCopyDataFromQueue+0x1c>
 8003c78:	6819      	ldr	r1, [r3, #0]
 8003c7a:	60d9      	str	r1, [r3, #12]
 8003c7c:	68d9      	ldr	r1, [r3, #12]
 8003c7e:	f001 fd09 	bl	8005694 <memcpy>
 8003c82:	bd10      	pop	{r4, pc}

08003c84 <prvUnlockQueue>:
 8003c84:	b570      	push	{r4, r5, r6, lr}
 8003c86:	0004      	movs	r4, r0
 8003c88:	0026      	movs	r6, r4
 8003c8a:	3645      	adds	r6, #69	; 0x45
 8003c8c:	f001 fb6a 	bl	8005364 <vPortEnterCritical>
 8003c90:	7835      	ldrb	r5, [r6, #0]
 8003c92:	b26d      	sxtb	r5, r5
 8003c94:	2d00      	cmp	r5, #0
 8003c96:	dc10      	bgt.n	8003cba <prvUnlockQueue+0x36>
 8003c98:	23ff      	movs	r3, #255	; 0xff
 8003c9a:	7033      	strb	r3, [r6, #0]
 8003c9c:	0026      	movs	r6, r4
 8003c9e:	3644      	adds	r6, #68	; 0x44
 8003ca0:	f001 fb6c 	bl	800537c <vPortExitCritical>
 8003ca4:	f001 fb5e 	bl	8005364 <vPortEnterCritical>
 8003ca8:	7835      	ldrb	r5, [r6, #0]
 8003caa:	b26d      	sxtb	r5, r5
 8003cac:	2d00      	cmp	r5, #0
 8003cae:	dc11      	bgt.n	8003cd4 <prvUnlockQueue+0x50>
 8003cb0:	23ff      	movs	r3, #255	; 0xff
 8003cb2:	7033      	strb	r3, [r6, #0]
 8003cb4:	f001 fb62 	bl	800537c <vPortExitCritical>
 8003cb8:	bd70      	pop	{r4, r5, r6, pc}
 8003cba:	6a63      	ldr	r3, [r4, #36]	; 0x24
 8003cbc:	2b00      	cmp	r3, #0
 8003cbe:	d0eb      	beq.n	8003c98 <prvUnlockQueue+0x14>
 8003cc0:	0020      	movs	r0, r4
 8003cc2:	3024      	adds	r0, #36	; 0x24
 8003cc4:	f000 ff36 	bl	8004b34 <xTaskRemoveFromEventList>
 8003cc8:	2800      	cmp	r0, #0
 8003cca:	d001      	beq.n	8003cd0 <prvUnlockQueue+0x4c>
 8003ccc:	f000 ffe4 	bl	8004c98 <vTaskMissedYield>
 8003cd0:	3d01      	subs	r5, #1
 8003cd2:	e7de      	b.n	8003c92 <prvUnlockQueue+0xe>
 8003cd4:	6923      	ldr	r3, [r4, #16]
 8003cd6:	2b00      	cmp	r3, #0
 8003cd8:	d0ea      	beq.n	8003cb0 <prvUnlockQueue+0x2c>
 8003cda:	0020      	movs	r0, r4
 8003cdc:	3010      	adds	r0, #16
 8003cde:	f000 ff29 	bl	8004b34 <xTaskRemoveFromEventList>
 8003ce2:	2800      	cmp	r0, #0
 8003ce4:	d001      	beq.n	8003cea <prvUnlockQueue+0x66>
 8003ce6:	f000 ffd7 	bl	8004c98 <vTaskMissedYield>
 8003cea:	3d01      	subs	r5, #1
 8003cec:	e7dd      	b.n	8003caa <prvUnlockQueue+0x26>

08003cee <xQueueGenericReset>:
 8003cee:	b570      	push	{r4, r5, r6, lr}
 8003cf0:	0004      	movs	r4, r0
 8003cf2:	000d      	movs	r5, r1
 8003cf4:	2800      	cmp	r0, #0
 8003cf6:	d101      	bne.n	8003cfc <xQueueGenericReset+0xe>
 8003cf8:	b672      	cpsid	i
 8003cfa:	e7fe      	b.n	8003cfa <xQueueGenericReset+0xc>
 8003cfc:	f001 fb32 	bl	8005364 <vPortEnterCritical>
 8003d00:	6c21      	ldr	r1, [r4, #64]	; 0x40
 8003d02:	6be3      	ldr	r3, [r4, #60]	; 0x3c
 8003d04:	6822      	ldr	r2, [r4, #0]
 8003d06:	434b      	muls	r3, r1
 8003d08:	18d0      	adds	r0, r2, r3
 8003d0a:	1a5b      	subs	r3, r3, r1
 8003d0c:	18d3      	adds	r3, r2, r3
 8003d0e:	60e3      	str	r3, [r4, #12]
 8003d10:	0023      	movs	r3, r4
 8003d12:	6060      	str	r0, [r4, #4]
 8003d14:	60a2      	str	r2, [r4, #8]
 8003d16:	2000      	movs	r0, #0
 8003d18:	22ff      	movs	r2, #255	; 0xff
 8003d1a:	3344      	adds	r3, #68	; 0x44
 8003d1c:	63a0      	str	r0, [r4, #56]	; 0x38
 8003d1e:	701a      	strb	r2, [r3, #0]
 8003d20:	705a      	strb	r2, [r3, #1]
 8003d22:	4285      	cmp	r5, r0
 8003d24:	d10e      	bne.n	8003d44 <xQueueGenericReset+0x56>
 8003d26:	6923      	ldr	r3, [r4, #16]
 8003d28:	4283      	cmp	r3, r0
 8003d2a:	d007      	beq.n	8003d3c <xQueueGenericReset+0x4e>
 8003d2c:	0020      	movs	r0, r4
 8003d2e:	3010      	adds	r0, #16
 8003d30:	f000 ff00 	bl	8004b34 <xTaskRemoveFromEventList>
 8003d34:	2800      	cmp	r0, #0
 8003d36:	d001      	beq.n	8003d3c <xQueueGenericReset+0x4e>
 8003d38:	f001 fb08 	bl	800534c <vPortYield>
 8003d3c:	f001 fb1e 	bl	800537c <vPortExitCritical>
 8003d40:	2001      	movs	r0, #1
 8003d42:	bd70      	pop	{r4, r5, r6, pc}
 8003d44:	0020      	movs	r0, r4
 8003d46:	3010      	adds	r0, #16
 8003d48:	f7ff ff04 	bl	8003b54 <vListInitialise>
 8003d4c:	0020      	movs	r0, r4
 8003d4e:	3024      	adds	r0, #36	; 0x24
 8003d50:	f7ff ff00 	bl	8003b54 <vListInitialise>
 8003d54:	e7f2      	b.n	8003d3c <xQueueGenericReset+0x4e>

08003d56 <xQueueGenericCreateStatic>:
 8003d56:	b573      	push	{r0, r1, r4, r5, r6, lr}
 8003d58:	001c      	movs	r4, r3
 8003d5a:	ab06      	add	r3, sp, #24
 8003d5c:	781d      	ldrb	r5, [r3, #0]
 8003d5e:	2800      	cmp	r0, #0
 8003d60:	d101      	bne.n	8003d66 <xQueueGenericCreateStatic+0x10>
 8003d62:	b672      	cpsid	i
 8003d64:	e7fe      	b.n	8003d64 <xQueueGenericCreateStatic+0xe>
 8003d66:	2c00      	cmp	r4, #0
 8003d68:	d101      	bne.n	8003d6e <xQueueGenericCreateStatic+0x18>
 8003d6a:	b672      	cpsid	i
 8003d6c:	e7fe      	b.n	8003d6c <xQueueGenericCreateStatic+0x16>
 8003d6e:	2a00      	cmp	r2, #0
 8003d70:	d003      	beq.n	8003d7a <xQueueGenericCreateStatic+0x24>
 8003d72:	2900      	cmp	r1, #0
 8003d74:	d105      	bne.n	8003d82 <xQueueGenericCreateStatic+0x2c>
 8003d76:	b672      	cpsid	i
 8003d78:	e7fe      	b.n	8003d78 <xQueueGenericCreateStatic+0x22>
 8003d7a:	2900      	cmp	r1, #0
 8003d7c:	d001      	beq.n	8003d82 <xQueueGenericCreateStatic+0x2c>
 8003d7e:	b672      	cpsid	i
 8003d80:	e7fe      	b.n	8003d80 <xQueueGenericCreateStatic+0x2a>
 8003d82:	2350      	movs	r3, #80	; 0x50
 8003d84:	9301      	str	r3, [sp, #4]
 8003d86:	9b01      	ldr	r3, [sp, #4]
 8003d88:	2b50      	cmp	r3, #80	; 0x50
 8003d8a:	d001      	beq.n	8003d90 <xQueueGenericCreateStatic+0x3a>
 8003d8c:	b672      	cpsid	i
 8003d8e:	e7fe      	b.n	8003d8e <xQueueGenericCreateStatic+0x38>
 8003d90:	0023      	movs	r3, r4
 8003d92:	2601      	movs	r6, #1
 8003d94:	3346      	adds	r3, #70	; 0x46
 8003d96:	701e      	strb	r6, [r3, #0]
 8003d98:	2900      	cmp	r1, #0
 8003d9a:	d100      	bne.n	8003d9e <xQueueGenericCreateStatic+0x48>
 8003d9c:	0022      	movs	r2, r4
 8003d9e:	63e0      	str	r0, [r4, #60]	; 0x3c
 8003da0:	6421      	str	r1, [r4, #64]	; 0x40
 8003da2:	0020      	movs	r0, r4
 8003da4:	2101      	movs	r1, #1
 8003da6:	6022      	str	r2, [r4, #0]
 8003da8:	f7ff ffa1 	bl	8003cee <xQueueGenericReset>
 8003dac:	0023      	movs	r3, r4
 8003dae:	334c      	adds	r3, #76	; 0x4c
 8003db0:	0020      	movs	r0, r4
 8003db2:	701d      	strb	r5, [r3, #0]
 8003db4:	bd76      	pop	{r1, r2, r4, r5, r6, pc}

08003db6 <xQueueGenericCreate>:
 8003db6:	b5f8      	push	{r3, r4, r5, r6, r7, lr}
 8003db8:	0006      	movs	r6, r0
 8003dba:	000d      	movs	r5, r1
 8003dbc:	0017      	movs	r7, r2
 8003dbe:	2800      	cmp	r0, #0
 8003dc0:	d101      	bne.n	8003dc6 <xQueueGenericCreate+0x10>
 8003dc2:	b672      	cpsid	i
 8003dc4:	e7fe      	b.n	8003dc4 <xQueueGenericCreate+0xe>
 8003dc6:	0008      	movs	r0, r1
 8003dc8:	4370      	muls	r0, r6
 8003dca:	3050      	adds	r0, #80	; 0x50
 8003dcc:	f001 fb48 	bl	8005460 <pvPortMalloc>
 8003dd0:	1e04      	subs	r4, r0, #0
 8003dd2:	d011      	beq.n	8003df8 <xQueueGenericCreate+0x42>
 8003dd4:	0003      	movs	r3, r0
 8003dd6:	2200      	movs	r2, #0
 8003dd8:	3346      	adds	r3, #70	; 0x46
 8003dda:	701a      	strb	r2, [r3, #0]
 8003ddc:	0003      	movs	r3, r0
 8003dde:	4295      	cmp	r5, r2
 8003de0:	d000      	beq.n	8003de4 <xQueueGenericCreate+0x2e>
 8003de2:	3350      	adds	r3, #80	; 0x50
 8003de4:	6023      	str	r3, [r4, #0]
 8003de6:	2101      	movs	r1, #1
 8003de8:	0020      	movs	r0, r4
 8003dea:	63e6      	str	r6, [r4, #60]	; 0x3c
 8003dec:	6425      	str	r5, [r4, #64]	; 0x40
 8003dee:	f7ff ff7e 	bl	8003cee <xQueueGenericReset>
 8003df2:	0023      	movs	r3, r4
 8003df4:	334c      	adds	r3, #76	; 0x4c
 8003df6:	701f      	strb	r7, [r3, #0]
 8003df8:	0020      	movs	r0, r4
 8003dfa:	bdf8      	pop	{r3, r4, r5, r6, r7, pc}

08003dfc <xQueueGenericSend>:
 8003dfc:	b5f0      	push	{r4, r5, r6, r7, lr}
 8003dfe:	b085      	sub	sp, #20
 8003e00:	0004      	movs	r4, r0
 8003e02:	000d      	movs	r5, r1
 8003e04:	001f      	movs	r7, r3
 8003e06:	9201      	str	r2, [sp, #4]
 8003e08:	2800      	cmp	r0, #0
 8003e0a:	d101      	bne.n	8003e10 <xQueueGenericSend+0x14>
 8003e0c:	b672      	cpsid	i
 8003e0e:	e7fe      	b.n	8003e0e <xQueueGenericSend+0x12>
 8003e10:	2900      	cmp	r1, #0
 8003e12:	d104      	bne.n	8003e1e <xQueueGenericSend+0x22>
 8003e14:	6c03      	ldr	r3, [r0, #64]	; 0x40
 8003e16:	2b00      	cmp	r3, #0
 8003e18:	d001      	beq.n	8003e1e <xQueueGenericSend+0x22>
 8003e1a:	b672      	cpsid	i
 8003e1c:	e7fe      	b.n	8003e1c <xQueueGenericSend+0x20>
 8003e1e:	2f02      	cmp	r7, #2
 8003e20:	d104      	bne.n	8003e2c <xQueueGenericSend+0x30>
 8003e22:	6be3      	ldr	r3, [r4, #60]	; 0x3c
 8003e24:	2b01      	cmp	r3, #1
 8003e26:	d001      	beq.n	8003e2c <xQueueGenericSend+0x30>
 8003e28:	b672      	cpsid	i
 8003e2a:	e7fe      	b.n	8003e2a <xQueueGenericSend+0x2e>
 8003e2c:	f000 ff40 	bl	8004cb0 <xTaskGetSchedulerState>
 8003e30:	1e06      	subs	r6, r0, #0
 8003e32:	d104      	bne.n	8003e3e <xQueueGenericSend+0x42>
 8003e34:	9b01      	ldr	r3, [sp, #4]
 8003e36:	2b00      	cmp	r3, #0
 8003e38:	d04d      	beq.n	8003ed6 <xQueueGenericSend+0xda>
 8003e3a:	b672      	cpsid	i
 8003e3c:	e7fe      	b.n	8003e3c <xQueueGenericSend+0x40>
 8003e3e:	2600      	movs	r6, #0
 8003e40:	e049      	b.n	8003ed6 <xQueueGenericSend+0xda>
 8003e42:	9b01      	ldr	r3, [sp, #4]
 8003e44:	9300      	str	r3, [sp, #0]
 8003e46:	2b00      	cmp	r3, #0
 8003e48:	d103      	bne.n	8003e52 <xQueueGenericSend+0x56>
 8003e4a:	f001 fa97 	bl	800537c <vPortExitCritical>
 8003e4e:	2000      	movs	r0, #0
 8003e50:	e05c      	b.n	8003f0c <xQueueGenericSend+0x110>
 8003e52:	2e00      	cmp	r6, #0
 8003e54:	d102      	bne.n	8003e5c <xQueueGenericSend+0x60>
 8003e56:	a802      	add	r0, sp, #8
 8003e58:	f000 fee0 	bl	8004c1c <vTaskInternalSetTimeOutState>
 8003e5c:	f001 fa8e 	bl	800537c <vPortExitCritical>
 8003e60:	f000 fccc 	bl	80047fc <vTaskSuspendAll>
 8003e64:	f001 fa7e 	bl	8005364 <vPortEnterCritical>
 8003e68:	0022      	movs	r2, r4
 8003e6a:	3244      	adds	r2, #68	; 0x44
 8003e6c:	7813      	ldrb	r3, [r2, #0]
 8003e6e:	b25b      	sxtb	r3, r3
 8003e70:	3301      	adds	r3, #1
 8003e72:	d101      	bne.n	8003e78 <xQueueGenericSend+0x7c>
 8003e74:	2300      	movs	r3, #0
 8003e76:	7013      	strb	r3, [r2, #0]
 8003e78:	0022      	movs	r2, r4
 8003e7a:	3245      	adds	r2, #69	; 0x45
 8003e7c:	7813      	ldrb	r3, [r2, #0]
 8003e7e:	b25b      	sxtb	r3, r3
 8003e80:	3301      	adds	r3, #1
 8003e82:	d101      	bne.n	8003e88 <xQueueGenericSend+0x8c>
 8003e84:	2300      	movs	r3, #0
 8003e86:	7013      	strb	r3, [r2, #0]
 8003e88:	f001 fa78 	bl	800537c <vPortExitCritical>
 8003e8c:	a901      	add	r1, sp, #4
 8003e8e:	a802      	add	r0, sp, #8
 8003e90:	f000 fed0 	bl	8004c34 <xTaskCheckForTimeOut>
 8003e94:	2800      	cmp	r0, #0
 8003e96:	d13b      	bne.n	8003f10 <xQueueGenericSend+0x114>
 8003e98:	f001 fa64 	bl	8005364 <vPortEnterCritical>
 8003e9c:	6ba3      	ldr	r3, [r4, #56]	; 0x38
 8003e9e:	6be2      	ldr	r2, [r4, #60]	; 0x3c
 8003ea0:	4293      	cmp	r3, r2
 8003ea2:	d110      	bne.n	8003ec6 <xQueueGenericSend+0xca>
 8003ea4:	f001 fa6a 	bl	800537c <vPortExitCritical>
 8003ea8:	0020      	movs	r0, r4
 8003eaa:	9901      	ldr	r1, [sp, #4]
 8003eac:	3010      	adds	r0, #16
 8003eae:	f000 fdf7 	bl	8004aa0 <vTaskPlaceOnEventList>
 8003eb2:	0020      	movs	r0, r4
 8003eb4:	f7ff fee6 	bl	8003c84 <prvUnlockQueue>
 8003eb8:	f000 fd34 	bl	8004924 <xTaskResumeAll>
 8003ebc:	2800      	cmp	r0, #0
 8003ebe:	d109      	bne.n	8003ed4 <xQueueGenericSend+0xd8>
 8003ec0:	f001 fa44 	bl	800534c <vPortYield>
 8003ec4:	e006      	b.n	8003ed4 <xQueueGenericSend+0xd8>
 8003ec6:	f001 fa59 	bl	800537c <vPortExitCritical>
 8003eca:	0020      	movs	r0, r4
 8003ecc:	f7ff feda 	bl	8003c84 <prvUnlockQueue>
 8003ed0:	f000 fd28 	bl	8004924 <xTaskResumeAll>
 8003ed4:	2601      	movs	r6, #1
 8003ed6:	f001 fa45 	bl	8005364 <vPortEnterCritical>
 8003eda:	6ba3      	ldr	r3, [r4, #56]	; 0x38
 8003edc:	6be2      	ldr	r2, [r4, #60]	; 0x3c
 8003ede:	4293      	cmp	r3, r2
 8003ee0:	d301      	bcc.n	8003ee6 <xQueueGenericSend+0xea>
 8003ee2:	2f02      	cmp	r7, #2
 8003ee4:	d1ad      	bne.n	8003e42 <xQueueGenericSend+0x46>
 8003ee6:	003a      	movs	r2, r7
 8003ee8:	0029      	movs	r1, r5
 8003eea:	0020      	movs	r0, r4
 8003eec:	f7ff fe7d 	bl	8003bea <prvCopyDataToQueue>
 8003ef0:	6a63      	ldr	r3, [r4, #36]	; 0x24
 8003ef2:	2b00      	cmp	r3, #0
 8003ef4:	d003      	beq.n	8003efe <xQueueGenericSend+0x102>
 8003ef6:	0020      	movs	r0, r4
 8003ef8:	3024      	adds	r0, #36	; 0x24
 8003efa:	f000 fe1b 	bl	8004b34 <xTaskRemoveFromEventList>
 8003efe:	2800      	cmp	r0, #0
 8003f00:	d001      	beq.n	8003f06 <xQueueGenericSend+0x10a>
 8003f02:	f001 fa23 	bl	800534c <vPortYield>
 8003f06:	f001 fa39 	bl	800537c <vPortExitCritical>
 8003f0a:	2001      	movs	r0, #1
 8003f0c:	b005      	add	sp, #20
 8003f0e:	bdf0      	pop	{r4, r5, r6, r7, pc}
 8003f10:	0020      	movs	r0, r4
 8003f12:	f7ff feb7 	bl	8003c84 <prvUnlockQueue>
 8003f16:	f000 fd05 	bl	8004924 <xTaskResumeAll>
 8003f1a:	e798      	b.n	8003e4e <xQueueGenericSend+0x52>

08003f1c <xQueueCreateMutexStatic>:
 8003f1c:	2200      	movs	r2, #0
 8003f1e:	b513      	push	{r0, r1, r4, lr}
 8003f20:	000b      	movs	r3, r1
 8003f22:	9000      	str	r0, [sp, #0]
 8003f24:	0011      	movs	r1, r2
 8003f26:	2001      	movs	r0, #1
 8003f28:	f7ff ff15 	bl	8003d56 <xQueueGenericCreateStatic>
 8003f2c:	1e04      	subs	r4, r0, #0
 8003f2e:	d007      	beq.n	8003f40 <xQueueCreateMutexStatic+0x24>
 8003f30:	2100      	movs	r1, #0
 8003f32:	000b      	movs	r3, r1
 8003f34:	000a      	movs	r2, r1
 8003f36:	6041      	str	r1, [r0, #4]
 8003f38:	6001      	str	r1, [r0, #0]
 8003f3a:	60c1      	str	r1, [r0, #12]
 8003f3c:	f7ff ff5e 	bl	8003dfc <xQueueGenericSend>
 8003f40:	0020      	movs	r0, r4
 8003f42:	bd16      	pop	{r1, r2, r4, pc}

08003f44 <xQueueGiveMutexRecursive>:
 8003f44:	b570      	push	{r4, r5, r6, lr}
 8003f46:	1e04      	subs	r4, r0, #0
 8003f48:	d101      	bne.n	8003f4e <xQueueGiveMutexRecursive+0xa>
 8003f4a:	b672      	cpsid	i
 8003f4c:	e7fe      	b.n	8003f4c <xQueueGiveMutexRecursive+0x8>
 8003f4e:	6846      	ldr	r6, [r0, #4]
 8003f50:	f000 fea8 	bl	8004ca4 <xTaskGetCurrentTaskHandle>
 8003f54:	2500      	movs	r5, #0
 8003f56:	4286      	cmp	r6, r0
 8003f58:	d10a      	bne.n	8003f70 <xQueueGiveMutexRecursive+0x2c>
 8003f5a:	68e3      	ldr	r3, [r4, #12]
 8003f5c:	3501      	adds	r5, #1
 8003f5e:	1e59      	subs	r1, r3, #1
 8003f60:	60e1      	str	r1, [r4, #12]
 8003f62:	2900      	cmp	r1, #0
 8003f64:	d104      	bne.n	8003f70 <xQueueGiveMutexRecursive+0x2c>
 8003f66:	000b      	movs	r3, r1
 8003f68:	000a      	movs	r2, r1
 8003f6a:	0020      	movs	r0, r4
 8003f6c:	f7ff ff46 	bl	8003dfc <xQueueGenericSend>
 8003f70:	0028      	movs	r0, r5
 8003f72:	bd70      	pop	{r4, r5, r6, pc}

08003f74 <xQueueCreateMutex>:
 8003f74:	b570      	push	{r4, r5, r6, lr}
 8003f76:	0006      	movs	r6, r0
 8003f78:	2050      	movs	r0, #80	; 0x50
 8003f7a:	f001 fa71 	bl	8005460 <pvPortMalloc>
 8003f7e:	1e04      	subs	r4, r0, #0
 8003f80:	d015      	beq.n	8003fae <xQueueCreateMutex+0x3a>
 8003f82:	0003      	movs	r3, r0
 8003f84:	2500      	movs	r5, #0
 8003f86:	2101      	movs	r1, #1
 8003f88:	3346      	adds	r3, #70	; 0x46
 8003f8a:	701d      	strb	r5, [r3, #0]
 8003f8c:	63c1      	str	r1, [r0, #60]	; 0x3c
 8003f8e:	6000      	str	r0, [r0, #0]
 8003f90:	6405      	str	r5, [r0, #64]	; 0x40
 8003f92:	f7ff feac 	bl	8003cee <xQueueGenericReset>
 8003f96:	0023      	movs	r3, r4
 8003f98:	334c      	adds	r3, #76	; 0x4c
 8003f9a:	701e      	strb	r6, [r3, #0]
 8003f9c:	002a      	movs	r2, r5
 8003f9e:	002b      	movs	r3, r5
 8003fa0:	0029      	movs	r1, r5
 8003fa2:	0020      	movs	r0, r4
 8003fa4:	6065      	str	r5, [r4, #4]
 8003fa6:	6025      	str	r5, [r4, #0]
 8003fa8:	60e5      	str	r5, [r4, #12]
 8003faa:	f7ff ff27 	bl	8003dfc <xQueueGenericSend>
 8003fae:	0020      	movs	r0, r4
 8003fb0:	bd70      	pop	{r4, r5, r6, pc}

08003fb2 <xQueueGenericSendFromISR>:
 8003fb2:	b5f0      	push	{r4, r5, r6, r7, lr}
 8003fb4:	b085      	sub	sp, #20
 8003fb6:	0004      	movs	r4, r0
 8003fb8:	0017      	movs	r7, r2
 8003fba:	001e      	movs	r6, r3
 8003fbc:	9101      	str	r1, [sp, #4]
 8003fbe:	2800      	cmp	r0, #0
 8003fc0:	d101      	bne.n	8003fc6 <xQueueGenericSendFromISR+0x14>
 8003fc2:	b672      	cpsid	i
 8003fc4:	e7fe      	b.n	8003fc4 <xQueueGenericSendFromISR+0x12>
 8003fc6:	9b01      	ldr	r3, [sp, #4]
 8003fc8:	2b00      	cmp	r3, #0
 8003fca:	d104      	bne.n	8003fd6 <xQueueGenericSendFromISR+0x24>
 8003fcc:	6c03      	ldr	r3, [r0, #64]	; 0x40
 8003fce:	2b00      	cmp	r3, #0
 8003fd0:	d001      	beq.n	8003fd6 <xQueueGenericSendFromISR+0x24>
 8003fd2:	b672      	cpsid	i
 8003fd4:	e7fe      	b.n	8003fd4 <xQueueGenericSendFromISR+0x22>
 8003fd6:	2e02      	cmp	r6, #2
 8003fd8:	d104      	bne.n	8003fe4 <xQueueGenericSendFromISR+0x32>
 8003fda:	6be3      	ldr	r3, [r4, #60]	; 0x3c
 8003fdc:	2b01      	cmp	r3, #1
 8003fde:	d001      	beq.n	8003fe4 <xQueueGenericSendFromISR+0x32>
 8003fe0:	b672      	cpsid	i
 8003fe2:	e7fe      	b.n	8003fe2 <xQueueGenericSendFromISR+0x30>
 8003fe4:	f001 f9d8 	bl	8005398 <ulSetInterruptMaskFromISR>
 8003fe8:	6ba3      	ldr	r3, [r4, #56]	; 0x38
 8003fea:	6be2      	ldr	r2, [r4, #60]	; 0x3c
 8003fec:	9003      	str	r0, [sp, #12]
 8003fee:	4293      	cmp	r3, r2
 8003ff0:	d302      	bcc.n	8003ff8 <xQueueGenericSendFromISR+0x46>
 8003ff2:	2500      	movs	r5, #0
 8003ff4:	2e02      	cmp	r6, #2
 8003ff6:	d11a      	bne.n	800402e <xQueueGenericSendFromISR+0x7c>
 8003ff8:	0023      	movs	r3, r4
 8003ffa:	3345      	adds	r3, #69	; 0x45
 8003ffc:	9302      	str	r3, [sp, #8]
 8003ffe:	781d      	ldrb	r5, [r3, #0]
 8004000:	0032      	movs	r2, r6
 8004002:	b26d      	sxtb	r5, r5
 8004004:	0020      	movs	r0, r4
 8004006:	9901      	ldr	r1, [sp, #4]
 8004008:	f7ff fdef 	bl	8003bea <prvCopyDataToQueue>
 800400c:	1c6b      	adds	r3, r5, #1
 800400e:	d114      	bne.n	800403a <xQueueGenericSendFromISR+0x88>
 8004010:	6a63      	ldr	r3, [r4, #36]	; 0x24
 8004012:	2b00      	cmp	r3, #0
 8004014:	d101      	bne.n	800401a <xQueueGenericSendFromISR+0x68>
 8004016:	2501      	movs	r5, #1
 8004018:	e009      	b.n	800402e <xQueueGenericSendFromISR+0x7c>
 800401a:	0020      	movs	r0, r4
 800401c:	3024      	adds	r0, #36	; 0x24
 800401e:	f000 fd89 	bl	8004b34 <xTaskRemoveFromEventList>
 8004022:	2800      	cmp	r0, #0
 8004024:	d0f7      	beq.n	8004016 <xQueueGenericSendFromISR+0x64>
 8004026:	2f00      	cmp	r7, #0
 8004028:	d0f5      	beq.n	8004016 <xQueueGenericSendFromISR+0x64>
 800402a:	2501      	movs	r5, #1
 800402c:	603d      	str	r5, [r7, #0]
 800402e:	9803      	ldr	r0, [sp, #12]
 8004030:	f001 f9b6 	bl	80053a0 <vClearInterruptMaskFromISR>
 8004034:	0028      	movs	r0, r5
 8004036:	b005      	add	sp, #20
 8004038:	bdf0      	pop	{r4, r5, r6, r7, pc}
 800403a:	9b02      	ldr	r3, [sp, #8]
 800403c:	3501      	adds	r5, #1
 800403e:	b26d      	sxtb	r5, r5
 8004040:	701d      	strb	r5, [r3, #0]
 8004042:	e7e8      	b.n	8004016 <xQueueGenericSendFromISR+0x64>

08004044 <xQueueReceive>:
 8004044:	b5f0      	push	{r4, r5, r6, r7, lr}
 8004046:	b085      	sub	sp, #20
 8004048:	0004      	movs	r4, r0
 800404a:	000f      	movs	r7, r1
 800404c:	9201      	str	r2, [sp, #4]
 800404e:	2800      	cmp	r0, #0
 8004050:	d101      	bne.n	8004056 <xQueueReceive+0x12>
 8004052:	b672      	cpsid	i
 8004054:	e7fe      	b.n	8004054 <xQueueReceive+0x10>
 8004056:	2900      	cmp	r1, #0
 8004058:	d104      	bne.n	8004064 <xQueueReceive+0x20>
 800405a:	6c03      	ldr	r3, [r0, #64]	; 0x40
 800405c:	2b00      	cmp	r3, #0
 800405e:	d001      	beq.n	8004064 <xQueueReceive+0x20>
 8004060:	b672      	cpsid	i
 8004062:	e7fe      	b.n	8004062 <xQueueReceive+0x1e>
 8004064:	f000 fe24 	bl	8004cb0 <xTaskGetSchedulerState>
 8004068:	1e06      	subs	r6, r0, #0
 800406a:	d104      	bne.n	8004076 <xQueueReceive+0x32>
 800406c:	9b01      	ldr	r3, [sp, #4]
 800406e:	2b00      	cmp	r3, #0
 8004070:	d041      	beq.n	80040f6 <xQueueReceive+0xb2>
 8004072:	b672      	cpsid	i
 8004074:	e7fe      	b.n	8004074 <xQueueReceive+0x30>
 8004076:	2600      	movs	r6, #0
 8004078:	e03d      	b.n	80040f6 <xQueueReceive+0xb2>
 800407a:	9d01      	ldr	r5, [sp, #4]
 800407c:	2d00      	cmp	r5, #0
 800407e:	d103      	bne.n	8004088 <xQueueReceive+0x44>
 8004080:	f001 f97c 	bl	800537c <vPortExitCritical>
 8004084:	2000      	movs	r0, #0
 8004086:	e04f      	b.n	8004128 <xQueueReceive+0xe4>
 8004088:	2e00      	cmp	r6, #0
 800408a:	d102      	bne.n	8004092 <xQueueReceive+0x4e>
 800408c:	a802      	add	r0, sp, #8
 800408e:	f000 fdc5 	bl	8004c1c <vTaskInternalSetTimeOutState>
 8004092:	f001 f973 	bl	800537c <vPortExitCritical>
 8004096:	f000 fbb1 	bl	80047fc <vTaskSuspendAll>
 800409a:	f001 f963 	bl	8005364 <vPortEnterCritical>
 800409e:	0022      	movs	r2, r4
 80040a0:	3244      	adds	r2, #68	; 0x44
 80040a2:	7813      	ldrb	r3, [r2, #0]
 80040a4:	b25b      	sxtb	r3, r3
 80040a6:	3301      	adds	r3, #1
 80040a8:	d101      	bne.n	80040ae <xQueueReceive+0x6a>
 80040aa:	2300      	movs	r3, #0
 80040ac:	7013      	strb	r3, [r2, #0]
 80040ae:	0022      	movs	r2, r4
 80040b0:	3245      	adds	r2, #69	; 0x45
 80040b2:	7813      	ldrb	r3, [r2, #0]
 80040b4:	b25b      	sxtb	r3, r3
 80040b6:	3301      	adds	r3, #1
 80040b8:	d101      	bne.n	80040be <xQueueReceive+0x7a>
 80040ba:	2300      	movs	r3, #0
 80040bc:	7013      	strb	r3, [r2, #0]
 80040be:	f001 f95d 	bl	800537c <vPortExitCritical>
 80040c2:	a901      	add	r1, sp, #4
 80040c4:	a802      	add	r0, sp, #8
 80040c6:	f000 fdb5 	bl	8004c34 <xTaskCheckForTimeOut>
 80040ca:	2800      	cmp	r0, #0
 80040cc:	d134      	bne.n	8004138 <xQueueReceive+0xf4>
 80040ce:	0020      	movs	r0, r4
 80040d0:	f7ff fd81 	bl	8003bd6 <prvIsQueueEmpty>
 80040d4:	2800      	cmp	r0, #0
 80040d6:	d029      	beq.n	800412c <xQueueReceive+0xe8>
 80040d8:	0020      	movs	r0, r4
 80040da:	9901      	ldr	r1, [sp, #4]
 80040dc:	3024      	adds	r0, #36	; 0x24
 80040de:	f000 fcdf 	bl	8004aa0 <vTaskPlaceOnEventList>
 80040e2:	0020      	movs	r0, r4
 80040e4:	f7ff fdce 	bl	8003c84 <prvUnlockQueue>
 80040e8:	f000 fc1c 	bl	8004924 <xTaskResumeAll>
 80040ec:	2800      	cmp	r0, #0
 80040ee:	d101      	bne.n	80040f4 <xQueueReceive+0xb0>
 80040f0:	f001 f92c 	bl	800534c <vPortYield>
 80040f4:	2601      	movs	r6, #1
 80040f6:	f001 f935 	bl	8005364 <vPortEnterCritical>
 80040fa:	6ba5      	ldr	r5, [r4, #56]	; 0x38
 80040fc:	2d00      	cmp	r5, #0
 80040fe:	d0bc      	beq.n	800407a <xQueueReceive+0x36>
 8004100:	0039      	movs	r1, r7
 8004102:	0020      	movs	r0, r4
 8004104:	3d01      	subs	r5, #1
 8004106:	f7ff fdab 	bl	8003c60 <prvCopyDataFromQueue>
 800410a:	63a5      	str	r5, [r4, #56]	; 0x38
 800410c:	6923      	ldr	r3, [r4, #16]
 800410e:	2b00      	cmp	r3, #0
 8004110:	d007      	beq.n	8004122 <xQueueReceive+0xde>
 8004112:	0020      	movs	r0, r4
 8004114:	3010      	adds	r0, #16
 8004116:	f000 fd0d 	bl	8004b34 <xTaskRemoveFromEventList>
 800411a:	2800      	cmp	r0, #0
 800411c:	d001      	beq.n	8004122 <xQueueReceive+0xde>
 800411e:	f001 f915 	bl	800534c <vPortYield>
 8004122:	f001 f92b 	bl	800537c <vPortExitCritical>
 8004126:	2001      	movs	r0, #1
 8004128:	b005      	add	sp, #20
 800412a:	bdf0      	pop	{r4, r5, r6, r7, pc}
 800412c:	0020      	movs	r0, r4
 800412e:	f7ff fda9 	bl	8003c84 <prvUnlockQueue>
 8004132:	f000 fbf7 	bl	8004924 <xTaskResumeAll>
 8004136:	e7dd      	b.n	80040f4 <xQueueReceive+0xb0>
 8004138:	0020      	movs	r0, r4
 800413a:	f7ff fda3 	bl	8003c84 <prvUnlockQueue>
 800413e:	f000 fbf1 	bl	8004924 <xTaskResumeAll>
 8004142:	0020      	movs	r0, r4
 8004144:	f7ff fd47 	bl	8003bd6 <prvIsQueueEmpty>
 8004148:	2800      	cmp	r0, #0
 800414a:	d0d3      	beq.n	80040f4 <xQueueReceive+0xb0>
 800414c:	e79a      	b.n	8004084 <xQueueReceive+0x40>

0800414e <xQueueSemaphoreTake>:
 800414e:	b5f0      	push	{r4, r5, r6, r7, lr}
 8004150:	b085      	sub	sp, #20
 8004152:	1e04      	subs	r4, r0, #0
 8004154:	9101      	str	r1, [sp, #4]
 8004156:	d101      	bne.n	800415c <xQueueSemaphoreTake+0xe>
 8004158:	b672      	cpsid	i
 800415a:	e7fe      	b.n	800415a <xQueueSemaphoreTake+0xc>
 800415c:	6c05      	ldr	r5, [r0, #64]	; 0x40
 800415e:	2d00      	cmp	r5, #0
 8004160:	d001      	beq.n	8004166 <xQueueSemaphoreTake+0x18>
 8004162:	b672      	cpsid	i
 8004164:	e7fe      	b.n	8004164 <xQueueSemaphoreTake+0x16>
 8004166:	f000 fda3 	bl	8004cb0 <xTaskGetSchedulerState>
 800416a:	1e06      	subs	r6, r0, #0
 800416c:	d104      	bne.n	8004178 <xQueueSemaphoreTake+0x2a>
 800416e:	9b01      	ldr	r3, [sp, #4]
 8004170:	2b00      	cmp	r3, #0
 8004172:	d004      	beq.n	800417e <xQueueSemaphoreTake+0x30>
 8004174:	b672      	cpsid	i
 8004176:	e7fe      	b.n	8004176 <xQueueSemaphoreTake+0x28>
 8004178:	002e      	movs	r6, r5
 800417a:	2701      	movs	r7, #1
 800417c:	e04d      	b.n	800421a <xQueueSemaphoreTake+0xcc>
 800417e:	0005      	movs	r5, r0
 8004180:	e7fb      	b.n	800417a <xQueueSemaphoreTake+0x2c>
 8004182:	9b01      	ldr	r3, [sp, #4]
 8004184:	2b00      	cmp	r3, #0
 8004186:	d106      	bne.n	8004196 <xQueueSemaphoreTake+0x48>
 8004188:	2d00      	cmp	r5, #0
 800418a:	d001      	beq.n	8004190 <xQueueSemaphoreTake+0x42>
 800418c:	b672      	cpsid	i
 800418e:	e7fe      	b.n	800418e <xQueueSemaphoreTake+0x40>
 8004190:	f001 f8f4 	bl	800537c <vPortExitCritical>
 8004194:	e05c      	b.n	8004250 <xQueueSemaphoreTake+0x102>
 8004196:	2e00      	cmp	r6, #0
 8004198:	d102      	bne.n	80041a0 <xQueueSemaphoreTake+0x52>
 800419a:	a802      	add	r0, sp, #8
 800419c:	f000 fd3e 	bl	8004c1c <vTaskInternalSetTimeOutState>
 80041a0:	f001 f8ec 	bl	800537c <vPortExitCritical>
 80041a4:	f000 fb2a 	bl	80047fc <vTaskSuspendAll>
 80041a8:	f001 f8dc 	bl	8005364 <vPortEnterCritical>
 80041ac:	0022      	movs	r2, r4
 80041ae:	3244      	adds	r2, #68	; 0x44
 80041b0:	7813      	ldrb	r3, [r2, #0]
 80041b2:	b25b      	sxtb	r3, r3
 80041b4:	3301      	adds	r3, #1
 80041b6:	d101      	bne.n	80041bc <xQueueSemaphoreTake+0x6e>
 80041b8:	2300      	movs	r3, #0
 80041ba:	7013      	strb	r3, [r2, #0]
 80041bc:	0022      	movs	r2, r4
 80041be:	3245      	adds	r2, #69	; 0x45
 80041c0:	7813      	ldrb	r3, [r2, #0]
 80041c2:	b25b      	sxtb	r3, r3
 80041c4:	3301      	adds	r3, #1
 80041c6:	d101      	bne.n	80041cc <xQueueSemaphoreTake+0x7e>
 80041c8:	2300      	movs	r3, #0
 80041ca:	7013      	strb	r3, [r2, #0]
 80041cc:	f001 f8d6 	bl	800537c <vPortExitCritical>
 80041d0:	a901      	add	r1, sp, #4
 80041d2:	a802      	add	r0, sp, #8
 80041d4:	f000 fd2e 	bl	8004c34 <xTaskCheckForTimeOut>
 80041d8:	2800      	cmp	r0, #0
 80041da:	d142      	bne.n	8004262 <xQueueSemaphoreTake+0x114>
 80041dc:	0020      	movs	r0, r4
 80041de:	f7ff fcfa 	bl	8003bd6 <prvIsQueueEmpty>
 80041e2:	2800      	cmp	r0, #0
 80041e4:	d037      	beq.n	8004256 <xQueueSemaphoreTake+0x108>
 80041e6:	6823      	ldr	r3, [r4, #0]
 80041e8:	2b00      	cmp	r3, #0
 80041ea:	d107      	bne.n	80041fc <xQueueSemaphoreTake+0xae>
 80041ec:	f001 f8ba 	bl	8005364 <vPortEnterCritical>
 80041f0:	6860      	ldr	r0, [r4, #4]
 80041f2:	f000 fd6d 	bl	8004cd0 <xTaskPriorityInherit>
 80041f6:	0005      	movs	r5, r0
 80041f8:	f001 f8c0 	bl	800537c <vPortExitCritical>
 80041fc:	0020      	movs	r0, r4
 80041fe:	9901      	ldr	r1, [sp, #4]
 8004200:	3024      	adds	r0, #36	; 0x24
 8004202:	f000 fc4d 	bl	8004aa0 <vTaskPlaceOnEventList>
 8004206:	0020      	movs	r0, r4
 8004208:	f7ff fd3c 	bl	8003c84 <prvUnlockQueue>
 800420c:	f000 fb8a 	bl	8004924 <xTaskResumeAll>
 8004210:	2800      	cmp	r0, #0
 8004212:	d101      	bne.n	8004218 <xQueueSemaphoreTake+0xca>
 8004214:	f001 f89a 	bl	800534c <vPortYield>
 8004218:	003e      	movs	r6, r7
 800421a:	f001 f8a3 	bl	8005364 <vPortEnterCritical>
 800421e:	6ba3      	ldr	r3, [r4, #56]	; 0x38
 8004220:	2b00      	cmp	r3, #0
 8004222:	d0ae      	beq.n	8004182 <xQueueSemaphoreTake+0x34>
 8004224:	3b01      	subs	r3, #1
 8004226:	63a3      	str	r3, [r4, #56]	; 0x38
 8004228:	6823      	ldr	r3, [r4, #0]
 800422a:	2b00      	cmp	r3, #0
 800422c:	d102      	bne.n	8004234 <xQueueSemaphoreTake+0xe6>
 800422e:	f000 fe0b 	bl	8004e48 <pvTaskIncrementMutexHeldCount>
 8004232:	6060      	str	r0, [r4, #4]
 8004234:	6923      	ldr	r3, [r4, #16]
 8004236:	2b00      	cmp	r3, #0
 8004238:	d007      	beq.n	800424a <xQueueSemaphoreTake+0xfc>
 800423a:	0020      	movs	r0, r4
 800423c:	3010      	adds	r0, #16
 800423e:	f000 fc79 	bl	8004b34 <xTaskRemoveFromEventList>
 8004242:	2800      	cmp	r0, #0
 8004244:	d001      	beq.n	800424a <xQueueSemaphoreTake+0xfc>
 8004246:	f001 f881 	bl	800534c <vPortYield>
 800424a:	f001 f897 	bl	800537c <vPortExitCritical>
 800424e:	2501      	movs	r5, #1
 8004250:	0028      	movs	r0, r5
 8004252:	b005      	add	sp, #20
 8004254:	bdf0      	pop	{r4, r5, r6, r7, pc}
 8004256:	0020      	movs	r0, r4
 8004258:	f7ff fd14 	bl	8003c84 <prvUnlockQueue>
 800425c:	f000 fb62 	bl	8004924 <xTaskResumeAll>
 8004260:	e7da      	b.n	8004218 <xQueueSemaphoreTake+0xca>
 8004262:	0020      	movs	r0, r4
 8004264:	f7ff fd0e 	bl	8003c84 <prvUnlockQueue>
 8004268:	f000 fb5c 	bl	8004924 <xTaskResumeAll>
 800426c:	0020      	movs	r0, r4
 800426e:	f7ff fcb2 	bl	8003bd6 <prvIsQueueEmpty>
 8004272:	2800      	cmp	r0, #0
 8004274:	d0d0      	beq.n	8004218 <xQueueSemaphoreTake+0xca>
 8004276:	2d00      	cmp	r5, #0
 8004278:	d0ea      	beq.n	8004250 <xQueueSemaphoreTake+0x102>
 800427a:	f001 f873 	bl	8005364 <vPortEnterCritical>
 800427e:	6a61      	ldr	r1, [r4, #36]	; 0x24
 8004280:	2900      	cmp	r1, #0
 8004282:	d003      	beq.n	800428c <xQueueSemaphoreTake+0x13e>
 8004284:	2138      	movs	r1, #56	; 0x38
 8004286:	6b23      	ldr	r3, [r4, #48]	; 0x30
 8004288:	681b      	ldr	r3, [r3, #0]
 800428a:	1ac9      	subs	r1, r1, r3
 800428c:	6860      	ldr	r0, [r4, #4]
 800428e:	f000 fd93 	bl	8004db8 <vTaskPriorityDisinheritAfterTimeout>
 8004292:	2500      	movs	r5, #0
 8004294:	f001 f872 	bl	800537c <vPortExitCritical>
 8004298:	e7da      	b.n	8004250 <xQueueSemaphoreTake+0x102>

0800429a <xQueueTakeMutexRecursive>:
 800429a:	b570      	push	{r4, r5, r6, lr}
 800429c:	0004      	movs	r4, r0
 800429e:	000d      	movs	r5, r1
 80042a0:	2800      	cmp	r0, #0
 80042a2:	d101      	bne.n	80042a8 <xQueueTakeMutexRecursive+0xe>
 80042a4:	b672      	cpsid	i
 80042a6:	e7fe      	b.n	80042a6 <xQueueTakeMutexRecursive+0xc>
 80042a8:	6846      	ldr	r6, [r0, #4]
 80042aa:	f000 fcfb 	bl	8004ca4 <xTaskGetCurrentTaskHandle>
 80042ae:	4286      	cmp	r6, r0
 80042b0:	d104      	bne.n	80042bc <xQueueTakeMutexRecursive+0x22>
 80042b2:	2001      	movs	r0, #1
 80042b4:	68e3      	ldr	r3, [r4, #12]
 80042b6:	3301      	adds	r3, #1
 80042b8:	60e3      	str	r3, [r4, #12]
 80042ba:	bd70      	pop	{r4, r5, r6, pc}
 80042bc:	0029      	movs	r1, r5
 80042be:	0020      	movs	r0, r4
 80042c0:	f7ff ff45 	bl	800414e <xQueueSemaphoreTake>
 80042c4:	2800      	cmp	r0, #0
 80042c6:	d0f8      	beq.n	80042ba <xQueueTakeMutexRecursive+0x20>
 80042c8:	68e3      	ldr	r3, [r4, #12]
 80042ca:	3301      	adds	r3, #1
 80042cc:	60e3      	str	r3, [r4, #12]
 80042ce:	e7f4      	b.n	80042ba <xQueueTakeMutexRecursive+0x20>

080042d0 <xQueueReceiveFromISR>:
 80042d0:	b5f0      	push	{r4, r5, r6, r7, lr}
 80042d2:	0004      	movs	r4, r0
 80042d4:	000f      	movs	r7, r1
 80042d6:	0016      	movs	r6, r2
 80042d8:	b085      	sub	sp, #20
 80042da:	2800      	cmp	r0, #0
 80042dc:	d101      	bne.n	80042e2 <xQueueReceiveFromISR+0x12>
 80042de:	b672      	cpsid	i
 80042e0:	e7fe      	b.n	80042e0 <xQueueReceiveFromISR+0x10>
 80042e2:	2900      	cmp	r1, #0
 80042e4:	d104      	bne.n	80042f0 <xQueueReceiveFromISR+0x20>
 80042e6:	6c03      	ldr	r3, [r0, #64]	; 0x40
 80042e8:	2b00      	cmp	r3, #0
 80042ea:	d001      	beq.n	80042f0 <xQueueReceiveFromISR+0x20>
 80042ec:	b672      	cpsid	i
 80042ee:	e7fe      	b.n	80042ee <xQueueReceiveFromISR+0x1e>
 80042f0:	f001 f852 	bl	8005398 <ulSetInterruptMaskFromISR>
 80042f4:	2500      	movs	r5, #0
 80042f6:	6ba3      	ldr	r3, [r4, #56]	; 0x38
 80042f8:	9003      	str	r0, [sp, #12]
 80042fa:	9301      	str	r3, [sp, #4]
 80042fc:	42ab      	cmp	r3, r5
 80042fe:	d01c      	beq.n	800433a <xQueueReceiveFromISR+0x6a>
 8004300:	0023      	movs	r3, r4
 8004302:	3344      	adds	r3, #68	; 0x44
 8004304:	9302      	str	r3, [sp, #8]
 8004306:	0039      	movs	r1, r7
 8004308:	0020      	movs	r0, r4
 800430a:	781d      	ldrb	r5, [r3, #0]
 800430c:	f7ff fca8 	bl	8003c60 <prvCopyDataFromQueue>
 8004310:	9b01      	ldr	r3, [sp, #4]
 8004312:	b26d      	sxtb	r5, r5
 8004314:	3b01      	subs	r3, #1
 8004316:	63a3      	str	r3, [r4, #56]	; 0x38
 8004318:	1c6b      	adds	r3, r5, #1
 800431a:	d114      	bne.n	8004346 <xQueueReceiveFromISR+0x76>
 800431c:	6923      	ldr	r3, [r4, #16]
 800431e:	2b00      	cmp	r3, #0
 8004320:	d101      	bne.n	8004326 <xQueueReceiveFromISR+0x56>
 8004322:	2501      	movs	r5, #1
 8004324:	e009      	b.n	800433a <xQueueReceiveFromISR+0x6a>
 8004326:	0020      	movs	r0, r4
 8004328:	3010      	adds	r0, #16
 800432a:	f000 fc03 	bl	8004b34 <xTaskRemoveFromEventList>
 800432e:	2800      	cmp	r0, #0
 8004330:	d0f7      	beq.n	8004322 <xQueueReceiveFromISR+0x52>
 8004332:	2e00      	cmp	r6, #0
 8004334:	d0f5      	beq.n	8004322 <xQueueReceiveFromISR+0x52>
 8004336:	2501      	movs	r5, #1
 8004338:	6035      	str	r5, [r6, #0]
 800433a:	9803      	ldr	r0, [sp, #12]
 800433c:	f001 f830 	bl	80053a0 <vClearInterruptMaskFromISR>
 8004340:	0028      	movs	r0, r5
 8004342:	b005      	add	sp, #20
 8004344:	bdf0      	pop	{r4, r5, r6, r7, pc}
 8004346:	9b02      	ldr	r3, [sp, #8]
 8004348:	3501      	adds	r5, #1
 800434a:	b26d      	sxtb	r5, r5
 800434c:	701d      	strb	r5, [r3, #0]
 800434e:	e7e8      	b.n	8004322 <xQueueReceiveFromISR+0x52>

08004350 <uxQueueMessagesWaiting>:
 8004350:	b510      	push	{r4, lr}
 8004352:	1e04      	subs	r4, r0, #0
 8004354:	d101      	bne.n	800435a <uxQueueMessagesWaiting+0xa>
 8004356:	b672      	cpsid	i
 8004358:	e7fe      	b.n	8004358 <uxQueueMessagesWaiting+0x8>
 800435a:	f001 f803 	bl	8005364 <vPortEnterCritical>
 800435e:	6ba4      	ldr	r4, [r4, #56]	; 0x38
 8004360:	f001 f80c 	bl	800537c <vPortExitCritical>
 8004364:	0020      	movs	r0, r4
 8004366:	bd10      	pop	{r4, pc}

08004368 <uxQueueMessagesWaitingFromISR>:
 8004368:	2800      	cmp	r0, #0
 800436a:	d101      	bne.n	8004370 <uxQueueMessagesWaitingFromISR+0x8>
 800436c:	b672      	cpsid	i
 800436e:	e7fe      	b.n	800436e <uxQueueMessagesWaitingFromISR+0x6>
 8004370:	6b80      	ldr	r0, [r0, #56]	; 0x38
 8004372:	4770      	bx	lr

08004374 <vQueueAddToRegistry>:
 8004374:	2300      	movs	r3, #0
 8004376:	b570      	push	{r4, r5, r6, lr}
 8004378:	4a06      	ldr	r2, [pc, #24]	; (8004394 <vQueueAddToRegistry+0x20>)
 800437a:	00dd      	lsls	r5, r3, #3
 800437c:	18ac      	adds	r4, r5, r2
 800437e:	6826      	ldr	r6, [r4, #0]
 8004380:	2e00      	cmp	r6, #0
 8004382:	d102      	bne.n	800438a <vQueueAddToRegistry+0x16>
 8004384:	50a9      	str	r1, [r5, r2]
 8004386:	6060      	str	r0, [r4, #4]
 8004388:	bd70      	pop	{r4, r5, r6, pc}
 800438a:	3301      	adds	r3, #1
 800438c:	2b08      	cmp	r3, #8
 800438e:	d1f4      	bne.n	800437a <vQueueAddToRegistry+0x6>
 8004390:	e7fa      	b.n	8004388 <vQueueAddToRegistry+0x14>
 8004392:	46c0      	nop			; (mov r8, r8)
 8004394:	20002d24 	.word	0x20002d24

08004398 <vQueueUnregisterQueue>:
 8004398:	4a08      	ldr	r2, [pc, #32]	; (80043bc <vQueueUnregisterQueue+0x24>)
 800439a:	2300      	movs	r3, #0
 800439c:	0011      	movs	r1, r2
 800439e:	b510      	push	{r4, lr}
 80043a0:	6854      	ldr	r4, [r2, #4]
 80043a2:	4284      	cmp	r4, r0
 80043a4:	d105      	bne.n	80043b2 <vQueueUnregisterQueue+0x1a>
 80043a6:	2200      	movs	r2, #0
 80043a8:	00db      	lsls	r3, r3, #3
 80043aa:	50ca      	str	r2, [r1, r3]
 80043ac:	18cb      	adds	r3, r1, r3
 80043ae:	605a      	str	r2, [r3, #4]
 80043b0:	bd10      	pop	{r4, pc}
 80043b2:	3301      	adds	r3, #1
 80043b4:	3208      	adds	r2, #8
 80043b6:	2b08      	cmp	r3, #8
 80043b8:	d1f2      	bne.n	80043a0 <vQueueUnregisterQueue+0x8>
 80043ba:	e7f9      	b.n	80043b0 <vQueueUnregisterQueue+0x18>
 80043bc:	20002d24 	.word	0x20002d24

080043c0 <vQueueDelete>:
 80043c0:	b510      	push	{r4, lr}
 80043c2:	1e04      	subs	r4, r0, #0
 80043c4:	d101      	bne.n	80043ca <vQueueDelete+0xa>
 80043c6:	b672      	cpsid	i
 80043c8:	e7fe      	b.n	80043c8 <vQueueDelete+0x8>
 80043ca:	f7ff ffe5 	bl	8004398 <vQueueUnregisterQueue>
 80043ce:	0023      	movs	r3, r4
 80043d0:	3346      	adds	r3, #70	; 0x46
 80043d2:	781b      	ldrb	r3, [r3, #0]
 80043d4:	2b00      	cmp	r3, #0
 80043d6:	d102      	bne.n	80043de <vQueueDelete+0x1e>
 80043d8:	0020      	movs	r0, r4
 80043da:	f001 f8bf 	bl	800555c <vPortFree>
 80043de:	bd10      	pop	{r4, pc}

080043e0 <vQueueWaitForMessageRestricted>:
 80043e0:	b570      	push	{r4, r5, r6, lr}
 80043e2:	0004      	movs	r4, r0
 80043e4:	0016      	movs	r6, r2
 80043e6:	000d      	movs	r5, r1
 80043e8:	f000 ffbc 	bl	8005364 <vPortEnterCritical>
 80043ec:	0022      	movs	r2, r4
 80043ee:	3244      	adds	r2, #68	; 0x44
 80043f0:	7813      	ldrb	r3, [r2, #0]
 80043f2:	b25b      	sxtb	r3, r3
 80043f4:	3301      	adds	r3, #1
 80043f6:	d101      	bne.n	80043fc <vQueueWaitForMessageRestricted+0x1c>
 80043f8:	2300      	movs	r3, #0
 80043fa:	7013      	strb	r3, [r2, #0]
 80043fc:	0022      	movs	r2, r4
 80043fe:	3245      	adds	r2, #69	; 0x45
 8004400:	7813      	ldrb	r3, [r2, #0]
 8004402:	b25b      	sxtb	r3, r3
 8004404:	3301      	adds	r3, #1
 8004406:	d101      	bne.n	800440c <vQueueWaitForMessageRestricted+0x2c>
 8004408:	2300      	movs	r3, #0
 800440a:	7013      	strb	r3, [r2, #0]
 800440c:	f000 ffb6 	bl	800537c <vPortExitCritical>
 8004410:	6ba3      	ldr	r3, [r4, #56]	; 0x38
 8004412:	2b00      	cmp	r3, #0
 8004414:	d105      	bne.n	8004422 <vQueueWaitForMessageRestricted+0x42>
 8004416:	0020      	movs	r0, r4
 8004418:	0032      	movs	r2, r6
 800441a:	0029      	movs	r1, r5
 800441c:	3024      	adds	r0, #36	; 0x24
 800441e:	f000 fb71 	bl	8004b04 <vTaskPlaceOnEventListRestricted>
 8004422:	0020      	movs	r0, r4
 8004424:	f7ff fc2e 	bl	8003c84 <prvUnlockQueue>
 8004428:	bd70      	pop	{r4, r5, r6, pc}
	...

0800442c <prvAddNewTaskToReadyList>:
 800442c:	b5f8      	push	{r3, r4, r5, r6, r7, lr}
 800442e:	0004      	movs	r4, r0
 8004430:	f000 ff98 	bl	8005364 <vPortEnterCritical>
 8004434:	4b2a      	ldr	r3, [pc, #168]	; (80044e0 <prvAddNewTaskToReadyList+0xb4>)
 8004436:	4d2b      	ldr	r5, [pc, #172]	; (80044e4 <prvAddNewTaskToReadyList+0xb8>)
 8004438:	681a      	ldr	r2, [r3, #0]
 800443a:	3201      	adds	r2, #1
 800443c:	601a      	str	r2, [r3, #0]
 800443e:	682e      	ldr	r6, [r5, #0]
 8004440:	2e00      	cmp	r6, #0
 8004442:	d142      	bne.n	80044ca <prvAddNewTaskToReadyList+0x9e>
 8004444:	602c      	str	r4, [r5, #0]
 8004446:	681b      	ldr	r3, [r3, #0]
 8004448:	2b01      	cmp	r3, #1
 800444a:	d11e      	bne.n	800448a <prvAddNewTaskToReadyList+0x5e>
 800444c:	2714      	movs	r7, #20
 800444e:	0038      	movs	r0, r7
 8004450:	4370      	muls	r0, r6
 8004452:	4b25      	ldr	r3, [pc, #148]	; (80044e8 <prvAddNewTaskToReadyList+0xbc>)
 8004454:	3601      	adds	r6, #1
 8004456:	1818      	adds	r0, r3, r0
 8004458:	f7ff fb7c 	bl	8003b54 <vListInitialise>
 800445c:	2e38      	cmp	r6, #56	; 0x38
 800445e:	d1f6      	bne.n	800444e <prvAddNewTaskToReadyList+0x22>
 8004460:	4f22      	ldr	r7, [pc, #136]	; (80044ec <prvAddNewTaskToReadyList+0xc0>)
 8004462:	0038      	movs	r0, r7
 8004464:	f7ff fb76 	bl	8003b54 <vListInitialise>
 8004468:	4e21      	ldr	r6, [pc, #132]	; (80044f0 <prvAddNewTaskToReadyList+0xc4>)
 800446a:	0030      	movs	r0, r6
 800446c:	f7ff fb72 	bl	8003b54 <vListInitialise>
 8004470:	4820      	ldr	r0, [pc, #128]	; (80044f4 <prvAddNewTaskToReadyList+0xc8>)
 8004472:	f7ff fb6f 	bl	8003b54 <vListInitialise>
 8004476:	4820      	ldr	r0, [pc, #128]	; (80044f8 <prvAddNewTaskToReadyList+0xcc>)
 8004478:	f7ff fb6c 	bl	8003b54 <vListInitialise>
 800447c:	481f      	ldr	r0, [pc, #124]	; (80044fc <prvAddNewTaskToReadyList+0xd0>)
 800447e:	f7ff fb69 	bl	8003b54 <vListInitialise>
 8004482:	4b1f      	ldr	r3, [pc, #124]	; (8004500 <prvAddNewTaskToReadyList+0xd4>)
 8004484:	601f      	str	r7, [r3, #0]
 8004486:	4b1f      	ldr	r3, [pc, #124]	; (8004504 <prvAddNewTaskToReadyList+0xd8>)
 8004488:	601e      	str	r6, [r3, #0]
 800448a:	4a1f      	ldr	r2, [pc, #124]	; (8004508 <prvAddNewTaskToReadyList+0xdc>)
 800448c:	6813      	ldr	r3, [r2, #0]
 800448e:	3301      	adds	r3, #1
 8004490:	6013      	str	r3, [r2, #0]
 8004492:	4a1e      	ldr	r2, [pc, #120]	; (800450c <prvAddNewTaskToReadyList+0xe0>)
 8004494:	6463      	str	r3, [r4, #68]	; 0x44
 8004496:	6811      	ldr	r1, [r2, #0]
 8004498:	6ae3      	ldr	r3, [r4, #44]	; 0x2c
 800449a:	428b      	cmp	r3, r1
 800449c:	d900      	bls.n	80044a0 <prvAddNewTaskToReadyList+0x74>
 800449e:	6013      	str	r3, [r2, #0]
 80044a0:	2014      	movs	r0, #20
 80044a2:	4358      	muls	r0, r3
 80044a4:	4b10      	ldr	r3, [pc, #64]	; (80044e8 <prvAddNewTaskToReadyList+0xbc>)
 80044a6:	1d21      	adds	r1, r4, #4
 80044a8:	1818      	adds	r0, r3, r0
 80044aa:	f7ff fb61 	bl	8003b70 <vListInsertEnd>
 80044ae:	f000 ff65 	bl	800537c <vPortExitCritical>
 80044b2:	4b17      	ldr	r3, [pc, #92]	; (8004510 <prvAddNewTaskToReadyList+0xe4>)
 80044b4:	681b      	ldr	r3, [r3, #0]
 80044b6:	2b00      	cmp	r3, #0
 80044b8:	d006      	beq.n	80044c8 <prvAddNewTaskToReadyList+0x9c>
 80044ba:	682b      	ldr	r3, [r5, #0]
 80044bc:	6ada      	ldr	r2, [r3, #44]	; 0x2c
 80044be:	6ae3      	ldr	r3, [r4, #44]	; 0x2c
 80044c0:	429a      	cmp	r2, r3
 80044c2:	d201      	bcs.n	80044c8 <prvAddNewTaskToReadyList+0x9c>
 80044c4:	f000 ff42 	bl	800534c <vPortYield>
 80044c8:	bdf8      	pop	{r3, r4, r5, r6, r7, pc}
 80044ca:	4b11      	ldr	r3, [pc, #68]	; (8004510 <prvAddNewTaskToReadyList+0xe4>)
 80044cc:	681b      	ldr	r3, [r3, #0]
 80044ce:	2b00      	cmp	r3, #0
 80044d0:	d1db      	bne.n	800448a <prvAddNewTaskToReadyList+0x5e>
 80044d2:	682b      	ldr	r3, [r5, #0]
 80044d4:	6ae2      	ldr	r2, [r4, #44]	; 0x2c
 80044d6:	6adb      	ldr	r3, [r3, #44]	; 0x2c
 80044d8:	4293      	cmp	r3, r2
 80044da:	d8d6      	bhi.n	800448a <prvAddNewTaskToReadyList+0x5e>
 80044dc:	602c      	str	r4, [r5, #0]
 80044de:	e7d4      	b.n	800448a <prvAddNewTaskToReadyList+0x5e>
 80044e0:	200015f8 	.word	0x200015f8
 80044e4:	2000118c 	.word	0x2000118c
 80044e8:	20001198 	.word	0x20001198
 80044ec:	20001610 	.word	0x20001610
 80044f0:	20001624 	.word	0x20001624
 80044f4:	20001640 	.word	0x20001640
 80044f8:	2000166c 	.word	0x2000166c
 80044fc:	20001658 	.word	0x20001658
 8004500:	20001190 	.word	0x20001190
 8004504:	20001194 	.word	0x20001194
 8004508:	20001608 	.word	0x20001608
 800450c:	2000160c 	.word	0x2000160c
 8004510:	20001654 	.word	0x20001654

08004514 <prvResetNextTaskUnblockTime>:
 8004514:	4a07      	ldr	r2, [pc, #28]	; (8004534 <prvResetNextTaskUnblockTime+0x20>)
 8004516:	6813      	ldr	r3, [r2, #0]
 8004518:	6819      	ldr	r1, [r3, #0]
 800451a:	4b07      	ldr	r3, [pc, #28]	; (8004538 <prvResetNextTaskUnblockTime+0x24>)
 800451c:	2900      	cmp	r1, #0
 800451e:	d103      	bne.n	8004528 <prvResetNextTaskUnblockTime+0x14>
 8004520:	2201      	movs	r2, #1
 8004522:	4252      	negs	r2, r2
 8004524:	601a      	str	r2, [r3, #0]
 8004526:	4770      	bx	lr
 8004528:	6812      	ldr	r2, [r2, #0]
 800452a:	68d2      	ldr	r2, [r2, #12]
 800452c:	68d2      	ldr	r2, [r2, #12]
 800452e:	6852      	ldr	r2, [r2, #4]
 8004530:	e7f8      	b.n	8004524 <prvResetNextTaskUnblockTime+0x10>
 8004532:	46c0      	nop			; (mov r8, r8)
 8004534:	20001190 	.word	0x20001190
 8004538:	20001638 	.word	0x20001638

0800453c <prvInitialiseNewTask.isra.0>:
 800453c:	b5f7      	push	{r0, r1, r2, r4, r5, r6, r7, lr}
 800453e:	9c0a      	ldr	r4, [sp, #40]	; 0x28
 8004540:	0095      	lsls	r5, r2, #2
 8004542:	002a      	movs	r2, r5
 8004544:	9000      	str	r0, [sp, #0]
 8004546:	000e      	movs	r6, r1
 8004548:	6b20      	ldr	r0, [r4, #48]	; 0x30
 800454a:	21a5      	movs	r1, #165	; 0xa5
 800454c:	9301      	str	r3, [sp, #4]
 800454e:	f001 f8aa 	bl	80056a6 <memset>
 8004552:	6b23      	ldr	r3, [r4, #48]	; 0x30
 8004554:	3d04      	subs	r5, #4
 8004556:	195d      	adds	r5, r3, r5
 8004558:	2307      	movs	r3, #7
 800455a:	0022      	movs	r2, r4
 800455c:	439d      	bics	r5, r3
 800455e:	002f      	movs	r7, r5
 8004560:	2300      	movs	r3, #0
 8004562:	3234      	adds	r2, #52	; 0x34
 8004564:	5cf1      	ldrb	r1, [r6, r3]
 8004566:	54d1      	strb	r1, [r2, r3]
 8004568:	5cf1      	ldrb	r1, [r6, r3]
 800456a:	2900      	cmp	r1, #0
 800456c:	d002      	beq.n	8004574 <prvInitialiseNewTask.isra.0+0x38>
 800456e:	3301      	adds	r3, #1
 8004570:	2b10      	cmp	r3, #16
 8004572:	d1f7      	bne.n	8004564 <prvInitialiseNewTask.isra.0+0x28>
 8004574:	0023      	movs	r3, r4
 8004576:	2500      	movs	r5, #0
 8004578:	9e08      	ldr	r6, [sp, #32]
 800457a:	3343      	adds	r3, #67	; 0x43
 800457c:	701d      	strb	r5, [r3, #0]
 800457e:	2e37      	cmp	r6, #55	; 0x37
 8004580:	d900      	bls.n	8004584 <prvInitialiseNewTask.isra.0+0x48>
 8004582:	2637      	movs	r6, #55	; 0x37
 8004584:	62e6      	str	r6, [r4, #44]	; 0x2c
 8004586:	64e6      	str	r6, [r4, #76]	; 0x4c
 8004588:	1d20      	adds	r0, r4, #4
 800458a:	6525      	str	r5, [r4, #80]	; 0x50
 800458c:	f7ff faed 	bl	8003b6a <vListInitialiseItem>
 8004590:	0020      	movs	r0, r4
 8004592:	3018      	adds	r0, #24
 8004594:	f7ff fae9 	bl	8003b6a <vListInitialiseItem>
 8004598:	2338      	movs	r3, #56	; 0x38
 800459a:	1b9e      	subs	r6, r3, r6
 800459c:	0023      	movs	r3, r4
 800459e:	0020      	movs	r0, r4
 80045a0:	33b4      	adds	r3, #180	; 0xb4
 80045a2:	6124      	str	r4, [r4, #16]
 80045a4:	61a6      	str	r6, [r4, #24]
 80045a6:	6264      	str	r4, [r4, #36]	; 0x24
 80045a8:	2260      	movs	r2, #96	; 0x60
 80045aa:	601d      	str	r5, [r3, #0]
 80045ac:	2100      	movs	r1, #0
 80045ae:	711d      	strb	r5, [r3, #4]
 80045b0:	3054      	adds	r0, #84	; 0x54
 80045b2:	f001 f878 	bl	80056a6 <memset>
 80045b6:	4b08      	ldr	r3, [pc, #32]	; (80045d8 <prvInitialiseNewTask.isra.0+0x9c>)
 80045b8:	0038      	movs	r0, r7
 80045ba:	65a3      	str	r3, [r4, #88]	; 0x58
 80045bc:	4b07      	ldr	r3, [pc, #28]	; (80045dc <prvInitialiseNewTask.isra.0+0xa0>)
 80045be:	9a01      	ldr	r2, [sp, #4]
 80045c0:	65e3      	str	r3, [r4, #92]	; 0x5c
 80045c2:	4b07      	ldr	r3, [pc, #28]	; (80045e0 <prvInitialiseNewTask.isra.0+0xa4>)
 80045c4:	9900      	ldr	r1, [sp, #0]
 80045c6:	6623      	str	r3, [r4, #96]	; 0x60
 80045c8:	f000 fe7c 	bl	80052c4 <pxPortInitialiseStack>
 80045cc:	9b09      	ldr	r3, [sp, #36]	; 0x24
 80045ce:	6020      	str	r0, [r4, #0]
 80045d0:	2b00      	cmp	r3, #0
 80045d2:	d000      	beq.n	80045d6 <prvInitialiseNewTask.isra.0+0x9a>
 80045d4:	601c      	str	r4, [r3, #0]
 80045d6:	bdf7      	pop	{r0, r1, r2, r4, r5, r6, r7, pc}
 80045d8:	08006210 	.word	0x08006210
 80045dc:	08006230 	.word	0x08006230
 80045e0:	080061f0 	.word	0x080061f0

080045e4 <prvDeleteTCB>:
 80045e4:	b510      	push	{r4, lr}
 80045e6:	0004      	movs	r4, r0
 80045e8:	3054      	adds	r0, #84	; 0x54
 80045ea:	f001 f91b 	bl	8005824 <_reclaim_reent>
 80045ee:	0023      	movs	r3, r4
 80045f0:	33b9      	adds	r3, #185	; 0xb9
 80045f2:	781b      	ldrb	r3, [r3, #0]
 80045f4:	2b00      	cmp	r3, #0
 80045f6:	d106      	bne.n	8004606 <prvDeleteTCB+0x22>
 80045f8:	6b20      	ldr	r0, [r4, #48]	; 0x30
 80045fa:	f000 ffaf 	bl	800555c <vPortFree>
 80045fe:	0020      	movs	r0, r4
 8004600:	f000 ffac 	bl	800555c <vPortFree>
 8004604:	bd10      	pop	{r4, pc}
 8004606:	2b01      	cmp	r3, #1
 8004608:	d0f9      	beq.n	80045fe <prvDeleteTCB+0x1a>
 800460a:	2b02      	cmp	r3, #2
 800460c:	d0fa      	beq.n	8004604 <prvDeleteTCB+0x20>
 800460e:	b672      	cpsid	i
 8004610:	e7fe      	b.n	8004610 <prvDeleteTCB+0x2c>
	...

08004614 <prvIdleTask>:
 8004614:	b570      	push	{r4, r5, r6, lr}
 8004616:	4c10      	ldr	r4, [pc, #64]	; (8004658 <prvIdleTask+0x44>)
 8004618:	6823      	ldr	r3, [r4, #0]
 800461a:	2b00      	cmp	r3, #0
 800461c:	d106      	bne.n	800462c <prvIdleTask+0x18>
 800461e:	4b0f      	ldr	r3, [pc, #60]	; (800465c <prvIdleTask+0x48>)
 8004620:	681b      	ldr	r3, [r3, #0]
 8004622:	2b01      	cmp	r3, #1
 8004624:	d9f7      	bls.n	8004616 <prvIdleTask+0x2>
 8004626:	f000 fe91 	bl	800534c <vPortYield>
 800462a:	e7f4      	b.n	8004616 <prvIdleTask+0x2>
 800462c:	f000 fe9a 	bl	8005364 <vPortEnterCritical>
 8004630:	4b0b      	ldr	r3, [pc, #44]	; (8004660 <prvIdleTask+0x4c>)
 8004632:	68db      	ldr	r3, [r3, #12]
 8004634:	68dd      	ldr	r5, [r3, #12]
 8004636:	1d28      	adds	r0, r5, #4
 8004638:	f7ff fabd 	bl	8003bb6 <uxListRemove>
 800463c:	4a09      	ldr	r2, [pc, #36]	; (8004664 <prvIdleTask+0x50>)
 800463e:	6813      	ldr	r3, [r2, #0]
 8004640:	3b01      	subs	r3, #1
 8004642:	6013      	str	r3, [r2, #0]
 8004644:	6823      	ldr	r3, [r4, #0]
 8004646:	3b01      	subs	r3, #1
 8004648:	6023      	str	r3, [r4, #0]
 800464a:	f000 fe97 	bl	800537c <vPortExitCritical>
 800464e:	0028      	movs	r0, r5
 8004650:	f7ff ffc8 	bl	80045e4 <prvDeleteTCB>
 8004654:	e7df      	b.n	8004616 <prvIdleTask+0x2>
 8004656:	46c0      	nop			; (mov r8, r8)
 8004658:	200015fc 	.word	0x200015fc
 800465c:	20001198 	.word	0x20001198
 8004660:	2000166c 	.word	0x2000166c
 8004664:	200015f8 	.word	0x200015f8

08004668 <prvAddCurrentTaskToDelayedList>:
 8004668:	b5f8      	push	{r3, r4, r5, r6, r7, lr}
 800466a:	0004      	movs	r4, r0
 800466c:	4b14      	ldr	r3, [pc, #80]	; (80046c0 <prvAddCurrentTaskToDelayedList+0x58>)
 800466e:	4d15      	ldr	r5, [pc, #84]	; (80046c4 <prvAddCurrentTaskToDelayedList+0x5c>)
 8004670:	681e      	ldr	r6, [r3, #0]
 8004672:	6828      	ldr	r0, [r5, #0]
 8004674:	000f      	movs	r7, r1
 8004676:	3004      	adds	r0, #4
 8004678:	f7ff fa9d 	bl	8003bb6 <uxListRemove>
 800467c:	1c63      	adds	r3, r4, #1
 800467e:	d107      	bne.n	8004690 <prvAddCurrentTaskToDelayedList+0x28>
 8004680:	2f00      	cmp	r7, #0
 8004682:	d005      	beq.n	8004690 <prvAddCurrentTaskToDelayedList+0x28>
 8004684:	6829      	ldr	r1, [r5, #0]
 8004686:	4810      	ldr	r0, [pc, #64]	; (80046c8 <prvAddCurrentTaskToDelayedList+0x60>)
 8004688:	3104      	adds	r1, #4
 800468a:	f7ff fa71 	bl	8003b70 <vListInsertEnd>
 800468e:	bdf8      	pop	{r3, r4, r5, r6, r7, pc}
 8004690:	682b      	ldr	r3, [r5, #0]
 8004692:	1934      	adds	r4, r6, r4
 8004694:	605c      	str	r4, [r3, #4]
 8004696:	42a6      	cmp	r6, r4
 8004698:	d906      	bls.n	80046a8 <prvAddCurrentTaskToDelayedList+0x40>
 800469a:	4b0c      	ldr	r3, [pc, #48]	; (80046cc <prvAddCurrentTaskToDelayedList+0x64>)
 800469c:	6818      	ldr	r0, [r3, #0]
 800469e:	6829      	ldr	r1, [r5, #0]
 80046a0:	3104      	adds	r1, #4
 80046a2:	f7ff fa71 	bl	8003b88 <vListInsert>
 80046a6:	e7f2      	b.n	800468e <prvAddCurrentTaskToDelayedList+0x26>
 80046a8:	4b09      	ldr	r3, [pc, #36]	; (80046d0 <prvAddCurrentTaskToDelayedList+0x68>)
 80046aa:	6818      	ldr	r0, [r3, #0]
 80046ac:	6829      	ldr	r1, [r5, #0]
 80046ae:	3104      	adds	r1, #4
 80046b0:	f7ff fa6a 	bl	8003b88 <vListInsert>
 80046b4:	4b07      	ldr	r3, [pc, #28]	; (80046d4 <prvAddCurrentTaskToDelayedList+0x6c>)
 80046b6:	681a      	ldr	r2, [r3, #0]
 80046b8:	42a2      	cmp	r2, r4
 80046ba:	d9e8      	bls.n	800468e <prvAddCurrentTaskToDelayedList+0x26>
 80046bc:	601c      	str	r4, [r3, #0]
 80046be:	e7e6      	b.n	800468e <prvAddCurrentTaskToDelayedList+0x26>
 80046c0:	20001680 	.word	0x20001680
 80046c4:	2000118c 	.word	0x2000118c
 80046c8:	20001658 	.word	0x20001658
 80046cc:	20001194 	.word	0x20001194
 80046d0:	20001190 	.word	0x20001190
 80046d4:	20001638 	.word	0x20001638

080046d8 <xTaskCreateStatic>:
 80046d8:	b570      	push	{r4, r5, r6, lr}
 80046da:	b086      	sub	sp, #24
 80046dc:	9d0b      	ldr	r5, [sp, #44]	; 0x2c
 80046de:	9c0c      	ldr	r4, [sp, #48]	; 0x30
 80046e0:	2d00      	cmp	r5, #0
 80046e2:	d101      	bne.n	80046e8 <xTaskCreateStatic+0x10>
 80046e4:	b672      	cpsid	i
 80046e6:	e7fe      	b.n	80046e6 <xTaskCreateStatic+0xe>
 80046e8:	2c00      	cmp	r4, #0
 80046ea:	d101      	bne.n	80046f0 <xTaskCreateStatic+0x18>
 80046ec:	b672      	cpsid	i
 80046ee:	e7fe      	b.n	80046ee <xTaskCreateStatic+0x16>
 80046f0:	26bc      	movs	r6, #188	; 0xbc
 80046f2:	9604      	str	r6, [sp, #16]
 80046f4:	9e04      	ldr	r6, [sp, #16]
 80046f6:	2ebc      	cmp	r6, #188	; 0xbc
 80046f8:	d001      	beq.n	80046fe <xTaskCreateStatic+0x26>
 80046fa:	b672      	cpsid	i
 80046fc:	e7fe      	b.n	80046fc <xTaskCreateStatic+0x24>
 80046fe:	6325      	str	r5, [r4, #48]	; 0x30
 8004700:	0025      	movs	r5, r4
 8004702:	2602      	movs	r6, #2
 8004704:	35b9      	adds	r5, #185	; 0xb9
 8004706:	702e      	strb	r6, [r5, #0]
 8004708:	ad05      	add	r5, sp, #20
 800470a:	9501      	str	r5, [sp, #4]
 800470c:	9d0a      	ldr	r5, [sp, #40]	; 0x28
 800470e:	9402      	str	r4, [sp, #8]
 8004710:	9500      	str	r5, [sp, #0]
 8004712:	f7ff ff13 	bl	800453c <prvInitialiseNewTask.isra.0>
 8004716:	0020      	movs	r0, r4
 8004718:	f7ff fe88 	bl	800442c <prvAddNewTaskToReadyList>
 800471c:	9805      	ldr	r0, [sp, #20]
 800471e:	b006      	add	sp, #24
 8004720:	bd70      	pop	{r4, r5, r6, pc}

08004722 <xTaskCreate>:
 8004722:	b5f0      	push	{r4, r5, r6, r7, lr}
 8004724:	0007      	movs	r7, r0
 8004726:	b087      	sub	sp, #28
 8004728:	0090      	lsls	r0, r2, #2
 800472a:	0016      	movs	r6, r2
 800472c:	9104      	str	r1, [sp, #16]
 800472e:	9305      	str	r3, [sp, #20]
 8004730:	f000 fe96 	bl	8005460 <pvPortMalloc>
 8004734:	1e05      	subs	r5, r0, #0
 8004736:	d01d      	beq.n	8004774 <xTaskCreate+0x52>
 8004738:	20bc      	movs	r0, #188	; 0xbc
 800473a:	f000 fe91 	bl	8005460 <pvPortMalloc>
 800473e:	1e04      	subs	r4, r0, #0
 8004740:	d015      	beq.n	800476e <xTaskCreate+0x4c>
 8004742:	0003      	movs	r3, r0
 8004744:	2200      	movs	r2, #0
 8004746:	33b9      	adds	r3, #185	; 0xb9
 8004748:	6305      	str	r5, [r0, #48]	; 0x30
 800474a:	701a      	strb	r2, [r3, #0]
 800474c:	9b0d      	ldr	r3, [sp, #52]	; 0x34
 800474e:	0032      	movs	r2, r6
 8004750:	9301      	str	r3, [sp, #4]
 8004752:	9b0c      	ldr	r3, [sp, #48]	; 0x30
 8004754:	9904      	ldr	r1, [sp, #16]
 8004756:	9002      	str	r0, [sp, #8]
 8004758:	9300      	str	r3, [sp, #0]
 800475a:	0038      	movs	r0, r7
 800475c:	9b05      	ldr	r3, [sp, #20]
 800475e:	f7ff feed 	bl	800453c <prvInitialiseNewTask.isra.0>
 8004762:	0020      	movs	r0, r4
 8004764:	f7ff fe62 	bl	800442c <prvAddNewTaskToReadyList>
 8004768:	2001      	movs	r0, #1
 800476a:	b007      	add	sp, #28
 800476c:	bdf0      	pop	{r4, r5, r6, r7, pc}
 800476e:	0028      	movs	r0, r5
 8004770:	f000 fef4 	bl	800555c <vPortFree>
 8004774:	2001      	movs	r0, #1
 8004776:	4240      	negs	r0, r0
 8004778:	e7f7      	b.n	800476a <xTaskCreate+0x48>
	...

0800477c <vTaskStartScheduler>:
 800477c:	b510      	push	{r4, lr}
 800477e:	2400      	movs	r4, #0
 8004780:	b088      	sub	sp, #32
 8004782:	aa07      	add	r2, sp, #28
 8004784:	a906      	add	r1, sp, #24
 8004786:	a805      	add	r0, sp, #20
 8004788:	9405      	str	r4, [sp, #20]
 800478a:	9406      	str	r4, [sp, #24]
 800478c:	f7ff f8d6 	bl	800393c <vApplicationGetIdleTaskMemory>
 8004790:	9b05      	ldr	r3, [sp, #20]
 8004792:	9a07      	ldr	r2, [sp, #28]
 8004794:	9302      	str	r3, [sp, #8]
 8004796:	9b06      	ldr	r3, [sp, #24]
 8004798:	4911      	ldr	r1, [pc, #68]	; (80047e0 <vTaskStartScheduler+0x64>)
 800479a:	9301      	str	r3, [sp, #4]
 800479c:	4811      	ldr	r0, [pc, #68]	; (80047e4 <vTaskStartScheduler+0x68>)
 800479e:	0023      	movs	r3, r4
 80047a0:	9400      	str	r4, [sp, #0]
 80047a2:	f7ff ff99 	bl	80046d8 <xTaskCreateStatic>
 80047a6:	42a0      	cmp	r0, r4
 80047a8:	d013      	beq.n	80047d2 <vTaskStartScheduler+0x56>
 80047aa:	f000 fbab 	bl	8004f04 <xTimerCreateTimerTask>
 80047ae:	2801      	cmp	r0, #1
 80047b0:	d111      	bne.n	80047d6 <vTaskStartScheduler+0x5a>
 80047b2:	b672      	cpsid	i
 80047b4:	4b0c      	ldr	r3, [pc, #48]	; (80047e8 <vTaskStartScheduler+0x6c>)
 80047b6:	4a0d      	ldr	r2, [pc, #52]	; (80047ec <vTaskStartScheduler+0x70>)
 80047b8:	681b      	ldr	r3, [r3, #0]
 80047ba:	3354      	adds	r3, #84	; 0x54
 80047bc:	6013      	str	r3, [r2, #0]
 80047be:	2201      	movs	r2, #1
 80047c0:	4b0b      	ldr	r3, [pc, #44]	; (80047f0 <vTaskStartScheduler+0x74>)
 80047c2:	4252      	negs	r2, r2
 80047c4:	601a      	str	r2, [r3, #0]
 80047c6:	4b0b      	ldr	r3, [pc, #44]	; (80047f4 <vTaskStartScheduler+0x78>)
 80047c8:	6018      	str	r0, [r3, #0]
 80047ca:	4b0b      	ldr	r3, [pc, #44]	; (80047f8 <vTaskStartScheduler+0x7c>)
 80047cc:	601c      	str	r4, [r3, #0]
 80047ce:	f000 fd8b 	bl	80052e8 <xPortStartScheduler>
 80047d2:	b008      	add	sp, #32
 80047d4:	bd10      	pop	{r4, pc}
 80047d6:	1c43      	adds	r3, r0, #1
 80047d8:	d1fb      	bne.n	80047d2 <vTaskStartScheduler+0x56>
 80047da:	b672      	cpsid	i
 80047dc:	e7fe      	b.n	80047dc <vTaskStartScheduler+0x60>
 80047de:	46c0      	nop			; (mov r8, r8)
 80047e0:	080061dc 	.word	0x080061dc
 80047e4:	08004615 	.word	0x08004615
 80047e8:	2000118c 	.word	0x2000118c
 80047ec:	20000020 	.word	0x20000020
 80047f0:	20001638 	.word	0x20001638
 80047f4:	20001654 	.word	0x20001654
 80047f8:	20001680 	.word	0x20001680

080047fc <vTaskSuspendAll>:
 80047fc:	4a02      	ldr	r2, [pc, #8]	; (8004808 <vTaskSuspendAll+0xc>)
 80047fe:	6813      	ldr	r3, [r2, #0]
 8004800:	3301      	adds	r3, #1
 8004802:	6013      	str	r3, [r2, #0]
 8004804:	4770      	bx	lr
 8004806:	46c0      	nop			; (mov r8, r8)
 8004808:	20001604 	.word	0x20001604

0800480c <xTaskGetTickCount>:
 800480c:	4b01      	ldr	r3, [pc, #4]	; (8004814 <xTaskGetTickCount+0x8>)
 800480e:	6818      	ldr	r0, [r3, #0]
 8004810:	4770      	bx	lr
 8004812:	46c0      	nop			; (mov r8, r8)
 8004814:	20001680 	.word	0x20001680

08004818 <xTaskGetTickCountFromISR>:
 8004818:	4b01      	ldr	r3, [pc, #4]	; (8004820 <xTaskGetTickCountFromISR+0x8>)
 800481a:	6818      	ldr	r0, [r3, #0]
 800481c:	4770      	bx	lr
 800481e:	46c0      	nop			; (mov r8, r8)
 8004820:	20001680 	.word	0x20001680

08004824 <xTaskIncrementTick>:
 8004824:	4b34      	ldr	r3, [pc, #208]	; (80048f8 <xTaskIncrementTick+0xd4>)
 8004826:	b5f7      	push	{r0, r1, r2, r4, r5, r6, r7, lr}
 8004828:	681b      	ldr	r3, [r3, #0]
 800482a:	2b00      	cmp	r3, #0
 800482c:	d15e      	bne.n	80048ec <xTaskIncrementTick+0xc8>
 800482e:	4b33      	ldr	r3, [pc, #204]	; (80048fc <xTaskIncrementTick+0xd8>)
 8004830:	681a      	ldr	r2, [r3, #0]
 8004832:	3201      	adds	r2, #1
 8004834:	9200      	str	r2, [sp, #0]
 8004836:	601a      	str	r2, [r3, #0]
 8004838:	2a00      	cmp	r2, #0
 800483a:	d111      	bne.n	8004860 <xTaskIncrementTick+0x3c>
 800483c:	4b30      	ldr	r3, [pc, #192]	; (8004900 <xTaskIncrementTick+0xdc>)
 800483e:	681a      	ldr	r2, [r3, #0]
 8004840:	6812      	ldr	r2, [r2, #0]
 8004842:	2a00      	cmp	r2, #0
 8004844:	d001      	beq.n	800484a <xTaskIncrementTick+0x26>
 8004846:	b672      	cpsid	i
 8004848:	e7fe      	b.n	8004848 <xTaskIncrementTick+0x24>
 800484a:	4a2e      	ldr	r2, [pc, #184]	; (8004904 <xTaskIncrementTick+0xe0>)
 800484c:	6819      	ldr	r1, [r3, #0]
 800484e:	6810      	ldr	r0, [r2, #0]
 8004850:	6018      	str	r0, [r3, #0]
 8004852:	6011      	str	r1, [r2, #0]
 8004854:	4a2c      	ldr	r2, [pc, #176]	; (8004908 <xTaskIncrementTick+0xe4>)
 8004856:	6813      	ldr	r3, [r2, #0]
 8004858:	3301      	adds	r3, #1
 800485a:	6013      	str	r3, [r2, #0]
 800485c:	f7ff fe5a 	bl	8004514 <prvResetNextTaskUnblockTime>
 8004860:	4e2a      	ldr	r6, [pc, #168]	; (800490c <xTaskIncrementTick+0xe8>)
 8004862:	9a00      	ldr	r2, [sp, #0]
 8004864:	6833      	ldr	r3, [r6, #0]
 8004866:	2400      	movs	r4, #0
 8004868:	4f29      	ldr	r7, [pc, #164]	; (8004910 <xTaskIncrementTick+0xec>)
 800486a:	4293      	cmp	r3, r2
 800486c:	d935      	bls.n	80048da <xTaskIncrementTick+0xb6>
 800486e:	683b      	ldr	r3, [r7, #0]
 8004870:	6ada      	ldr	r2, [r3, #44]	; 0x2c
 8004872:	2314      	movs	r3, #20
 8004874:	4353      	muls	r3, r2
 8004876:	4a27      	ldr	r2, [pc, #156]	; (8004914 <xTaskIncrementTick+0xf0>)
 8004878:	58d3      	ldr	r3, [r2, r3]
 800487a:	2b01      	cmp	r3, #1
 800487c:	d900      	bls.n	8004880 <xTaskIncrementTick+0x5c>
 800487e:	2401      	movs	r4, #1
 8004880:	4b25      	ldr	r3, [pc, #148]	; (8004918 <xTaskIncrementTick+0xf4>)
 8004882:	681b      	ldr	r3, [r3, #0]
 8004884:	2b00      	cmp	r3, #0
 8004886:	d000      	beq.n	800488a <xTaskIncrementTick+0x66>
 8004888:	2401      	movs	r4, #1
 800488a:	0020      	movs	r0, r4
 800488c:	bdfe      	pop	{r1, r2, r3, r4, r5, r6, r7, pc}
 800488e:	681b      	ldr	r3, [r3, #0]
 8004890:	9a00      	ldr	r2, [sp, #0]
 8004892:	68db      	ldr	r3, [r3, #12]
 8004894:	68dd      	ldr	r5, [r3, #12]
 8004896:	686b      	ldr	r3, [r5, #4]
 8004898:	429a      	cmp	r2, r3
 800489a:	d325      	bcc.n	80048e8 <xTaskIncrementTick+0xc4>
 800489c:	1d2b      	adds	r3, r5, #4
 800489e:	0018      	movs	r0, r3
 80048a0:	9301      	str	r3, [sp, #4]
 80048a2:	f7ff f988 	bl	8003bb6 <uxListRemove>
 80048a6:	6aab      	ldr	r3, [r5, #40]	; 0x28
 80048a8:	2b00      	cmp	r3, #0
 80048aa:	d003      	beq.n	80048b4 <xTaskIncrementTick+0x90>
 80048ac:	0028      	movs	r0, r5
 80048ae:	3018      	adds	r0, #24
 80048b0:	f7ff f981 	bl	8003bb6 <uxListRemove>
 80048b4:	4b19      	ldr	r3, [pc, #100]	; (800491c <xTaskIncrementTick+0xf8>)
 80048b6:	6ae8      	ldr	r0, [r5, #44]	; 0x2c
 80048b8:	681a      	ldr	r2, [r3, #0]
 80048ba:	4290      	cmp	r0, r2
 80048bc:	d900      	bls.n	80048c0 <xTaskIncrementTick+0x9c>
 80048be:	6018      	str	r0, [r3, #0]
 80048c0:	2314      	movs	r3, #20
 80048c2:	4358      	muls	r0, r3
 80048c4:	4b13      	ldr	r3, [pc, #76]	; (8004914 <xTaskIncrementTick+0xf0>)
 80048c6:	1d29      	adds	r1, r5, #4
 80048c8:	1818      	adds	r0, r3, r0
 80048ca:	f7ff f951 	bl	8003b70 <vListInsertEnd>
 80048ce:	683b      	ldr	r3, [r7, #0]
 80048d0:	6aea      	ldr	r2, [r5, #44]	; 0x2c
 80048d2:	6adb      	ldr	r3, [r3, #44]	; 0x2c
 80048d4:	429a      	cmp	r2, r3
 80048d6:	d300      	bcc.n	80048da <xTaskIncrementTick+0xb6>
 80048d8:	2401      	movs	r4, #1
 80048da:	4b09      	ldr	r3, [pc, #36]	; (8004900 <xTaskIncrementTick+0xdc>)
 80048dc:	681a      	ldr	r2, [r3, #0]
 80048de:	6812      	ldr	r2, [r2, #0]
 80048e0:	2a00      	cmp	r2, #0
 80048e2:	d1d4      	bne.n	800488e <xTaskIncrementTick+0x6a>
 80048e4:	2301      	movs	r3, #1
 80048e6:	425b      	negs	r3, r3
 80048e8:	6033      	str	r3, [r6, #0]
 80048ea:	e7c0      	b.n	800486e <xTaskIncrementTick+0x4a>
 80048ec:	4a0c      	ldr	r2, [pc, #48]	; (8004920 <xTaskIncrementTick+0xfc>)
 80048ee:	2400      	movs	r4, #0
 80048f0:	6813      	ldr	r3, [r2, #0]
 80048f2:	3301      	adds	r3, #1
 80048f4:	6013      	str	r3, [r2, #0]
 80048f6:	e7c3      	b.n	8004880 <xTaskIncrementTick+0x5c>
 80048f8:	20001604 	.word	0x20001604
 80048fc:	20001680 	.word	0x20001680
 8004900:	20001190 	.word	0x20001190
 8004904:	20001194 	.word	0x20001194
 8004908:	2000163c 	.word	0x2000163c
 800490c:	20001638 	.word	0x20001638
 8004910:	2000118c 	.word	0x2000118c
 8004914:	20001198 	.word	0x20001198
 8004918:	20001684 	.word	0x20001684
 800491c:	2000160c 	.word	0x2000160c
 8004920:	20001600 	.word	0x20001600

08004924 <xTaskResumeAll>:
 8004924:	b5f8      	push	{r3, r4, r5, r6, r7, lr}
 8004926:	4c2b      	ldr	r4, [pc, #172]	; (80049d4 <xTaskResumeAll+0xb0>)
 8004928:	6823      	ldr	r3, [r4, #0]
 800492a:	2b00      	cmp	r3, #0
 800492c:	d101      	bne.n	8004932 <xTaskResumeAll+0xe>
 800492e:	b672      	cpsid	i
 8004930:	e7fe      	b.n	8004930 <xTaskResumeAll+0xc>
 8004932:	f000 fd17 	bl	8005364 <vPortEnterCritical>
 8004936:	6823      	ldr	r3, [r4, #0]
 8004938:	3b01      	subs	r3, #1
 800493a:	6023      	str	r3, [r4, #0]
 800493c:	6824      	ldr	r4, [r4, #0]
 800493e:	2c00      	cmp	r4, #0
 8004940:	d004      	beq.n	800494c <xTaskResumeAll+0x28>
 8004942:	2400      	movs	r4, #0
 8004944:	f000 fd1a 	bl	800537c <vPortExitCritical>
 8004948:	0020      	movs	r0, r4
 800494a:	bdf8      	pop	{r3, r4, r5, r6, r7, pc}
 800494c:	4b22      	ldr	r3, [pc, #136]	; (80049d8 <xTaskResumeAll+0xb4>)
 800494e:	681b      	ldr	r3, [r3, #0]
 8004950:	2b00      	cmp	r3, #0
 8004952:	d0f6      	beq.n	8004942 <xTaskResumeAll+0x1e>
 8004954:	2614      	movs	r6, #20
 8004956:	2701      	movs	r7, #1
 8004958:	e01d      	b.n	8004996 <xTaskResumeAll+0x72>
 800495a:	68db      	ldr	r3, [r3, #12]
 800495c:	68dc      	ldr	r4, [r3, #12]
 800495e:	0020      	movs	r0, r4
 8004960:	1d25      	adds	r5, r4, #4
 8004962:	3018      	adds	r0, #24
 8004964:	f7ff f927 	bl	8003bb6 <uxListRemove>
 8004968:	0028      	movs	r0, r5
 800496a:	f7ff f924 	bl	8003bb6 <uxListRemove>
 800496e:	4b1b      	ldr	r3, [pc, #108]	; (80049dc <xTaskResumeAll+0xb8>)
 8004970:	6ae0      	ldr	r0, [r4, #44]	; 0x2c
 8004972:	681a      	ldr	r2, [r3, #0]
 8004974:	4290      	cmp	r0, r2
 8004976:	d900      	bls.n	800497a <xTaskResumeAll+0x56>
 8004978:	6018      	str	r0, [r3, #0]
 800497a:	4370      	muls	r0, r6
 800497c:	4b18      	ldr	r3, [pc, #96]	; (80049e0 <xTaskResumeAll+0xbc>)
 800497e:	0029      	movs	r1, r5
 8004980:	18c0      	adds	r0, r0, r3
 8004982:	f7ff f8f5 	bl	8003b70 <vListInsertEnd>
 8004986:	4b17      	ldr	r3, [pc, #92]	; (80049e4 <xTaskResumeAll+0xc0>)
 8004988:	6ae2      	ldr	r2, [r4, #44]	; 0x2c
 800498a:	681b      	ldr	r3, [r3, #0]
 800498c:	6adb      	ldr	r3, [r3, #44]	; 0x2c
 800498e:	429a      	cmp	r2, r3
 8004990:	d301      	bcc.n	8004996 <xTaskResumeAll+0x72>
 8004992:	4b15      	ldr	r3, [pc, #84]	; (80049e8 <xTaskResumeAll+0xc4>)
 8004994:	601f      	str	r7, [r3, #0]
 8004996:	4b15      	ldr	r3, [pc, #84]	; (80049ec <xTaskResumeAll+0xc8>)
 8004998:	681a      	ldr	r2, [r3, #0]
 800499a:	2a00      	cmp	r2, #0
 800499c:	d1dd      	bne.n	800495a <xTaskResumeAll+0x36>
 800499e:	2c00      	cmp	r4, #0
 80049a0:	d001      	beq.n	80049a6 <xTaskResumeAll+0x82>
 80049a2:	f7ff fdb7 	bl	8004514 <prvResetNextTaskUnblockTime>
 80049a6:	4d12      	ldr	r5, [pc, #72]	; (80049f0 <xTaskResumeAll+0xcc>)
 80049a8:	682c      	ldr	r4, [r5, #0]
 80049aa:	2c00      	cmp	r4, #0
 80049ac:	d00a      	beq.n	80049c4 <xTaskResumeAll+0xa0>
 80049ae:	2601      	movs	r6, #1
 80049b0:	f7ff ff38 	bl	8004824 <xTaskIncrementTick>
 80049b4:	2800      	cmp	r0, #0
 80049b6:	d001      	beq.n	80049bc <xTaskResumeAll+0x98>
 80049b8:	4b0b      	ldr	r3, [pc, #44]	; (80049e8 <xTaskResumeAll+0xc4>)
 80049ba:	601e      	str	r6, [r3, #0]
 80049bc:	3c01      	subs	r4, #1
 80049be:	2c00      	cmp	r4, #0
 80049c0:	d1f6      	bne.n	80049b0 <xTaskResumeAll+0x8c>
 80049c2:	602c      	str	r4, [r5, #0]
 80049c4:	4b08      	ldr	r3, [pc, #32]	; (80049e8 <xTaskResumeAll+0xc4>)
 80049c6:	681b      	ldr	r3, [r3, #0]
 80049c8:	2b00      	cmp	r3, #0
 80049ca:	d0ba      	beq.n	8004942 <xTaskResumeAll+0x1e>
 80049cc:	f000 fcbe 	bl	800534c <vPortYield>
 80049d0:	2401      	movs	r4, #1
 80049d2:	e7b7      	b.n	8004944 <xTaskResumeAll+0x20>
 80049d4:	20001604 	.word	0x20001604
 80049d8:	200015f8 	.word	0x200015f8
 80049dc:	2000160c 	.word	0x2000160c
 80049e0:	20001198 	.word	0x20001198
 80049e4:	2000118c 	.word	0x2000118c
 80049e8:	20001684 	.word	0x20001684
 80049ec:	20001640 	.word	0x20001640
 80049f0:	20001600 	.word	0x20001600

080049f4 <vTaskDelay>:
 80049f4:	b570      	push	{r4, r5, r6, lr}
 80049f6:	1e04      	subs	r4, r0, #0
 80049f8:	d102      	bne.n	8004a00 <vTaskDelay+0xc>
 80049fa:	f000 fca7 	bl	800534c <vPortYield>
 80049fe:	bd70      	pop	{r4, r5, r6, pc}
 8004a00:	4b08      	ldr	r3, [pc, #32]	; (8004a24 <vTaskDelay+0x30>)
 8004a02:	681d      	ldr	r5, [r3, #0]
 8004a04:	2d00      	cmp	r5, #0
 8004a06:	d001      	beq.n	8004a0c <vTaskDelay+0x18>
 8004a08:	b672      	cpsid	i
 8004a0a:	e7fe      	b.n	8004a0a <vTaskDelay+0x16>
 8004a0c:	f7ff fef6 	bl	80047fc <vTaskSuspendAll>
 8004a10:	0029      	movs	r1, r5
 8004a12:	0020      	movs	r0, r4
 8004a14:	f7ff fe28 	bl	8004668 <prvAddCurrentTaskToDelayedList>
 8004a18:	f7ff ff84 	bl	8004924 <xTaskResumeAll>
 8004a1c:	2800      	cmp	r0, #0
 8004a1e:	d0ec      	beq.n	80049fa <vTaskDelay+0x6>
 8004a20:	e7ed      	b.n	80049fe <vTaskDelay+0xa>
 8004a22:	46c0      	nop			; (mov r8, r8)
 8004a24:	20001604 	.word	0x20001604

08004a28 <vTaskSwitchContext>:
 8004a28:	4b17      	ldr	r3, [pc, #92]	; (8004a88 <vTaskSwitchContext+0x60>)
 8004a2a:	b530      	push	{r4, r5, lr}
 8004a2c:	681a      	ldr	r2, [r3, #0]
 8004a2e:	4b17      	ldr	r3, [pc, #92]	; (8004a8c <vTaskSwitchContext+0x64>)
 8004a30:	2a00      	cmp	r2, #0
 8004a32:	d002      	beq.n	8004a3a <vTaskSwitchContext+0x12>
 8004a34:	2201      	movs	r2, #1
 8004a36:	601a      	str	r2, [r3, #0]
 8004a38:	bd30      	pop	{r4, r5, pc}
 8004a3a:	2514      	movs	r5, #20
 8004a3c:	4814      	ldr	r0, [pc, #80]	; (8004a90 <vTaskSwitchContext+0x68>)
 8004a3e:	601a      	str	r2, [r3, #0]
 8004a40:	6802      	ldr	r2, [r0, #0]
 8004a42:	4914      	ldr	r1, [pc, #80]	; (8004a94 <vTaskSwitchContext+0x6c>)
 8004a44:	002b      	movs	r3, r5
 8004a46:	4353      	muls	r3, r2
 8004a48:	585c      	ldr	r4, [r3, r1]
 8004a4a:	2c00      	cmp	r4, #0
 8004a4c:	d016      	beq.n	8004a7c <vTaskSwitchContext+0x54>
 8004a4e:	18cc      	adds	r4, r1, r3
 8004a50:	6865      	ldr	r5, [r4, #4]
 8004a52:	3308      	adds	r3, #8
 8004a54:	686d      	ldr	r5, [r5, #4]
 8004a56:	185b      	adds	r3, r3, r1
 8004a58:	6065      	str	r5, [r4, #4]
 8004a5a:	429d      	cmp	r5, r3
 8004a5c:	d101      	bne.n	8004a62 <vTaskSwitchContext+0x3a>
 8004a5e:	686b      	ldr	r3, [r5, #4]
 8004a60:	6063      	str	r3, [r4, #4]
 8004a62:	2314      	movs	r3, #20
 8004a64:	4353      	muls	r3, r2
 8004a66:	18c9      	adds	r1, r1, r3
 8004a68:	684b      	ldr	r3, [r1, #4]
 8004a6a:	68d9      	ldr	r1, [r3, #12]
 8004a6c:	4b0a      	ldr	r3, [pc, #40]	; (8004a98 <vTaskSwitchContext+0x70>)
 8004a6e:	6019      	str	r1, [r3, #0]
 8004a70:	6002      	str	r2, [r0, #0]
 8004a72:	681b      	ldr	r3, [r3, #0]
 8004a74:	4a09      	ldr	r2, [pc, #36]	; (8004a9c <vTaskSwitchContext+0x74>)
 8004a76:	3354      	adds	r3, #84	; 0x54
 8004a78:	6013      	str	r3, [r2, #0]
 8004a7a:	e7dd      	b.n	8004a38 <vTaskSwitchContext+0x10>
 8004a7c:	2a00      	cmp	r2, #0
 8004a7e:	d101      	bne.n	8004a84 <vTaskSwitchContext+0x5c>
 8004a80:	b672      	cpsid	i
 8004a82:	e7fe      	b.n	8004a82 <vTaskSwitchContext+0x5a>
 8004a84:	3a01      	subs	r2, #1
 8004a86:	e7dd      	b.n	8004a44 <vTaskSwitchContext+0x1c>
 8004a88:	20001604 	.word	0x20001604
 8004a8c:	20001684 	.word	0x20001684
 8004a90:	2000160c 	.word	0x2000160c
 8004a94:	20001198 	.word	0x20001198
 8004a98:	2000118c 	.word	0x2000118c
 8004a9c:	20000020 	.word	0x20000020

08004aa0 <vTaskPlaceOnEventList>:
 8004aa0:	b510      	push	{r4, lr}
 8004aa2:	000c      	movs	r4, r1
 8004aa4:	2800      	cmp	r0, #0
 8004aa6:	d101      	bne.n	8004aac <vTaskPlaceOnEventList+0xc>
 8004aa8:	b672      	cpsid	i
 8004aaa:	e7fe      	b.n	8004aaa <vTaskPlaceOnEventList+0xa>
 8004aac:	4b04      	ldr	r3, [pc, #16]	; (8004ac0 <vTaskPlaceOnEventList+0x20>)
 8004aae:	6819      	ldr	r1, [r3, #0]
 8004ab0:	3118      	adds	r1, #24
 8004ab2:	f7ff f869 	bl	8003b88 <vListInsert>
 8004ab6:	2101      	movs	r1, #1
 8004ab8:	0020      	movs	r0, r4
 8004aba:	f7ff fdd5 	bl	8004668 <prvAddCurrentTaskToDelayedList>
 8004abe:	bd10      	pop	{r4, pc}
 8004ac0:	2000118c 	.word	0x2000118c

08004ac4 <vTaskPlaceOnUnorderedEventList>:
 8004ac4:	b570      	push	{r4, r5, r6, lr}
 8004ac6:	000b      	movs	r3, r1
 8004ac8:	0014      	movs	r4, r2
 8004aca:	2800      	cmp	r0, #0
 8004acc:	d101      	bne.n	8004ad2 <vTaskPlaceOnUnorderedEventList+0xe>
 8004ace:	b672      	cpsid	i
 8004ad0:	e7fe      	b.n	8004ad0 <vTaskPlaceOnUnorderedEventList+0xc>
 8004ad2:	4a0a      	ldr	r2, [pc, #40]	; (8004afc <vTaskPlaceOnUnorderedEventList+0x38>)
 8004ad4:	6812      	ldr	r2, [r2, #0]
 8004ad6:	2a00      	cmp	r2, #0
 8004ad8:	d101      	bne.n	8004ade <vTaskPlaceOnUnorderedEventList+0x1a>
 8004ada:	b672      	cpsid	i
 8004adc:	e7fe      	b.n	8004adc <vTaskPlaceOnUnorderedEventList+0x18>
 8004ade:	2180      	movs	r1, #128	; 0x80
 8004ae0:	4a07      	ldr	r2, [pc, #28]	; (8004b00 <vTaskPlaceOnUnorderedEventList+0x3c>)
 8004ae2:	0609      	lsls	r1, r1, #24
 8004ae4:	6815      	ldr	r5, [r2, #0]
 8004ae6:	4319      	orrs	r1, r3
 8004ae8:	61a9      	str	r1, [r5, #24]
 8004aea:	6811      	ldr	r1, [r2, #0]
 8004aec:	3118      	adds	r1, #24
 8004aee:	f7ff f83f 	bl	8003b70 <vListInsertEnd>
 8004af2:	2101      	movs	r1, #1
 8004af4:	0020      	movs	r0, r4
 8004af6:	f7ff fdb7 	bl	8004668 <prvAddCurrentTaskToDelayedList>
 8004afa:	bd70      	pop	{r4, r5, r6, pc}
 8004afc:	20001604 	.word	0x20001604
 8004b00:	2000118c 	.word	0x2000118c

08004b04 <vTaskPlaceOnEventListRestricted>:
 8004b04:	b570      	push	{r4, r5, r6, lr}
 8004b06:	000c      	movs	r4, r1
 8004b08:	0015      	movs	r5, r2
 8004b0a:	2800      	cmp	r0, #0
 8004b0c:	d101      	bne.n	8004b12 <vTaskPlaceOnEventListRestricted+0xe>
 8004b0e:	b672      	cpsid	i
 8004b10:	e7fe      	b.n	8004b10 <vTaskPlaceOnEventListRestricted+0xc>
 8004b12:	4b07      	ldr	r3, [pc, #28]	; (8004b30 <vTaskPlaceOnEventListRestricted+0x2c>)
 8004b14:	6819      	ldr	r1, [r3, #0]
 8004b16:	3118      	adds	r1, #24
 8004b18:	f7ff f82a 	bl	8003b70 <vListInsertEnd>
 8004b1c:	2d00      	cmp	r5, #0
 8004b1e:	d001      	beq.n	8004b24 <vTaskPlaceOnEventListRestricted+0x20>
 8004b20:	2401      	movs	r4, #1
 8004b22:	4264      	negs	r4, r4
 8004b24:	0029      	movs	r1, r5
 8004b26:	0020      	movs	r0, r4
 8004b28:	f7ff fd9e 	bl	8004668 <prvAddCurrentTaskToDelayedList>
 8004b2c:	bd70      	pop	{r4, r5, r6, pc}
 8004b2e:	46c0      	nop			; (mov r8, r8)
 8004b30:	2000118c 	.word	0x2000118c

08004b34 <xTaskRemoveFromEventList>:
 8004b34:	68c3      	ldr	r3, [r0, #12]
 8004b36:	b570      	push	{r4, r5, r6, lr}
 8004b38:	68dc      	ldr	r4, [r3, #12]
 8004b3a:	2c00      	cmp	r4, #0
 8004b3c:	d101      	bne.n	8004b42 <xTaskRemoveFromEventList+0xe>
 8004b3e:	b672      	cpsid	i
 8004b40:	e7fe      	b.n	8004b40 <xTaskRemoveFromEventList+0xc>
 8004b42:	0025      	movs	r5, r4
 8004b44:	3518      	adds	r5, #24
 8004b46:	0028      	movs	r0, r5
 8004b48:	f7ff f835 	bl	8003bb6 <uxListRemove>
 8004b4c:	4b11      	ldr	r3, [pc, #68]	; (8004b94 <xTaskRemoveFromEventList+0x60>)
 8004b4e:	681b      	ldr	r3, [r3, #0]
 8004b50:	2b00      	cmp	r3, #0
 8004b52:	d11b      	bne.n	8004b8c <xTaskRemoveFromEventList+0x58>
 8004b54:	1d25      	adds	r5, r4, #4
 8004b56:	0028      	movs	r0, r5
 8004b58:	f7ff f82d 	bl	8003bb6 <uxListRemove>
 8004b5c:	4a0e      	ldr	r2, [pc, #56]	; (8004b98 <xTaskRemoveFromEventList+0x64>)
 8004b5e:	6ae3      	ldr	r3, [r4, #44]	; 0x2c
 8004b60:	6811      	ldr	r1, [r2, #0]
 8004b62:	428b      	cmp	r3, r1
 8004b64:	d900      	bls.n	8004b68 <xTaskRemoveFromEventList+0x34>
 8004b66:	6013      	str	r3, [r2, #0]
 8004b68:	2014      	movs	r0, #20
 8004b6a:	0029      	movs	r1, r5
 8004b6c:	4358      	muls	r0, r3
 8004b6e:	4b0b      	ldr	r3, [pc, #44]	; (8004b9c <xTaskRemoveFromEventList+0x68>)
 8004b70:	18c0      	adds	r0, r0, r3
 8004b72:	f7fe fffd 	bl	8003b70 <vListInsertEnd>
 8004b76:	4b0a      	ldr	r3, [pc, #40]	; (8004ba0 <xTaskRemoveFromEventList+0x6c>)
 8004b78:	6ae2      	ldr	r2, [r4, #44]	; 0x2c
 8004b7a:	681b      	ldr	r3, [r3, #0]
 8004b7c:	2000      	movs	r0, #0
 8004b7e:	6adb      	ldr	r3, [r3, #44]	; 0x2c
 8004b80:	429a      	cmp	r2, r3
 8004b82:	d902      	bls.n	8004b8a <xTaskRemoveFromEventList+0x56>
 8004b84:	4b07      	ldr	r3, [pc, #28]	; (8004ba4 <xTaskRemoveFromEventList+0x70>)
 8004b86:	3001      	adds	r0, #1
 8004b88:	6018      	str	r0, [r3, #0]
 8004b8a:	bd70      	pop	{r4, r5, r6, pc}
 8004b8c:	0029      	movs	r1, r5
 8004b8e:	4806      	ldr	r0, [pc, #24]	; (8004ba8 <xTaskRemoveFromEventList+0x74>)
 8004b90:	e7ef      	b.n	8004b72 <xTaskRemoveFromEventList+0x3e>
 8004b92:	46c0      	nop			; (mov r8, r8)
 8004b94:	20001604 	.word	0x20001604
 8004b98:	2000160c 	.word	0x2000160c
 8004b9c:	20001198 	.word	0x20001198
 8004ba0:	2000118c 	.word	0x2000118c
 8004ba4:	20001684 	.word	0x20001684
 8004ba8:	20001640 	.word	0x20001640

08004bac <vTaskRemoveFromUnorderedEventList>:
 8004bac:	4a16      	ldr	r2, [pc, #88]	; (8004c08 <vTaskRemoveFromUnorderedEventList+0x5c>)
 8004bae:	000b      	movs	r3, r1
 8004bb0:	6812      	ldr	r2, [r2, #0]
 8004bb2:	b570      	push	{r4, r5, r6, lr}
 8004bb4:	2a00      	cmp	r2, #0
 8004bb6:	d101      	bne.n	8004bbc <vTaskRemoveFromUnorderedEventList+0x10>
 8004bb8:	b672      	cpsid	i
 8004bba:	e7fe      	b.n	8004bba <vTaskRemoveFromUnorderedEventList+0xe>
 8004bbc:	2180      	movs	r1, #128	; 0x80
 8004bbe:	68c4      	ldr	r4, [r0, #12]
 8004bc0:	0609      	lsls	r1, r1, #24
 8004bc2:	4319      	orrs	r1, r3
 8004bc4:	6001      	str	r1, [r0, #0]
 8004bc6:	2c00      	cmp	r4, #0
 8004bc8:	d101      	bne.n	8004bce <vTaskRemoveFromUnorderedEventList+0x22>
 8004bca:	b672      	cpsid	i
 8004bcc:	e7fe      	b.n	8004bcc <vTaskRemoveFromUnorderedEventList+0x20>
 8004bce:	1d25      	adds	r5, r4, #4
 8004bd0:	f7fe fff1 	bl	8003bb6 <uxListRemove>
 8004bd4:	0028      	movs	r0, r5
 8004bd6:	f7fe ffee 	bl	8003bb6 <uxListRemove>
 8004bda:	4a0c      	ldr	r2, [pc, #48]	; (8004c0c <vTaskRemoveFromUnorderedEventList+0x60>)
 8004bdc:	6ae3      	ldr	r3, [r4, #44]	; 0x2c
 8004bde:	6811      	ldr	r1, [r2, #0]
 8004be0:	428b      	cmp	r3, r1
 8004be2:	d900      	bls.n	8004be6 <vTaskRemoveFromUnorderedEventList+0x3a>
 8004be4:	6013      	str	r3, [r2, #0]
 8004be6:	2014      	movs	r0, #20
 8004be8:	4358      	muls	r0, r3
 8004bea:	4b09      	ldr	r3, [pc, #36]	; (8004c10 <vTaskRemoveFromUnorderedEventList+0x64>)
 8004bec:	0029      	movs	r1, r5
 8004bee:	18c0      	adds	r0, r0, r3
 8004bf0:	f7fe ffbe 	bl	8003b70 <vListInsertEnd>
 8004bf4:	4b07      	ldr	r3, [pc, #28]	; (8004c14 <vTaskRemoveFromUnorderedEventList+0x68>)
 8004bf6:	6ae2      	ldr	r2, [r4, #44]	; 0x2c
 8004bf8:	681b      	ldr	r3, [r3, #0]
 8004bfa:	6adb      	ldr	r3, [r3, #44]	; 0x2c
 8004bfc:	429a      	cmp	r2, r3
 8004bfe:	d902      	bls.n	8004c06 <vTaskRemoveFromUnorderedEventList+0x5a>
 8004c00:	2201      	movs	r2, #1
 8004c02:	4b05      	ldr	r3, [pc, #20]	; (8004c18 <vTaskRemoveFromUnorderedEventList+0x6c>)
 8004c04:	601a      	str	r2, [r3, #0]
 8004c06:	bd70      	pop	{r4, r5, r6, pc}
 8004c08:	20001604 	.word	0x20001604
 8004c0c:	2000160c 	.word	0x2000160c
 8004c10:	20001198 	.word	0x20001198
 8004c14:	2000118c 	.word	0x2000118c
 8004c18:	20001684 	.word	0x20001684

08004c1c <vTaskInternalSetTimeOutState>:
 8004c1c:	4b03      	ldr	r3, [pc, #12]	; (8004c2c <vTaskInternalSetTimeOutState+0x10>)
 8004c1e:	681b      	ldr	r3, [r3, #0]
 8004c20:	6003      	str	r3, [r0, #0]
 8004c22:	4b03      	ldr	r3, [pc, #12]	; (8004c30 <vTaskInternalSetTimeOutState+0x14>)
 8004c24:	681b      	ldr	r3, [r3, #0]
 8004c26:	6043      	str	r3, [r0, #4]
 8004c28:	4770      	bx	lr
 8004c2a:	46c0      	nop			; (mov r8, r8)
 8004c2c:	2000163c 	.word	0x2000163c
 8004c30:	20001680 	.word	0x20001680

08004c34 <xTaskCheckForTimeOut>:
 8004c34:	b570      	push	{r4, r5, r6, lr}
 8004c36:	0005      	movs	r5, r0
 8004c38:	000c      	movs	r4, r1
 8004c3a:	2800      	cmp	r0, #0
 8004c3c:	d101      	bne.n	8004c42 <xTaskCheckForTimeOut+0xe>
 8004c3e:	b672      	cpsid	i
 8004c40:	e7fe      	b.n	8004c40 <xTaskCheckForTimeOut+0xc>
 8004c42:	2900      	cmp	r1, #0
 8004c44:	d101      	bne.n	8004c4a <xTaskCheckForTimeOut+0x16>
 8004c46:	b672      	cpsid	i
 8004c48:	e7fe      	b.n	8004c48 <xTaskCheckForTimeOut+0x14>
 8004c4a:	f000 fb8b 	bl	8005364 <vPortEnterCritical>
 8004c4e:	4b10      	ldr	r3, [pc, #64]	; (8004c90 <xTaskCheckForTimeOut+0x5c>)
 8004c50:	2600      	movs	r6, #0
 8004c52:	6819      	ldr	r1, [r3, #0]
 8004c54:	6823      	ldr	r3, [r4, #0]
 8004c56:	1c5a      	adds	r2, r3, #1
 8004c58:	d012      	beq.n	8004c80 <xTaskCheckForTimeOut+0x4c>
 8004c5a:	480e      	ldr	r0, [pc, #56]	; (8004c94 <xTaskCheckForTimeOut+0x60>)
 8004c5c:	682e      	ldr	r6, [r5, #0]
 8004c5e:	6800      	ldr	r0, [r0, #0]
 8004c60:	686a      	ldr	r2, [r5, #4]
 8004c62:	4286      	cmp	r6, r0
 8004c64:	d002      	beq.n	8004c6c <xTaskCheckForTimeOut+0x38>
 8004c66:	2601      	movs	r6, #1
 8004c68:	428a      	cmp	r2, r1
 8004c6a:	d909      	bls.n	8004c80 <xTaskCheckForTimeOut+0x4c>
 8004c6c:	1a88      	subs	r0, r1, r2
 8004c6e:	4283      	cmp	r3, r0
 8004c70:	d90a      	bls.n	8004c88 <xTaskCheckForTimeOut+0x54>
 8004c72:	1a5b      	subs	r3, r3, r1
 8004c74:	189b      	adds	r3, r3, r2
 8004c76:	0028      	movs	r0, r5
 8004c78:	6023      	str	r3, [r4, #0]
 8004c7a:	f7ff ffcf 	bl	8004c1c <vTaskInternalSetTimeOutState>
 8004c7e:	2600      	movs	r6, #0
 8004c80:	f000 fb7c 	bl	800537c <vPortExitCritical>
 8004c84:	0030      	movs	r0, r6
 8004c86:	bd70      	pop	{r4, r5, r6, pc}
 8004c88:	2300      	movs	r3, #0
 8004c8a:	2601      	movs	r6, #1
 8004c8c:	6023      	str	r3, [r4, #0]
 8004c8e:	e7f7      	b.n	8004c80 <xTaskCheckForTimeOut+0x4c>
 8004c90:	20001680 	.word	0x20001680
 8004c94:	2000163c 	.word	0x2000163c

08004c98 <vTaskMissedYield>:
 8004c98:	2201      	movs	r2, #1
 8004c9a:	4b01      	ldr	r3, [pc, #4]	; (8004ca0 <vTaskMissedYield+0x8>)
 8004c9c:	601a      	str	r2, [r3, #0]
 8004c9e:	4770      	bx	lr
 8004ca0:	20001684 	.word	0x20001684

08004ca4 <xTaskGetCurrentTaskHandle>:
 8004ca4:	4b01      	ldr	r3, [pc, #4]	; (8004cac <xTaskGetCurrentTaskHandle+0x8>)
 8004ca6:	6818      	ldr	r0, [r3, #0]
 8004ca8:	4770      	bx	lr
 8004caa:	46c0      	nop			; (mov r8, r8)
 8004cac:	2000118c 	.word	0x2000118c

08004cb0 <xTaskGetSchedulerState>:
 8004cb0:	4b05      	ldr	r3, [pc, #20]	; (8004cc8 <xTaskGetSchedulerState+0x18>)
 8004cb2:	2001      	movs	r0, #1
 8004cb4:	681b      	ldr	r3, [r3, #0]
 8004cb6:	2b00      	cmp	r3, #0
 8004cb8:	d004      	beq.n	8004cc4 <xTaskGetSchedulerState+0x14>
 8004cba:	4b04      	ldr	r3, [pc, #16]	; (8004ccc <xTaskGetSchedulerState+0x1c>)
 8004cbc:	6818      	ldr	r0, [r3, #0]
 8004cbe:	4243      	negs	r3, r0
 8004cc0:	4158      	adcs	r0, r3
 8004cc2:	0040      	lsls	r0, r0, #1
 8004cc4:	4770      	bx	lr
 8004cc6:	46c0      	nop			; (mov r8, r8)
 8004cc8:	20001654 	.word	0x20001654
 8004ccc:	20001604 	.word	0x20001604

08004cd0 <xTaskPriorityInherit>:
 8004cd0:	b5f8      	push	{r3, r4, r5, r6, r7, lr}
 8004cd2:	1e04      	subs	r4, r0, #0
 8004cd4:	d02a      	beq.n	8004d2c <xTaskPriorityInherit+0x5c>
 8004cd6:	4d1a      	ldr	r5, [pc, #104]	; (8004d40 <xTaskPriorityInherit+0x70>)
 8004cd8:	6ac1      	ldr	r1, [r0, #44]	; 0x2c
 8004cda:	682b      	ldr	r3, [r5, #0]
 8004cdc:	6adb      	ldr	r3, [r3, #44]	; 0x2c
 8004cde:	4299      	cmp	r1, r3
 8004ce0:	d227      	bcs.n	8004d32 <xTaskPriorityInherit+0x62>
 8004ce2:	6983      	ldr	r3, [r0, #24]
 8004ce4:	2b00      	cmp	r3, #0
 8004ce6:	db04      	blt.n	8004cf2 <xTaskPriorityInherit+0x22>
 8004ce8:	2238      	movs	r2, #56	; 0x38
 8004cea:	682b      	ldr	r3, [r5, #0]
 8004cec:	6adb      	ldr	r3, [r3, #44]	; 0x2c
 8004cee:	1ad2      	subs	r2, r2, r3
 8004cf0:	6182      	str	r2, [r0, #24]
 8004cf2:	2314      	movs	r3, #20
 8004cf4:	434b      	muls	r3, r1
 8004cf6:	4e13      	ldr	r6, [pc, #76]	; (8004d44 <xTaskPriorityInherit+0x74>)
 8004cf8:	6962      	ldr	r2, [r4, #20]
 8004cfa:	199b      	adds	r3, r3, r6
 8004cfc:	429a      	cmp	r2, r3
 8004cfe:	d111      	bne.n	8004d24 <xTaskPriorityInherit+0x54>
 8004d00:	1d27      	adds	r7, r4, #4
 8004d02:	0038      	movs	r0, r7
 8004d04:	f7fe ff57 	bl	8003bb6 <uxListRemove>
 8004d08:	682b      	ldr	r3, [r5, #0]
 8004d0a:	6ad8      	ldr	r0, [r3, #44]	; 0x2c
 8004d0c:	4b0e      	ldr	r3, [pc, #56]	; (8004d48 <xTaskPriorityInherit+0x78>)
 8004d0e:	62e0      	str	r0, [r4, #44]	; 0x2c
 8004d10:	681a      	ldr	r2, [r3, #0]
 8004d12:	4290      	cmp	r0, r2
 8004d14:	d80b      	bhi.n	8004d2e <xTaskPriorityInherit+0x5e>
 8004d16:	2314      	movs	r3, #20
 8004d18:	4358      	muls	r0, r3
 8004d1a:	0039      	movs	r1, r7
 8004d1c:	1830      	adds	r0, r6, r0
 8004d1e:	f7fe ff27 	bl	8003b70 <vListInsertEnd>
 8004d22:	e002      	b.n	8004d2a <xTaskPriorityInherit+0x5a>
 8004d24:	682b      	ldr	r3, [r5, #0]
 8004d26:	6adb      	ldr	r3, [r3, #44]	; 0x2c
 8004d28:	62e3      	str	r3, [r4, #44]	; 0x2c
 8004d2a:	2001      	movs	r0, #1
 8004d2c:	bdf8      	pop	{r3, r4, r5, r6, r7, pc}
 8004d2e:	6018      	str	r0, [r3, #0]
 8004d30:	e7f1      	b.n	8004d16 <xTaskPriorityInherit+0x46>
 8004d32:	682b      	ldr	r3, [r5, #0]
 8004d34:	6cc0      	ldr	r0, [r0, #76]	; 0x4c
 8004d36:	6adb      	ldr	r3, [r3, #44]	; 0x2c
 8004d38:	4298      	cmp	r0, r3
 8004d3a:	4180      	sbcs	r0, r0
 8004d3c:	4240      	negs	r0, r0
 8004d3e:	e7f5      	b.n	8004d2c <xTaskPriorityInherit+0x5c>
 8004d40:	2000118c 	.word	0x2000118c
 8004d44:	20001198 	.word	0x20001198
 8004d48:	2000160c 	.word	0x2000160c

08004d4c <xTaskPriorityDisinherit>:
 8004d4c:	b570      	push	{r4, r5, r6, lr}
 8004d4e:	2800      	cmp	r0, #0
 8004d50:	d101      	bne.n	8004d56 <xTaskPriorityDisinherit+0xa>
 8004d52:	2000      	movs	r0, #0
 8004d54:	bd70      	pop	{r4, r5, r6, pc}
 8004d56:	4b15      	ldr	r3, [pc, #84]	; (8004dac <xTaskPriorityDisinherit+0x60>)
 8004d58:	681c      	ldr	r4, [r3, #0]
 8004d5a:	4284      	cmp	r4, r0
 8004d5c:	d001      	beq.n	8004d62 <xTaskPriorityDisinherit+0x16>
 8004d5e:	b672      	cpsid	i
 8004d60:	e7fe      	b.n	8004d60 <xTaskPriorityDisinherit+0x14>
 8004d62:	6d23      	ldr	r3, [r4, #80]	; 0x50
 8004d64:	2b00      	cmp	r3, #0
 8004d66:	d101      	bne.n	8004d6c <xTaskPriorityDisinherit+0x20>
 8004d68:	b672      	cpsid	i
 8004d6a:	e7fe      	b.n	8004d6a <xTaskPriorityDisinherit+0x1e>
 8004d6c:	6ae2      	ldr	r2, [r4, #44]	; 0x2c
 8004d6e:	6ce1      	ldr	r1, [r4, #76]	; 0x4c
 8004d70:	3b01      	subs	r3, #1
 8004d72:	6523      	str	r3, [r4, #80]	; 0x50
 8004d74:	428a      	cmp	r2, r1
 8004d76:	d0ec      	beq.n	8004d52 <xTaskPriorityDisinherit+0x6>
 8004d78:	2b00      	cmp	r3, #0
 8004d7a:	d1ea      	bne.n	8004d52 <xTaskPriorityDisinherit+0x6>
 8004d7c:	1d25      	adds	r5, r4, #4
 8004d7e:	0028      	movs	r0, r5
 8004d80:	f7fe ff19 	bl	8003bb6 <uxListRemove>
 8004d84:	2238      	movs	r2, #56	; 0x38
 8004d86:	6ce3      	ldr	r3, [r4, #76]	; 0x4c
 8004d88:	1ad2      	subs	r2, r2, r3
 8004d8a:	61a2      	str	r2, [r4, #24]
 8004d8c:	4a08      	ldr	r2, [pc, #32]	; (8004db0 <xTaskPriorityDisinherit+0x64>)
 8004d8e:	62e3      	str	r3, [r4, #44]	; 0x2c
 8004d90:	6811      	ldr	r1, [r2, #0]
 8004d92:	428b      	cmp	r3, r1
 8004d94:	d900      	bls.n	8004d98 <xTaskPriorityDisinherit+0x4c>
 8004d96:	6013      	str	r3, [r2, #0]
 8004d98:	2014      	movs	r0, #20
 8004d9a:	4358      	muls	r0, r3
 8004d9c:	4b05      	ldr	r3, [pc, #20]	; (8004db4 <xTaskPriorityDisinherit+0x68>)
 8004d9e:	0029      	movs	r1, r5
 8004da0:	18c0      	adds	r0, r0, r3
 8004da2:	f7fe fee5 	bl	8003b70 <vListInsertEnd>
 8004da6:	2001      	movs	r0, #1
 8004da8:	e7d4      	b.n	8004d54 <xTaskPriorityDisinherit+0x8>
 8004daa:	46c0      	nop			; (mov r8, r8)
 8004dac:	2000118c 	.word	0x2000118c
 8004db0:	2000160c 	.word	0x2000160c
 8004db4:	20001198 	.word	0x20001198

08004db8 <vTaskPriorityDisinheritAfterTimeout>:
 8004db8:	b570      	push	{r4, r5, r6, lr}
 8004dba:	1e04      	subs	r4, r0, #0
 8004dbc:	d031      	beq.n	8004e22 <vTaskPriorityDisinheritAfterTimeout+0x6a>
 8004dbe:	6d03      	ldr	r3, [r0, #80]	; 0x50
 8004dc0:	2b00      	cmp	r3, #0
 8004dc2:	d101      	bne.n	8004dc8 <vTaskPriorityDisinheritAfterTimeout+0x10>
 8004dc4:	b672      	cpsid	i
 8004dc6:	e7fe      	b.n	8004dc6 <vTaskPriorityDisinheritAfterTimeout+0xe>
 8004dc8:	6cc2      	ldr	r2, [r0, #76]	; 0x4c
 8004dca:	428a      	cmp	r2, r1
 8004dcc:	d200      	bcs.n	8004dd0 <vTaskPriorityDisinheritAfterTimeout+0x18>
 8004dce:	000a      	movs	r2, r1
 8004dd0:	6ae0      	ldr	r0, [r4, #44]	; 0x2c
 8004dd2:	4290      	cmp	r0, r2
 8004dd4:	d025      	beq.n	8004e22 <vTaskPriorityDisinheritAfterTimeout+0x6a>
 8004dd6:	2b01      	cmp	r3, #1
 8004dd8:	d123      	bne.n	8004e22 <vTaskPriorityDisinheritAfterTimeout+0x6a>
 8004dda:	4b12      	ldr	r3, [pc, #72]	; (8004e24 <vTaskPriorityDisinheritAfterTimeout+0x6c>)
 8004ddc:	681b      	ldr	r3, [r3, #0]
 8004dde:	42a3      	cmp	r3, r4
 8004de0:	d101      	bne.n	8004de6 <vTaskPriorityDisinheritAfterTimeout+0x2e>
 8004de2:	b672      	cpsid	i
 8004de4:	e7fe      	b.n	8004de4 <vTaskPriorityDisinheritAfterTimeout+0x2c>
 8004de6:	69a3      	ldr	r3, [r4, #24]
 8004de8:	62e2      	str	r2, [r4, #44]	; 0x2c
 8004dea:	2b00      	cmp	r3, #0
 8004dec:	db02      	blt.n	8004df4 <vTaskPriorityDisinheritAfterTimeout+0x3c>
 8004dee:	2138      	movs	r1, #56	; 0x38
 8004df0:	1a8a      	subs	r2, r1, r2
 8004df2:	61a2      	str	r2, [r4, #24]
 8004df4:	2314      	movs	r3, #20
 8004df6:	4343      	muls	r3, r0
 8004df8:	4d0b      	ldr	r5, [pc, #44]	; (8004e28 <vTaskPriorityDisinheritAfterTimeout+0x70>)
 8004dfa:	6962      	ldr	r2, [r4, #20]
 8004dfc:	195b      	adds	r3, r3, r5
 8004dfe:	429a      	cmp	r2, r3
 8004e00:	d10f      	bne.n	8004e22 <vTaskPriorityDisinheritAfterTimeout+0x6a>
 8004e02:	1d26      	adds	r6, r4, #4
 8004e04:	0030      	movs	r0, r6
 8004e06:	f7fe fed6 	bl	8003bb6 <uxListRemove>
 8004e0a:	4a08      	ldr	r2, [pc, #32]	; (8004e2c <vTaskPriorityDisinheritAfterTimeout+0x74>)
 8004e0c:	6ae3      	ldr	r3, [r4, #44]	; 0x2c
 8004e0e:	6811      	ldr	r1, [r2, #0]
 8004e10:	428b      	cmp	r3, r1
 8004e12:	d900      	bls.n	8004e16 <vTaskPriorityDisinheritAfterTimeout+0x5e>
 8004e14:	6013      	str	r3, [r2, #0]
 8004e16:	2014      	movs	r0, #20
 8004e18:	4358      	muls	r0, r3
 8004e1a:	0031      	movs	r1, r6
 8004e1c:	1828      	adds	r0, r5, r0
 8004e1e:	f7fe fea7 	bl	8003b70 <vListInsertEnd>
 8004e22:	bd70      	pop	{r4, r5, r6, pc}
 8004e24:	2000118c 	.word	0x2000118c
 8004e28:	20001198 	.word	0x20001198
 8004e2c:	2000160c 	.word	0x2000160c

08004e30 <uxTaskResetEventItemValue>:
 8004e30:	4b04      	ldr	r3, [pc, #16]	; (8004e44 <uxTaskResetEventItemValue+0x14>)
 8004e32:	681a      	ldr	r2, [r3, #0]
 8004e34:	6819      	ldr	r1, [r3, #0]
 8004e36:	6990      	ldr	r0, [r2, #24]
 8004e38:	681a      	ldr	r2, [r3, #0]
 8004e3a:	2338      	movs	r3, #56	; 0x38
 8004e3c:	6ac9      	ldr	r1, [r1, #44]	; 0x2c
 8004e3e:	1a5b      	subs	r3, r3, r1
 8004e40:	6193      	str	r3, [r2, #24]
 8004e42:	4770      	bx	lr
 8004e44:	2000118c 	.word	0x2000118c

08004e48 <pvTaskIncrementMutexHeldCount>:
 8004e48:	4b04      	ldr	r3, [pc, #16]	; (8004e5c <pvTaskIncrementMutexHeldCount+0x14>)
 8004e4a:	681a      	ldr	r2, [r3, #0]
 8004e4c:	2a00      	cmp	r2, #0
 8004e4e:	d003      	beq.n	8004e58 <pvTaskIncrementMutexHeldCount+0x10>
 8004e50:	6819      	ldr	r1, [r3, #0]
 8004e52:	6d0a      	ldr	r2, [r1, #80]	; 0x50
 8004e54:	3201      	adds	r2, #1
 8004e56:	650a      	str	r2, [r1, #80]	; 0x50
 8004e58:	6818      	ldr	r0, [r3, #0]
 8004e5a:	4770      	bx	lr
 8004e5c:	2000118c 	.word	0x2000118c

08004e60 <prvCheckForValidListAndQueue>:
 8004e60:	b5f7      	push	{r0, r1, r2, r4, r5, r6, r7, lr}
 8004e62:	f000 fa7f 	bl	8005364 <vPortEnterCritical>
 8004e66:	4c10      	ldr	r4, [pc, #64]	; (8004ea8 <prvCheckForValidListAndQueue+0x48>)
 8004e68:	6825      	ldr	r5, [r4, #0]
 8004e6a:	2d00      	cmp	r5, #0
 8004e6c:	d118      	bne.n	8004ea0 <prvCheckForValidListAndQueue+0x40>
 8004e6e:	4f0f      	ldr	r7, [pc, #60]	; (8004eac <prvCheckForValidListAndQueue+0x4c>)
 8004e70:	0038      	movs	r0, r7
 8004e72:	f7fe fe6f 	bl	8003b54 <vListInitialise>
 8004e76:	4e0e      	ldr	r6, [pc, #56]	; (8004eb0 <prvCheckForValidListAndQueue+0x50>)
 8004e78:	0030      	movs	r0, r6
 8004e7a:	f7fe fe6b 	bl	8003b54 <vListInitialise>
 8004e7e:	4b0d      	ldr	r3, [pc, #52]	; (8004eb4 <prvCheckForValidListAndQueue+0x54>)
 8004e80:	2110      	movs	r1, #16
 8004e82:	601f      	str	r7, [r3, #0]
 8004e84:	4b0c      	ldr	r3, [pc, #48]	; (8004eb8 <prvCheckForValidListAndQueue+0x58>)
 8004e86:	200a      	movs	r0, #10
 8004e88:	601e      	str	r6, [r3, #0]
 8004e8a:	4a0c      	ldr	r2, [pc, #48]	; (8004ebc <prvCheckForValidListAndQueue+0x5c>)
 8004e8c:	4b0c      	ldr	r3, [pc, #48]	; (8004ec0 <prvCheckForValidListAndQueue+0x60>)
 8004e8e:	9500      	str	r5, [sp, #0]
 8004e90:	f7fe ff61 	bl	8003d56 <xQueueGenericCreateStatic>
 8004e94:	6020      	str	r0, [r4, #0]
 8004e96:	2800      	cmp	r0, #0
 8004e98:	d002      	beq.n	8004ea0 <prvCheckForValidListAndQueue+0x40>
 8004e9a:	490a      	ldr	r1, [pc, #40]	; (8004ec4 <prvCheckForValidListAndQueue+0x64>)
 8004e9c:	f7ff fa6a 	bl	8004374 <vQueueAddToRegistry>
 8004ea0:	f000 fa6c 	bl	800537c <vPortExitCritical>
 8004ea4:	bdf7      	pop	{r0, r1, r2, r4, r5, r6, r7, pc}
 8004ea6:	46c0      	nop			; (mov r8, r8)
 8004ea8:	200017ac 	.word	0x200017ac
 8004eac:	20001730 	.word	0x20001730
 8004eb0:	20001744 	.word	0x20001744
 8004eb4:	20001688 	.word	0x20001688
 8004eb8:	2000168c 	.word	0x2000168c
 8004ebc:	20001690 	.word	0x20001690
 8004ec0:	2000175c 	.word	0x2000175c
 8004ec4:	080061e1 	.word	0x080061e1

08004ec8 <prvInsertTimerInActiveList>:
 8004ec8:	b510      	push	{r4, lr}
 8004eca:	0004      	movs	r4, r0
 8004ecc:	6041      	str	r1, [r0, #4]
 8004ece:	6100      	str	r0, [r0, #16]
 8004ed0:	4291      	cmp	r1, r2
 8004ed2:	d80b      	bhi.n	8004eec <prvInsertTimerInActiveList+0x24>
 8004ed4:	1ad2      	subs	r2, r2, r3
 8004ed6:	69a3      	ldr	r3, [r4, #24]
 8004ed8:	2001      	movs	r0, #1
 8004eda:	429a      	cmp	r2, r3
 8004edc:	d205      	bcs.n	8004eea <prvInsertTimerInActiveList+0x22>
 8004ede:	4b07      	ldr	r3, [pc, #28]	; (8004efc <prvInsertTimerInActiveList+0x34>)
 8004ee0:	1d21      	adds	r1, r4, #4
 8004ee2:	6818      	ldr	r0, [r3, #0]
 8004ee4:	f7fe fe50 	bl	8003b88 <vListInsert>
 8004ee8:	2000      	movs	r0, #0
 8004eea:	bd10      	pop	{r4, pc}
 8004eec:	429a      	cmp	r2, r3
 8004eee:	d202      	bcs.n	8004ef6 <prvInsertTimerInActiveList+0x2e>
 8004ef0:	2001      	movs	r0, #1
 8004ef2:	4299      	cmp	r1, r3
 8004ef4:	d2f9      	bcs.n	8004eea <prvInsertTimerInActiveList+0x22>
 8004ef6:	4b02      	ldr	r3, [pc, #8]	; (8004f00 <prvInsertTimerInActiveList+0x38>)
 8004ef8:	1d21      	adds	r1, r4, #4
 8004efa:	e7f2      	b.n	8004ee2 <prvInsertTimerInActiveList+0x1a>
 8004efc:	2000168c 	.word	0x2000168c
 8004f00:	20001688 	.word	0x20001688

08004f04 <xTimerCreateTimerTask>:
 8004f04:	b510      	push	{r4, lr}
 8004f06:	b088      	sub	sp, #32
 8004f08:	f7ff ffaa 	bl	8004e60 <prvCheckForValidListAndQueue>
 8004f0c:	4b10      	ldr	r3, [pc, #64]	; (8004f50 <xTimerCreateTimerTask+0x4c>)
 8004f0e:	681b      	ldr	r3, [r3, #0]
 8004f10:	2b00      	cmp	r3, #0
 8004f12:	d017      	beq.n	8004f44 <xTimerCreateTimerTask+0x40>
 8004f14:	2400      	movs	r4, #0
 8004f16:	aa07      	add	r2, sp, #28
 8004f18:	a906      	add	r1, sp, #24
 8004f1a:	a805      	add	r0, sp, #20
 8004f1c:	9405      	str	r4, [sp, #20]
 8004f1e:	9406      	str	r4, [sp, #24]
 8004f20:	f7fe fd18 	bl	8003954 <vApplicationGetTimerTaskMemory>
 8004f24:	9b05      	ldr	r3, [sp, #20]
 8004f26:	9a07      	ldr	r2, [sp, #28]
 8004f28:	9302      	str	r3, [sp, #8]
 8004f2a:	9b06      	ldr	r3, [sp, #24]
 8004f2c:	4909      	ldr	r1, [pc, #36]	; (8004f54 <xTimerCreateTimerTask+0x50>)
 8004f2e:	9301      	str	r3, [sp, #4]
 8004f30:	2302      	movs	r3, #2
 8004f32:	4809      	ldr	r0, [pc, #36]	; (8004f58 <xTimerCreateTimerTask+0x54>)
 8004f34:	9300      	str	r3, [sp, #0]
 8004f36:	0023      	movs	r3, r4
 8004f38:	f7ff fbce 	bl	80046d8 <xTaskCreateStatic>
 8004f3c:	4b07      	ldr	r3, [pc, #28]	; (8004f5c <xTimerCreateTimerTask+0x58>)
 8004f3e:	6018      	str	r0, [r3, #0]
 8004f40:	42a0      	cmp	r0, r4
 8004f42:	d101      	bne.n	8004f48 <xTimerCreateTimerTask+0x44>
 8004f44:	b672      	cpsid	i
 8004f46:	e7fe      	b.n	8004f46 <xTimerCreateTimerTask+0x42>
 8004f48:	2001      	movs	r0, #1
 8004f4a:	b008      	add	sp, #32
 8004f4c:	bd10      	pop	{r4, pc}
 8004f4e:	46c0      	nop			; (mov r8, r8)
 8004f50:	200017ac 	.word	0x200017ac
 8004f54:	080061e6 	.word	0x080061e6
 8004f58:	080050a5 	.word	0x080050a5
 8004f5c:	200017b0 	.word	0x200017b0

08004f60 <xTimerCreate>:
 8004f60:	b5f7      	push	{r0, r1, r2, r4, r5, r6, r7, lr}
 8004f62:	0007      	movs	r7, r0
 8004f64:	2030      	movs	r0, #48	; 0x30
 8004f66:	000d      	movs	r5, r1
 8004f68:	0016      	movs	r6, r2
 8004f6a:	9301      	str	r3, [sp, #4]
 8004f6c:	f000 fa78 	bl	8005460 <pvPortMalloc>
 8004f70:	1e04      	subs	r4, r0, #0
 8004f72:	d013      	beq.n	8004f9c <xTimerCreate+0x3c>
 8004f74:	2d00      	cmp	r5, #0
 8004f76:	d101      	bne.n	8004f7c <xTimerCreate+0x1c>
 8004f78:	b672      	cpsid	i
 8004f7a:	e7fe      	b.n	8004f7a <xTimerCreate+0x1a>
 8004f7c:	f7ff ff70 	bl	8004e60 <prvCheckForValidListAndQueue>
 8004f80:	9b01      	ldr	r3, [sp, #4]
 8004f82:	6027      	str	r7, [r4, #0]
 8004f84:	6223      	str	r3, [r4, #32]
 8004f86:	9b08      	ldr	r3, [sp, #32]
 8004f88:	61a5      	str	r5, [r4, #24]
 8004f8a:	6263      	str	r3, [r4, #36]	; 0x24
 8004f8c:	61e6      	str	r6, [r4, #28]
 8004f8e:	1d20      	adds	r0, r4, #4
 8004f90:	f7fe fdeb 	bl	8003b6a <vListInitialiseItem>
 8004f94:	0023      	movs	r3, r4
 8004f96:	2200      	movs	r2, #0
 8004f98:	332c      	adds	r3, #44	; 0x2c
 8004f9a:	701a      	strb	r2, [r3, #0]
 8004f9c:	0020      	movs	r0, r4
 8004f9e:	bdfe      	pop	{r1, r2, r3, r4, r5, r6, r7, pc}

08004fa0 <xTimerCreateStatic>:
 8004fa0:	b5f0      	push	{r4, r5, r6, r7, lr}
 8004fa2:	b085      	sub	sp, #20
 8004fa4:	9301      	str	r3, [sp, #4]
 8004fa6:	2330      	movs	r3, #48	; 0x30
 8004fa8:	9303      	str	r3, [sp, #12]
 8004faa:	9b03      	ldr	r3, [sp, #12]
 8004fac:	0007      	movs	r7, r0
 8004fae:	000d      	movs	r5, r1
 8004fb0:	0016      	movs	r6, r2
 8004fb2:	9c0b      	ldr	r4, [sp, #44]	; 0x2c
 8004fb4:	2b30      	cmp	r3, #48	; 0x30
 8004fb6:	d001      	beq.n	8004fbc <xTimerCreateStatic+0x1c>
 8004fb8:	b672      	cpsid	i
 8004fba:	e7fe      	b.n	8004fba <xTimerCreateStatic+0x1a>
 8004fbc:	2c00      	cmp	r4, #0
 8004fbe:	d101      	bne.n	8004fc4 <xTimerCreateStatic+0x24>
 8004fc0:	b672      	cpsid	i
 8004fc2:	e7fe      	b.n	8004fc2 <xTimerCreateStatic+0x22>
 8004fc4:	2900      	cmp	r1, #0
 8004fc6:	d101      	bne.n	8004fcc <xTimerCreateStatic+0x2c>
 8004fc8:	b672      	cpsid	i
 8004fca:	e7fe      	b.n	8004fca <xTimerCreateStatic+0x2a>
 8004fcc:	f7ff ff48 	bl	8004e60 <prvCheckForValidListAndQueue>
 8004fd0:	9b01      	ldr	r3, [sp, #4]
 8004fd2:	1d20      	adds	r0, r4, #4
 8004fd4:	6223      	str	r3, [r4, #32]
 8004fd6:	9b0a      	ldr	r3, [sp, #40]	; 0x28
 8004fd8:	6027      	str	r7, [r4, #0]
 8004fda:	6263      	str	r3, [r4, #36]	; 0x24
 8004fdc:	61a5      	str	r5, [r4, #24]
 8004fde:	61e6      	str	r6, [r4, #28]
 8004fe0:	f7fe fdc3 	bl	8003b6a <vListInitialiseItem>
 8004fe4:	0023      	movs	r3, r4
 8004fe6:	2201      	movs	r2, #1
 8004fe8:	0020      	movs	r0, r4
 8004fea:	332c      	adds	r3, #44	; 0x2c
 8004fec:	701a      	strb	r2, [r3, #0]
 8004fee:	b005      	add	sp, #20
 8004ff0:	bdf0      	pop	{r4, r5, r6, r7, pc}
	...

08004ff4 <xTimerGenericCommand>:
 8004ff4:	b5f0      	push	{r4, r5, r6, r7, lr}
 8004ff6:	0017      	movs	r7, r2
 8004ff8:	0004      	movs	r4, r0
 8004ffa:	001a      	movs	r2, r3
 8004ffc:	b085      	sub	sp, #20
 8004ffe:	2800      	cmp	r0, #0
 8005000:	d101      	bne.n	8005006 <xTimerGenericCommand+0x12>
 8005002:	b672      	cpsid	i
 8005004:	e7fe      	b.n	8005004 <xTimerGenericCommand+0x10>
 8005006:	4d0d      	ldr	r5, [pc, #52]	; (800503c <xTimerGenericCommand+0x48>)
 8005008:	682e      	ldr	r6, [r5, #0]
 800500a:	1e30      	subs	r0, r6, #0
 800500c:	d00f      	beq.n	800502e <xTimerGenericCommand+0x3a>
 800500e:	9100      	str	r1, [sp, #0]
 8005010:	9701      	str	r7, [sp, #4]
 8005012:	9402      	str	r4, [sp, #8]
 8005014:	2905      	cmp	r1, #5
 8005016:	dc0c      	bgt.n	8005032 <xTimerGenericCommand+0x3e>
 8005018:	f7ff fe4a 	bl	8004cb0 <xTaskGetSchedulerState>
 800501c:	2300      	movs	r3, #0
 800501e:	9a0a      	ldr	r2, [sp, #40]	; 0x28
 8005020:	2802      	cmp	r0, #2
 8005022:	d000      	beq.n	8005026 <xTimerGenericCommand+0x32>
 8005024:	001a      	movs	r2, r3
 8005026:	4669      	mov	r1, sp
 8005028:	6828      	ldr	r0, [r5, #0]
 800502a:	f7fe fee7 	bl	8003dfc <xQueueGenericSend>
 800502e:	b005      	add	sp, #20
 8005030:	bdf0      	pop	{r4, r5, r6, r7, pc}
 8005032:	2300      	movs	r3, #0
 8005034:	4669      	mov	r1, sp
 8005036:	f7fe ffbc 	bl	8003fb2 <xQueueGenericSendFromISR>
 800503a:	e7f8      	b.n	800502e <xTimerGenericCommand+0x3a>
 800503c:	200017ac 	.word	0x200017ac

08005040 <prvSwitchTimerLists>:
 8005040:	b5f7      	push	{r0, r1, r2, r4, r5, r6, r7, lr}
 8005042:	4d16      	ldr	r5, [pc, #88]	; (800509c <prvSwitchTimerLists+0x5c>)
 8005044:	682b      	ldr	r3, [r5, #0]
 8005046:	681a      	ldr	r2, [r3, #0]
 8005048:	2a00      	cmp	r2, #0
 800504a:	d104      	bne.n	8005056 <prvSwitchTimerLists+0x16>
 800504c:	4a14      	ldr	r2, [pc, #80]	; (80050a0 <prvSwitchTimerLists+0x60>)
 800504e:	6811      	ldr	r1, [r2, #0]
 8005050:	6013      	str	r3, [r2, #0]
 8005052:	6029      	str	r1, [r5, #0]
 8005054:	bdf7      	pop	{r0, r1, r2, r4, r5, r6, r7, pc}
 8005056:	68db      	ldr	r3, [r3, #12]
 8005058:	68dc      	ldr	r4, [r3, #12]
 800505a:	681e      	ldr	r6, [r3, #0]
 800505c:	1d27      	adds	r7, r4, #4
 800505e:	0038      	movs	r0, r7
 8005060:	f7fe fda9 	bl	8003bb6 <uxListRemove>
 8005064:	6a63      	ldr	r3, [r4, #36]	; 0x24
 8005066:	0020      	movs	r0, r4
 8005068:	4798      	blx	r3
 800506a:	69e3      	ldr	r3, [r4, #28]
 800506c:	2b01      	cmp	r3, #1
 800506e:	d1e8      	bne.n	8005042 <prvSwitchTimerLists+0x2>
 8005070:	69a3      	ldr	r3, [r4, #24]
 8005072:	18f3      	adds	r3, r6, r3
 8005074:	429e      	cmp	r6, r3
 8005076:	d206      	bcs.n	8005086 <prvSwitchTimerLists+0x46>
 8005078:	0039      	movs	r1, r7
 800507a:	6828      	ldr	r0, [r5, #0]
 800507c:	6063      	str	r3, [r4, #4]
 800507e:	6124      	str	r4, [r4, #16]
 8005080:	f7fe fd82 	bl	8003b88 <vListInsert>
 8005084:	e7dd      	b.n	8005042 <prvSwitchTimerLists+0x2>
 8005086:	2100      	movs	r1, #0
 8005088:	0032      	movs	r2, r6
 800508a:	000b      	movs	r3, r1
 800508c:	0020      	movs	r0, r4
 800508e:	9100      	str	r1, [sp, #0]
 8005090:	f7ff ffb0 	bl	8004ff4 <xTimerGenericCommand>
 8005094:	2800      	cmp	r0, #0
 8005096:	d1d4      	bne.n	8005042 <prvSwitchTimerLists+0x2>
 8005098:	b672      	cpsid	i
 800509a:	e7fe      	b.n	800509a <prvSwitchTimerLists+0x5a>
 800509c:	20001688 	.word	0x20001688
 80050a0:	2000168c 	.word	0x2000168c

080050a4 <prvTimerTask>:
 80050a4:	b5f0      	push	{r4, r5, r6, r7, lr}
 80050a6:	b089      	sub	sp, #36	; 0x24
 80050a8:	2400      	movs	r4, #0
 80050aa:	4d5c      	ldr	r5, [pc, #368]	; (800521c <prvTimerTask+0x178>)
 80050ac:	682b      	ldr	r3, [r5, #0]
 80050ae:	681f      	ldr	r7, [r3, #0]
 80050b0:	42a7      	cmp	r7, r4
 80050b2:	d001      	beq.n	80050b8 <prvTimerTask+0x14>
 80050b4:	68db      	ldr	r3, [r3, #12]
 80050b6:	681c      	ldr	r4, [r3, #0]
 80050b8:	f7ff fba0 	bl	80047fc <vTaskSuspendAll>
 80050bc:	f7ff fba6 	bl	800480c <xTaskGetTickCount>
 80050c0:	4e57      	ldr	r6, [pc, #348]	; (8005220 <prvTimerTask+0x17c>)
 80050c2:	9003      	str	r0, [sp, #12]
 80050c4:	6832      	ldr	r2, [r6, #0]
 80050c6:	4290      	cmp	r0, r2
 80050c8:	d228      	bcs.n	800511c <prvTimerTask+0x78>
 80050ca:	f7ff ffb9 	bl	8005040 <prvSwitchTimerLists>
 80050ce:	9b03      	ldr	r3, [sp, #12]
 80050d0:	6033      	str	r3, [r6, #0]
 80050d2:	f7ff fc27 	bl	8004924 <xTaskResumeAll>
 80050d6:	4b53      	ldr	r3, [pc, #332]	; (8005224 <prvTimerTask+0x180>)
 80050d8:	2200      	movs	r2, #0
 80050da:	6818      	ldr	r0, [r3, #0]
 80050dc:	a904      	add	r1, sp, #16
 80050de:	f7fe ffb1 	bl	8004044 <xQueueReceive>
 80050e2:	2800      	cmp	r0, #0
 80050e4:	d0e0      	beq.n	80050a8 <prvTimerTask+0x4>
 80050e6:	9b04      	ldr	r3, [sp, #16]
 80050e8:	9806      	ldr	r0, [sp, #24]
 80050ea:	2b00      	cmp	r3, #0
 80050ec:	db53      	blt.n	8005196 <prvTimerTask+0xf2>
 80050ee:	9c06      	ldr	r4, [sp, #24]
 80050f0:	6963      	ldr	r3, [r4, #20]
 80050f2:	2b00      	cmp	r3, #0
 80050f4:	d158      	bne.n	80051a8 <prvTimerTask+0x104>
 80050f6:	f7ff fb89 	bl	800480c <xTaskGetTickCount>
 80050fa:	6833      	ldr	r3, [r6, #0]
 80050fc:	0005      	movs	r5, r0
 80050fe:	4298      	cmp	r0, r3
 8005100:	d201      	bcs.n	8005106 <prvTimerTask+0x62>
 8005102:	f7ff ff9d 	bl	8005040 <prvSwitchTimerLists>
 8005106:	9804      	ldr	r0, [sp, #16]
 8005108:	6035      	str	r5, [r6, #0]
 800510a:	2809      	cmp	r0, #9
 800510c:	d8e3      	bhi.n	80050d6 <prvTimerTask+0x32>
 800510e:	f7fa fffb 	bl	8000108 <__gnu_thumb1_case_sqi>
 8005112:	4f4f      	.short	0x4f4f
 8005114:	7a6de24f 	.word	0x7a6de24f
 8005118:	6de24f4f 	.word	0x6de24f4f
 800511c:	9b03      	ldr	r3, [sp, #12]
 800511e:	6033      	str	r3, [r6, #0]
 8005120:	2f00      	cmp	r7, #0
 8005122:	d025      	beq.n	8005170 <prvTimerTask+0xcc>
 8005124:	2700      	movs	r7, #0
 8005126:	429c      	cmp	r4, r3
 8005128:	d827      	bhi.n	800517a <prvTimerTask+0xd6>
 800512a:	f7ff fbfb 	bl	8004924 <xTaskResumeAll>
 800512e:	682b      	ldr	r3, [r5, #0]
 8005130:	68db      	ldr	r3, [r3, #12]
 8005132:	68dd      	ldr	r5, [r3, #12]
 8005134:	1d28      	adds	r0, r5, #4
 8005136:	f7fe fd3e 	bl	8003bb6 <uxListRemove>
 800513a:	69eb      	ldr	r3, [r5, #28]
 800513c:	2b01      	cmp	r3, #1
 800513e:	d113      	bne.n	8005168 <prvTimerTask+0xc4>
 8005140:	69ab      	ldr	r3, [r5, #24]
 8005142:	0028      	movs	r0, r5
 8005144:	18e1      	adds	r1, r4, r3
 8005146:	9a03      	ldr	r2, [sp, #12]
 8005148:	0023      	movs	r3, r4
 800514a:	f7ff febd 	bl	8004ec8 <prvInsertTimerInActiveList>
 800514e:	42b8      	cmp	r0, r7
 8005150:	d00a      	beq.n	8005168 <prvTimerTask+0xc4>
 8005152:	003b      	movs	r3, r7
 8005154:	0022      	movs	r2, r4
 8005156:	0039      	movs	r1, r7
 8005158:	0028      	movs	r0, r5
 800515a:	9700      	str	r7, [sp, #0]
 800515c:	f7ff ff4a 	bl	8004ff4 <xTimerGenericCommand>
 8005160:	42b8      	cmp	r0, r7
 8005162:	d101      	bne.n	8005168 <prvTimerTask+0xc4>
 8005164:	b672      	cpsid	i
 8005166:	e7fe      	b.n	8005166 <prvTimerTask+0xc2>
 8005168:	0028      	movs	r0, r5
 800516a:	6a6b      	ldr	r3, [r5, #36]	; 0x24
 800516c:	4798      	blx	r3
 800516e:	e7b2      	b.n	80050d6 <prvTimerTask+0x32>
 8005170:	4b2d      	ldr	r3, [pc, #180]	; (8005228 <prvTimerTask+0x184>)
 8005172:	681b      	ldr	r3, [r3, #0]
 8005174:	681f      	ldr	r7, [r3, #0]
 8005176:	427b      	negs	r3, r7
 8005178:	415f      	adcs	r7, r3
 800517a:	9b03      	ldr	r3, [sp, #12]
 800517c:	003a      	movs	r2, r7
 800517e:	1ae1      	subs	r1, r4, r3
 8005180:	4b28      	ldr	r3, [pc, #160]	; (8005224 <prvTimerTask+0x180>)
 8005182:	6818      	ldr	r0, [r3, #0]
 8005184:	f7ff f92c 	bl	80043e0 <vQueueWaitForMessageRestricted>
 8005188:	f7ff fbcc 	bl	8004924 <xTaskResumeAll>
 800518c:	2800      	cmp	r0, #0
 800518e:	d1a2      	bne.n	80050d6 <prvTimerTask+0x32>
 8005190:	f000 f8dc 	bl	800534c <vPortYield>
 8005194:	e79f      	b.n	80050d6 <prvTimerTask+0x32>
 8005196:	9b05      	ldr	r3, [sp, #20]
 8005198:	9907      	ldr	r1, [sp, #28]
 800519a:	9303      	str	r3, [sp, #12]
 800519c:	4798      	blx	r3
 800519e:	9b04      	ldr	r3, [sp, #16]
 80051a0:	9303      	str	r3, [sp, #12]
 80051a2:	2b00      	cmp	r3, #0
 80051a4:	db97      	blt.n	80050d6 <prvTimerTask+0x32>
 80051a6:	e7a2      	b.n	80050ee <prvTimerTask+0x4a>
 80051a8:	1d20      	adds	r0, r4, #4
 80051aa:	f7fe fd04 	bl	8003bb6 <uxListRemove>
 80051ae:	e7a2      	b.n	80050f6 <prvTimerTask+0x52>
 80051b0:	9b05      	ldr	r3, [sp, #20]
 80051b2:	69a2      	ldr	r2, [r4, #24]
 80051b4:	0020      	movs	r0, r4
 80051b6:	1899      	adds	r1, r3, r2
 80051b8:	002a      	movs	r2, r5
 80051ba:	9303      	str	r3, [sp, #12]
 80051bc:	f7ff fe84 	bl	8004ec8 <prvInsertTimerInActiveList>
 80051c0:	2800      	cmp	r0, #0
 80051c2:	d088      	beq.n	80050d6 <prvTimerTask+0x32>
 80051c4:	6a63      	ldr	r3, [r4, #36]	; 0x24
 80051c6:	0020      	movs	r0, r4
 80051c8:	4798      	blx	r3
 80051ca:	69e3      	ldr	r3, [r4, #28]
 80051cc:	2b01      	cmp	r3, #1
 80051ce:	d182      	bne.n	80050d6 <prvTimerTask+0x32>
 80051d0:	2100      	movs	r1, #0
 80051d2:	69a3      	ldr	r3, [r4, #24]
 80051d4:	9a05      	ldr	r2, [sp, #20]
 80051d6:	0020      	movs	r0, r4
 80051d8:	18d2      	adds	r2, r2, r3
 80051da:	9100      	str	r1, [sp, #0]
 80051dc:	000b      	movs	r3, r1
 80051de:	f7ff ff09 	bl	8004ff4 <xTimerGenericCommand>
 80051e2:	2800      	cmp	r0, #0
 80051e4:	d000      	beq.n	80051e8 <prvTimerTask+0x144>
 80051e6:	e776      	b.n	80050d6 <prvTimerTask+0x32>
 80051e8:	b672      	cpsid	i
 80051ea:	e7fe      	b.n	80051ea <prvTimerTask+0x146>
 80051ec:	9905      	ldr	r1, [sp, #20]
 80051ee:	61a1      	str	r1, [r4, #24]
 80051f0:	2900      	cmp	r1, #0
 80051f2:	d101      	bne.n	80051f8 <prvTimerTask+0x154>
 80051f4:	b672      	cpsid	i
 80051f6:	e7fe      	b.n	80051f6 <prvTimerTask+0x152>
 80051f8:	002b      	movs	r3, r5
 80051fa:	002a      	movs	r2, r5
 80051fc:	0020      	movs	r0, r4
 80051fe:	1949      	adds	r1, r1, r5
 8005200:	f7ff fe62 	bl	8004ec8 <prvInsertTimerInActiveList>
 8005204:	e767      	b.n	80050d6 <prvTimerTask+0x32>
 8005206:	0023      	movs	r3, r4
 8005208:	332c      	adds	r3, #44	; 0x2c
 800520a:	781b      	ldrb	r3, [r3, #0]
 800520c:	2b00      	cmp	r3, #0
 800520e:	d000      	beq.n	8005212 <prvTimerTask+0x16e>
 8005210:	e761      	b.n	80050d6 <prvTimerTask+0x32>
 8005212:	0020      	movs	r0, r4
 8005214:	f000 f9a2 	bl	800555c <vPortFree>
 8005218:	e75d      	b.n	80050d6 <prvTimerTask+0x32>
 800521a:	46c0      	nop			; (mov r8, r8)
 800521c:	20001688 	.word	0x20001688
 8005220:	20001758 	.word	0x20001758
 8005224:	200017ac 	.word	0x200017ac
 8005228:	2000168c 	.word	0x2000168c

0800522c <pvTimerGetTimerID>:
 800522c:	b510      	push	{r4, lr}
 800522e:	1e04      	subs	r4, r0, #0
 8005230:	d101      	bne.n	8005236 <pvTimerGetTimerID+0xa>
 8005232:	b672      	cpsid	i
 8005234:	e7fe      	b.n	8005234 <pvTimerGetTimerID+0x8>
 8005236:	f000 f895 	bl	8005364 <vPortEnterCritical>
 800523a:	6a24      	ldr	r4, [r4, #32]
 800523c:	f000 f89e 	bl	800537c <vPortExitCritical>
 8005240:	0020      	movs	r0, r4
 8005242:	bd10      	pop	{r4, pc}

08005244 <xTimerPendFunctionCallFromISR>:
 8005244:	b51f      	push	{r0, r1, r2, r3, r4, lr}
 8005246:	0014      	movs	r4, r2
 8005248:	001a      	movs	r2, r3
 800524a:	2302      	movs	r3, #2
 800524c:	9001      	str	r0, [sp, #4]
 800524e:	4806      	ldr	r0, [pc, #24]	; (8005268 <xTimerPendFunctionCallFromISR+0x24>)
 8005250:	425b      	negs	r3, r3
 8005252:	9300      	str	r3, [sp, #0]
 8005254:	9102      	str	r1, [sp, #8]
 8005256:	2300      	movs	r3, #0
 8005258:	4669      	mov	r1, sp
 800525a:	6800      	ldr	r0, [r0, #0]
 800525c:	9403      	str	r4, [sp, #12]
 800525e:	f7fe fea8 	bl	8003fb2 <xQueueGenericSendFromISR>
 8005262:	b004      	add	sp, #16
 8005264:	bd10      	pop	{r4, pc}
 8005266:	46c0      	nop			; (mov r8, r8)
 8005268:	200017ac 	.word	0x200017ac

0800526c <prvTaskExitError>:
 800526c:	2300      	movs	r3, #0
 800526e:	b082      	sub	sp, #8
 8005270:	9301      	str	r3, [sp, #4]
 8005272:	4b06      	ldr	r3, [pc, #24]	; (800528c <prvTaskExitError+0x20>)
 8005274:	681b      	ldr	r3, [r3, #0]
 8005276:	3301      	adds	r3, #1
 8005278:	d001      	beq.n	800527e <prvTaskExitError+0x12>
 800527a:	b672      	cpsid	i
 800527c:	e7fe      	b.n	800527c <prvTaskExitError+0x10>
 800527e:	b672      	cpsid	i
 8005280:	9b01      	ldr	r3, [sp, #4]
 8005282:	2b00      	cmp	r3, #0
 8005284:	d0fc      	beq.n	8005280 <prvTaskExitError+0x14>
 8005286:	b002      	add	sp, #8
 8005288:	4770      	bx	lr
 800528a:	46c0      	nop			; (mov r8, r8)
 800528c:	20000018 	.word	0x20000018

08005290 <vPortStartFirstTask>:
 8005290:	4a0b      	ldr	r2, [pc, #44]	; (80052c0 <pxCurrentTCBConst2>)
 8005292:	6813      	ldr	r3, [r2, #0]
 8005294:	6818      	ldr	r0, [r3, #0]
 8005296:	3020      	adds	r0, #32
 8005298:	f380 8809 	msr	PSP, r0
 800529c:	2002      	movs	r0, #2
 800529e:	f380 8814 	msr	CONTROL, r0
 80052a2:	f3bf 8f6f 	isb	sy
 80052a6:	bc3f      	pop	{r0, r1, r2, r3, r4, r5}
 80052a8:	46ae      	mov	lr, r5
 80052aa:	bc08      	pop	{r3}
 80052ac:	bc04      	pop	{r2}
 80052ae:	b662      	cpsie	i
 80052b0:	4718      	bx	r3
 80052b2:	46c0      	nop			; (mov r8, r8)
 80052b4:	46c0      	nop			; (mov r8, r8)
 80052b6:	46c0      	nop			; (mov r8, r8)
 80052b8:	46c0      	nop			; (mov r8, r8)
 80052ba:	46c0      	nop			; (mov r8, r8)
 80052bc:	46c0      	nop			; (mov r8, r8)
 80052be:	46c0      	nop			; (mov r8, r8)

080052c0 <pxCurrentTCBConst2>:
 80052c0:	2000118c 	.word	0x2000118c

080052c4 <pxPortInitialiseStack>:
 80052c4:	b510      	push	{r4, lr}
 80052c6:	2480      	movs	r4, #128	; 0x80
 80052c8:	1f03      	subs	r3, r0, #4
 80052ca:	0464      	lsls	r4, r4, #17
 80052cc:	601c      	str	r4, [r3, #0]
 80052ce:	3b04      	subs	r3, #4
 80052d0:	6019      	str	r1, [r3, #0]
 80052d2:	4903      	ldr	r1, [pc, #12]	; (80052e0 <pxPortInitialiseStack+0x1c>)
 80052d4:	3b04      	subs	r3, #4
 80052d6:	6019      	str	r1, [r3, #0]
 80052d8:	3b14      	subs	r3, #20
 80052da:	3840      	subs	r0, #64	; 0x40
 80052dc:	601a      	str	r2, [r3, #0]
 80052de:	bd10      	pop	{r4, pc}
 80052e0:	0800526d 	.word	0x0800526d

080052e4 <SVC_Handler>:
 80052e4:	4770      	bx	lr
	...

080052e8 <xPortStartScheduler>:
 80052e8:	22ff      	movs	r2, #255	; 0xff
 80052ea:	4b12      	ldr	r3, [pc, #72]	; (8005334 <xPortStartScheduler+0x4c>)
 80052ec:	0412      	lsls	r2, r2, #16
 80052ee:	6819      	ldr	r1, [r3, #0]
 80052f0:	b570      	push	{r4, r5, r6, lr}
 80052f2:	430a      	orrs	r2, r1
 80052f4:	601a      	str	r2, [r3, #0]
 80052f6:	22ff      	movs	r2, #255	; 0xff
 80052f8:	6819      	ldr	r1, [r3, #0]
 80052fa:	2400      	movs	r4, #0
 80052fc:	0612      	lsls	r2, r2, #24
 80052fe:	430a      	orrs	r2, r1
 8005300:	21fa      	movs	r1, #250	; 0xfa
 8005302:	601a      	str	r2, [r3, #0]
 8005304:	4d0c      	ldr	r5, [pc, #48]	; (8005338 <xPortStartScheduler+0x50>)
 8005306:	4b0d      	ldr	r3, [pc, #52]	; (800533c <xPortStartScheduler+0x54>)
 8005308:	602c      	str	r4, [r5, #0]
 800530a:	601c      	str	r4, [r3, #0]
 800530c:	4b0c      	ldr	r3, [pc, #48]	; (8005340 <xPortStartScheduler+0x58>)
 800530e:	0089      	lsls	r1, r1, #2
 8005310:	6818      	ldr	r0, [r3, #0]
 8005312:	f7fa ff03 	bl	800011c <__udivsi3>
 8005316:	4b0b      	ldr	r3, [pc, #44]	; (8005344 <xPortStartScheduler+0x5c>)
 8005318:	3801      	subs	r0, #1
 800531a:	6018      	str	r0, [r3, #0]
 800531c:	2307      	movs	r3, #7
 800531e:	602b      	str	r3, [r5, #0]
 8005320:	4b09      	ldr	r3, [pc, #36]	; (8005348 <xPortStartScheduler+0x60>)
 8005322:	601c      	str	r4, [r3, #0]
 8005324:	f7ff ffb4 	bl	8005290 <vPortStartFirstTask>
 8005328:	f7ff fb7e 	bl	8004a28 <vTaskSwitchContext>
 800532c:	f7ff ff9e 	bl	800526c <prvTaskExitError>
 8005330:	0020      	movs	r0, r4
 8005332:	bd70      	pop	{r4, r5, r6, pc}
 8005334:	e000ed20 	.word	0xe000ed20
 8005338:	e000e010 	.word	0xe000e010
 800533c:	e000e018 	.word	0xe000e018
 8005340:	20000000 	.word	0x20000000
 8005344:	e000e014 	.word	0xe000e014
 8005348:	20000018 	.word	0x20000018

0800534c <vPortYield>:
 800534c:	2280      	movs	r2, #128	; 0x80
 800534e:	4b04      	ldr	r3, [pc, #16]	; (8005360 <vPortYield+0x14>)
 8005350:	0552      	lsls	r2, r2, #21
 8005352:	601a      	str	r2, [r3, #0]
 8005354:	f3bf 8f4f 	dsb	sy
 8005358:	f3bf 8f6f 	isb	sy
 800535c:	4770      	bx	lr
 800535e:	46c0      	nop			; (mov r8, r8)
 8005360:	e000ed04 	.word	0xe000ed04

08005364 <vPortEnterCritical>:
 8005364:	b672      	cpsid	i
 8005366:	4a04      	ldr	r2, [pc, #16]	; (8005378 <vPortEnterCritical+0x14>)
 8005368:	6813      	ldr	r3, [r2, #0]
 800536a:	3301      	adds	r3, #1
 800536c:	6013      	str	r3, [r2, #0]
 800536e:	f3bf 8f4f 	dsb	sy
 8005372:	f3bf 8f6f 	isb	sy
 8005376:	4770      	bx	lr
 8005378:	20000018 	.word	0x20000018

0800537c <vPortExitCritical>:
 800537c:	4a05      	ldr	r2, [pc, #20]	; (8005394 <vPortExitCritical+0x18>)
 800537e:	6813      	ldr	r3, [r2, #0]
 8005380:	2b00      	cmp	r3, #0
 8005382:	d101      	bne.n	8005388 <vPortExitCritical+0xc>
 8005384:	b672      	cpsid	i
 8005386:	e7fe      	b.n	8005386 <vPortExitCritical+0xa>
 8005388:	3b01      	subs	r3, #1
 800538a:	6013      	str	r3, [r2, #0]
 800538c:	2b00      	cmp	r3, #0
 800538e:	d100      	bne.n	8005392 <vPortExitCritical+0x16>
 8005390:	b662      	cpsie	i
 8005392:	4770      	bx	lr
 8005394:	20000018 	.word	0x20000018

08005398 <ulSetInterruptMaskFromISR>:
 8005398:	f3ef 8010 	mrs	r0, PRIMASK
 800539c:	b672      	cpsid	i
 800539e:	4770      	bx	lr

080053a0 <vClearInterruptMaskFromISR>:
 80053a0:	f380 8810 	msr	PRIMASK, r0
 80053a4:	4770      	bx	lr
	...

080053b0 <PendSV_Handler>:
 80053b0:	f3ef 8009 	mrs	r0, PSP
 80053b4:	4b0e      	ldr	r3, [pc, #56]	; (80053f0 <pxCurrentTCBConst>)
 80053b6:	681a      	ldr	r2, [r3, #0]
 80053b8:	3820      	subs	r0, #32
 80053ba:	6010      	str	r0, [r2, #0]
 80053bc:	c0f0      	stmia	r0!, {r4, r5, r6, r7}
 80053be:	4644      	mov	r4, r8
 80053c0:	464d      	mov	r5, r9
 80053c2:	4656      	mov	r6, sl
 80053c4:	465f      	mov	r7, fp
 80053c6:	c0f0      	stmia	r0!, {r4, r5, r6, r7}
 80053c8:	b508      	push	{r3, lr}
 80053ca:	b672      	cpsid	i
 80053cc:	f7ff fb2c 	bl	8004a28 <vTaskSwitchContext>
 80053d0:	b662      	cpsie	i
 80053d2:	bc0c      	pop	{r2, r3}
 80053d4:	6811      	ldr	r1, [r2, #0]
 80053d6:	6808      	ldr	r0, [r1, #0]
 80053d8:	3010      	adds	r0, #16
 80053da:	c8f0      	ldmia	r0!, {r4, r5, r6, r7}
 80053dc:	46a0      	mov	r8, r4
 80053de:	46a9      	mov	r9, r5
 80053e0:	46b2      	mov	sl, r6
 80053e2:	46bb      	mov	fp, r7
 80053e4:	f380 8809 	msr	PSP, r0
 80053e8:	3820      	subs	r0, #32
 80053ea:	c8f0      	ldmia	r0!, {r4, r5, r6, r7}
 80053ec:	4718      	bx	r3
 80053ee:	46c0      	nop			; (mov r8, r8)

080053f0 <pxCurrentTCBConst>:
 80053f0:	2000118c 	.word	0x2000118c

080053f4 <SysTick_Handler>:
 80053f4:	b510      	push	{r4, lr}
 80053f6:	f7ff ffcf 	bl	8005398 <ulSetInterruptMaskFromISR>
 80053fa:	0004      	movs	r4, r0
 80053fc:	f7ff fa12 	bl	8004824 <xTaskIncrementTick>
 8005400:	2800      	cmp	r0, #0
 8005402:	d003      	beq.n	800540c <SysTick_Handler+0x18>
 8005404:	2280      	movs	r2, #128	; 0x80
 8005406:	4b03      	ldr	r3, [pc, #12]	; (8005414 <SysTick_Handler+0x20>)
 8005408:	0552      	lsls	r2, r2, #21
 800540a:	601a      	str	r2, [r3, #0]
 800540c:	0020      	movs	r0, r4
 800540e:	f7ff ffc7 	bl	80053a0 <vClearInterruptMaskFromISR>
 8005412:	bd10      	pop	{r4, pc}
 8005414:	e000ed04 	.word	0xe000ed04

08005418 <prvInsertBlockIntoFreeList>:
 8005418:	b510      	push	{r4, lr}
 800541a:	4b0f      	ldr	r3, [pc, #60]	; (8005458 <prvInsertBlockIntoFreeList+0x40>)
 800541c:	001a      	movs	r2, r3
 800541e:	681b      	ldr	r3, [r3, #0]
 8005420:	4283      	cmp	r3, r0
 8005422:	d3fb      	bcc.n	800541c <prvInsertBlockIntoFreeList+0x4>
 8005424:	6854      	ldr	r4, [r2, #4]
 8005426:	1911      	adds	r1, r2, r4
 8005428:	4288      	cmp	r0, r1
 800542a:	d103      	bne.n	8005434 <prvInsertBlockIntoFreeList+0x1c>
 800542c:	6841      	ldr	r1, [r0, #4]
 800542e:	0010      	movs	r0, r2
 8005430:	1909      	adds	r1, r1, r4
 8005432:	6051      	str	r1, [r2, #4]
 8005434:	6841      	ldr	r1, [r0, #4]
 8005436:	1844      	adds	r4, r0, r1
 8005438:	42a3      	cmp	r3, r4
 800543a:	d107      	bne.n	800544c <prvInsertBlockIntoFreeList+0x34>
 800543c:	4c07      	ldr	r4, [pc, #28]	; (800545c <prvInsertBlockIntoFreeList+0x44>)
 800543e:	6824      	ldr	r4, [r4, #0]
 8005440:	42a3      	cmp	r3, r4
 8005442:	d003      	beq.n	800544c <prvInsertBlockIntoFreeList+0x34>
 8005444:	685c      	ldr	r4, [r3, #4]
 8005446:	681b      	ldr	r3, [r3, #0]
 8005448:	1861      	adds	r1, r4, r1
 800544a:	6041      	str	r1, [r0, #4]
 800544c:	6003      	str	r3, [r0, #0]
 800544e:	4290      	cmp	r0, r2
 8005450:	d000      	beq.n	8005454 <prvInsertBlockIntoFreeList+0x3c>
 8005452:	6010      	str	r0, [r2, #0]
 8005454:	bd10      	pop	{r4, pc}
 8005456:	46c0      	nop			; (mov r8, r8)
 8005458:	200023c4 	.word	0x200023c4
 800545c:	200017b4 	.word	0x200017b4

08005460 <pvPortMalloc>:
 8005460:	b5f8      	push	{r3, r4, r5, r6, r7, lr}
 8005462:	0004      	movs	r4, r0
 8005464:	f7ff f9ca 	bl	80047fc <vTaskSuspendAll>
 8005468:	4a35      	ldr	r2, [pc, #212]	; (8005540 <pvPortMalloc+0xe0>)
 800546a:	4d36      	ldr	r5, [pc, #216]	; (8005544 <pvPortMalloc+0xe4>)
 800546c:	6813      	ldr	r3, [r2, #0]
 800546e:	2b00      	cmp	r3, #0
 8005470:	d11b      	bne.n	80054aa <pvPortMalloc+0x4a>
 8005472:	2007      	movs	r0, #7
 8005474:	4b34      	ldr	r3, [pc, #208]	; (8005548 <pvPortMalloc+0xe8>)
 8005476:	0019      	movs	r1, r3
 8005478:	4203      	tst	r3, r0
 800547a:	d001      	beq.n	8005480 <pvPortMalloc+0x20>
 800547c:	1819      	adds	r1, r3, r0
 800547e:	4381      	bics	r1, r0
 8005480:	2000      	movs	r0, #0
 8005482:	4e32      	ldr	r6, [pc, #200]	; (800554c <pvPortMalloc+0xec>)
 8005484:	6070      	str	r0, [r6, #4]
 8005486:	6031      	str	r1, [r6, #0]
 8005488:	4e31      	ldr	r6, [pc, #196]	; (8005550 <pvPortMalloc+0xf0>)
 800548a:	199b      	adds	r3, r3, r6
 800548c:	2607      	movs	r6, #7
 800548e:	43b3      	bics	r3, r6
 8005490:	6018      	str	r0, [r3, #0]
 8005492:	6058      	str	r0, [r3, #4]
 8005494:	6013      	str	r3, [r2, #0]
 8005496:	1a58      	subs	r0, r3, r1
 8005498:	600b      	str	r3, [r1, #0]
 800549a:	4b2e      	ldr	r3, [pc, #184]	; (8005554 <pvPortMalloc+0xf4>)
 800549c:	6048      	str	r0, [r1, #4]
 800549e:	6018      	str	r0, [r3, #0]
 80054a0:	4b2d      	ldr	r3, [pc, #180]	; (8005558 <pvPortMalloc+0xf8>)
 80054a2:	6018      	str	r0, [r3, #0]
 80054a4:	2380      	movs	r3, #128	; 0x80
 80054a6:	061b      	lsls	r3, r3, #24
 80054a8:	602b      	str	r3, [r5, #0]
 80054aa:	682e      	ldr	r6, [r5, #0]
 80054ac:	4234      	tst	r4, r6
 80054ae:	d142      	bne.n	8005536 <pvPortMalloc+0xd6>
 80054b0:	2c00      	cmp	r4, #0
 80054b2:	d040      	beq.n	8005536 <pvPortMalloc+0xd6>
 80054b4:	0023      	movs	r3, r4
 80054b6:	2107      	movs	r1, #7
 80054b8:	3308      	adds	r3, #8
 80054ba:	420b      	tst	r3, r1
 80054bc:	d001      	beq.n	80054c2 <pvPortMalloc+0x62>
 80054be:	438b      	bics	r3, r1
 80054c0:	3308      	adds	r3, #8
 80054c2:	2b00      	cmp	r3, #0
 80054c4:	d037      	beq.n	8005536 <pvPortMalloc+0xd6>
 80054c6:	4924      	ldr	r1, [pc, #144]	; (8005558 <pvPortMalloc+0xf8>)
 80054c8:	680d      	ldr	r5, [r1, #0]
 80054ca:	429d      	cmp	r5, r3
 80054cc:	d333      	bcc.n	8005536 <pvPortMalloc+0xd6>
 80054ce:	491f      	ldr	r1, [pc, #124]	; (800554c <pvPortMalloc+0xec>)
 80054d0:	680c      	ldr	r4, [r1, #0]
 80054d2:	6860      	ldr	r0, [r4, #4]
 80054d4:	4298      	cmp	r0, r3
 80054d6:	d203      	bcs.n	80054e0 <pvPortMalloc+0x80>
 80054d8:	6827      	ldr	r7, [r4, #0]
 80054da:	46bc      	mov	ip, r7
 80054dc:	2f00      	cmp	r7, #0
 80054de:	d10e      	bne.n	80054fe <pvPortMalloc+0x9e>
 80054e0:	6812      	ldr	r2, [r2, #0]
 80054e2:	42a2      	cmp	r2, r4
 80054e4:	d027      	beq.n	8005536 <pvPortMalloc+0xd6>
 80054e6:	680a      	ldr	r2, [r1, #0]
 80054e8:	0017      	movs	r7, r2
 80054ea:	6822      	ldr	r2, [r4, #0]
 80054ec:	600a      	str	r2, [r1, #0]
 80054ee:	1ac2      	subs	r2, r0, r3
 80054f0:	2a10      	cmp	r2, #16
 80054f2:	d90b      	bls.n	800550c <pvPortMalloc+0xac>
 80054f4:	18e0      	adds	r0, r4, r3
 80054f6:	0741      	lsls	r1, r0, #29
 80054f8:	d004      	beq.n	8005504 <pvPortMalloc+0xa4>
 80054fa:	b672      	cpsid	i
 80054fc:	e7fe      	b.n	80054fc <pvPortMalloc+0x9c>
 80054fe:	0021      	movs	r1, r4
 8005500:	4664      	mov	r4, ip
 8005502:	e7e6      	b.n	80054d2 <pvPortMalloc+0x72>
 8005504:	6042      	str	r2, [r0, #4]
 8005506:	6063      	str	r3, [r4, #4]
 8005508:	f7ff ff86 	bl	8005418 <prvInsertBlockIntoFreeList>
 800550c:	6863      	ldr	r3, [r4, #4]
 800550e:	4a12      	ldr	r2, [pc, #72]	; (8005558 <pvPortMalloc+0xf8>)
 8005510:	1aed      	subs	r5, r5, r3
 8005512:	6015      	str	r5, [r2, #0]
 8005514:	4a0f      	ldr	r2, [pc, #60]	; (8005554 <pvPortMalloc+0xf4>)
 8005516:	6811      	ldr	r1, [r2, #0]
 8005518:	428d      	cmp	r5, r1
 800551a:	d200      	bcs.n	800551e <pvPortMalloc+0xbe>
 800551c:	6015      	str	r5, [r2, #0]
 800551e:	431e      	orrs	r6, r3
 8005520:	003d      	movs	r5, r7
 8005522:	2300      	movs	r3, #0
 8005524:	3508      	adds	r5, #8
 8005526:	6066      	str	r6, [r4, #4]
 8005528:	6023      	str	r3, [r4, #0]
 800552a:	f7ff f9fb 	bl	8004924 <xTaskResumeAll>
 800552e:	076b      	lsls	r3, r5, #29
 8005530:	d003      	beq.n	800553a <pvPortMalloc+0xda>
 8005532:	b672      	cpsid	i
 8005534:	e7fe      	b.n	8005534 <pvPortMalloc+0xd4>
 8005536:	2500      	movs	r5, #0
 8005538:	e7f7      	b.n	800552a <pvPortMalloc+0xca>
 800553a:	0028      	movs	r0, r5
 800553c:	bdf8      	pop	{r3, r4, r5, r6, r7, pc}
 800553e:	46c0      	nop			; (mov r8, r8)
 8005540:	200017b4 	.word	0x200017b4
 8005544:	200023b8 	.word	0x200023b8
 8005548:	200017b8 	.word	0x200017b8
 800554c:	200023c4 	.word	0x200023c4
 8005550:	00000bf8 	.word	0x00000bf8
 8005554:	200023c0 	.word	0x200023c0
 8005558:	200023bc 	.word	0x200023bc

0800555c <vPortFree>:
 800555c:	b510      	push	{r4, lr}
 800555e:	2800      	cmp	r0, #0
 8005560:	d01b      	beq.n	800559a <vPortFree+0x3e>
 8005562:	4a0e      	ldr	r2, [pc, #56]	; (800559c <vPortFree+0x40>)
 8005564:	3808      	subs	r0, #8
 8005566:	6843      	ldr	r3, [r0, #4]
 8005568:	6812      	ldr	r2, [r2, #0]
 800556a:	0004      	movs	r4, r0
 800556c:	421a      	tst	r2, r3
 800556e:	d101      	bne.n	8005574 <vPortFree+0x18>
 8005570:	b672      	cpsid	i
 8005572:	e7fe      	b.n	8005572 <vPortFree+0x16>
 8005574:	6801      	ldr	r1, [r0, #0]
 8005576:	2900      	cmp	r1, #0
 8005578:	d001      	beq.n	800557e <vPortFree+0x22>
 800557a:	b672      	cpsid	i
 800557c:	e7fe      	b.n	800557c <vPortFree+0x20>
 800557e:	4393      	bics	r3, r2
 8005580:	6043      	str	r3, [r0, #4]
 8005582:	f7ff f93b 	bl	80047fc <vTaskSuspendAll>
 8005586:	4a06      	ldr	r2, [pc, #24]	; (80055a0 <vPortFree+0x44>)
 8005588:	6863      	ldr	r3, [r4, #4]
 800558a:	6811      	ldr	r1, [r2, #0]
 800558c:	0020      	movs	r0, r4
 800558e:	185b      	adds	r3, r3, r1
 8005590:	6013      	str	r3, [r2, #0]
 8005592:	f7ff ff41 	bl	8005418 <prvInsertBlockIntoFreeList>
 8005596:	f7ff f9c5 	bl	8004924 <xTaskResumeAll>
 800559a:	bd10      	pop	{r4, pc}
 800559c:	200023b8 	.word	0x200023b8
 80055a0:	200023bc 	.word	0x200023bc

080055a4 <_ZdlPvj>:
 80055a4:	b510      	push	{r4, lr}
 80055a6:	f000 f816 	bl	80055d6 <_ZdlPv>
 80055aa:	bd10      	pop	{r4, pc}

080055ac <_Znwj>:
 80055ac:	b510      	push	{r4, lr}
 80055ae:	1e04      	subs	r4, r0, #0
 80055b0:	d100      	bne.n	80055b4 <_Znwj+0x8>
 80055b2:	3401      	adds	r4, #1
 80055b4:	0020      	movs	r0, r4
 80055b6:	f000 f859 	bl	800566c <malloc>
 80055ba:	2800      	cmp	r0, #0
 80055bc:	d107      	bne.n	80055ce <_Znwj+0x22>
 80055be:	f000 f81b 	bl	80055f8 <_ZSt15get_new_handlerv>
 80055c2:	2800      	cmp	r0, #0
 80055c4:	d101      	bne.n	80055ca <_Znwj+0x1e>
 80055c6:	f000 f81d 	bl	8005604 <abort>
 80055ca:	4780      	blx	r0
 80055cc:	e7f2      	b.n	80055b4 <_Znwj+0x8>
 80055ce:	bd10      	pop	{r4, pc}

080055d0 <__cxa_pure_virtual>:
 80055d0:	b510      	push	{r4, lr}
 80055d2:	f000 f809 	bl	80055e8 <_ZSt9terminatev>

080055d6 <_ZdlPv>:
 80055d6:	b510      	push	{r4, lr}
 80055d8:	f000 f852 	bl	8005680 <free>
 80055dc:	bd10      	pop	{r4, pc}

080055de <_ZN10__cxxabiv111__terminateEPFvvE>:
 80055de:	b510      	push	{r4, lr}
 80055e0:	4780      	blx	r0
 80055e2:	f000 f80f 	bl	8005604 <abort>
	...

080055e8 <_ZSt9terminatev>:
 80055e8:	4b02      	ldr	r3, [pc, #8]	; (80055f4 <_ZSt9terminatev+0xc>)
 80055ea:	b510      	push	{r4, lr}
 80055ec:	6818      	ldr	r0, [r3, #0]
 80055ee:	f7ff fff6 	bl	80055de <_ZN10__cxxabiv111__terminateEPFvvE>
 80055f2:	46c0      	nop			; (mov r8, r8)
 80055f4:	2000001c 	.word	0x2000001c

080055f8 <_ZSt15get_new_handlerv>:
 80055f8:	4b01      	ldr	r3, [pc, #4]	; (8005600 <_ZSt15get_new_handlerv+0x8>)
 80055fa:	6818      	ldr	r0, [r3, #0]
 80055fc:	4770      	bx	lr
 80055fe:	46c0      	nop			; (mov r8, r8)
 8005600:	200023cc 	.word	0x200023cc

08005604 <abort>:
 8005604:	2006      	movs	r0, #6
 8005606:	b510      	push	{r4, lr}
 8005608:	f000 f9ae 	bl	8005968 <raise>
 800560c:	2001      	movs	r0, #1
 800560e:	f7fb f8dd 	bl	80007cc <_exit>
	...

08005614 <__errno>:
 8005614:	4b01      	ldr	r3, [pc, #4]	; (800561c <__errno+0x8>)
 8005616:	6818      	ldr	r0, [r3, #0]
 8005618:	4770      	bx	lr
 800561a:	46c0      	nop			; (mov r8, r8)
 800561c:	20000020 	.word	0x20000020

08005620 <__libc_init_array>:
 8005620:	b570      	push	{r4, r5, r6, lr}
 8005622:	2600      	movs	r6, #0
 8005624:	4d0c      	ldr	r5, [pc, #48]	; (8005658 <__libc_init_array+0x38>)
 8005626:	4c0d      	ldr	r4, [pc, #52]	; (800565c <__libc_init_array+0x3c>)
 8005628:	1b64      	subs	r4, r4, r5
 800562a:	10a4      	asrs	r4, r4, #2
 800562c:	42a6      	cmp	r6, r4
 800562e:	d109      	bne.n	8005644 <__libc_init_array+0x24>
 8005630:	2600      	movs	r6, #0
 8005632:	f000 f9c9 	bl	80059c8 <_init>
 8005636:	4d0a      	ldr	r5, [pc, #40]	; (8005660 <__libc_init_array+0x40>)
 8005638:	4c0a      	ldr	r4, [pc, #40]	; (8005664 <__libc_init_array+0x44>)
 800563a:	1b64      	subs	r4, r4, r5
 800563c:	10a4      	asrs	r4, r4, #2
 800563e:	42a6      	cmp	r6, r4
 8005640:	d105      	bne.n	800564e <__libc_init_array+0x2e>
 8005642:	bd70      	pop	{r4, r5, r6, pc}
 8005644:	00b3      	lsls	r3, r6, #2
 8005646:	58eb      	ldr	r3, [r5, r3]
 8005648:	4798      	blx	r3
 800564a:	3601      	adds	r6, #1
 800564c:	e7ee      	b.n	800562c <__libc_init_array+0xc>
 800564e:	00b3      	lsls	r3, r6, #2
 8005650:	58eb      	ldr	r3, [r5, r3]
 8005652:	4798      	blx	r3
 8005654:	3601      	adds	r6, #1
 8005656:	e7f2      	b.n	800563e <__libc_init_array+0x1e>
 8005658:	08006250 	.word	0x08006250
 800565c:	08006250 	.word	0x08006250
 8005660:	08006250 	.word	0x08006250
 8005664:	08006258 	.word	0x08006258

08005668 <__retarget_lock_acquire_recursive>:
 8005668:	4770      	bx	lr

0800566a <__retarget_lock_release_recursive>:
 800566a:	4770      	bx	lr

0800566c <malloc>:
 800566c:	b510      	push	{r4, lr}
 800566e:	4b03      	ldr	r3, [pc, #12]	; (800567c <malloc+0x10>)
 8005670:	0001      	movs	r1, r0
 8005672:	6818      	ldr	r0, [r3, #0]
 8005674:	f000 f86a 	bl	800574c <_malloc_r>
 8005678:	bd10      	pop	{r4, pc}
 800567a:	46c0      	nop			; (mov r8, r8)
 800567c:	20000020 	.word	0x20000020

08005680 <free>:
 8005680:	b510      	push	{r4, lr}
 8005682:	4b03      	ldr	r3, [pc, #12]	; (8005690 <free+0x10>)
 8005684:	0001      	movs	r1, r0
 8005686:	6818      	ldr	r0, [r3, #0]
 8005688:	f000 f816 	bl	80056b8 <_free_r>
 800568c:	bd10      	pop	{r4, pc}
 800568e:	46c0      	nop			; (mov r8, r8)
 8005690:	20000020 	.word	0x20000020

08005694 <memcpy>:
 8005694:	2300      	movs	r3, #0
 8005696:	b510      	push	{r4, lr}
 8005698:	429a      	cmp	r2, r3
 800569a:	d100      	bne.n	800569e <memcpy+0xa>
 800569c:	bd10      	pop	{r4, pc}
 800569e:	5ccc      	ldrb	r4, [r1, r3]
 80056a0:	54c4      	strb	r4, [r0, r3]
 80056a2:	3301      	adds	r3, #1
 80056a4:	e7f8      	b.n	8005698 <memcpy+0x4>

080056a6 <memset>:
 80056a6:	0003      	movs	r3, r0
 80056a8:	1882      	adds	r2, r0, r2
 80056aa:	4293      	cmp	r3, r2
 80056ac:	d100      	bne.n	80056b0 <memset+0xa>
 80056ae:	4770      	bx	lr
 80056b0:	7019      	strb	r1, [r3, #0]
 80056b2:	3301      	adds	r3, #1
 80056b4:	e7f9      	b.n	80056aa <memset+0x4>
	...

080056b8 <_free_r>:
 80056b8:	b570      	push	{r4, r5, r6, lr}
 80056ba:	0005      	movs	r5, r0
 80056bc:	2900      	cmp	r1, #0
 80056be:	d010      	beq.n	80056e2 <_free_r+0x2a>
 80056c0:	1f0c      	subs	r4, r1, #4
 80056c2:	6823      	ldr	r3, [r4, #0]
 80056c4:	2b00      	cmp	r3, #0
 80056c6:	da00      	bge.n	80056ca <_free_r+0x12>
 80056c8:	18e4      	adds	r4, r4, r3
 80056ca:	0028      	movs	r0, r5
 80056cc:	f000 f96c 	bl	80059a8 <__malloc_lock>
 80056d0:	4a1d      	ldr	r2, [pc, #116]	; (8005748 <_free_r+0x90>)
 80056d2:	6813      	ldr	r3, [r2, #0]
 80056d4:	2b00      	cmp	r3, #0
 80056d6:	d105      	bne.n	80056e4 <_free_r+0x2c>
 80056d8:	6063      	str	r3, [r4, #4]
 80056da:	6014      	str	r4, [r2, #0]
 80056dc:	0028      	movs	r0, r5
 80056de:	f000 f96b 	bl	80059b8 <__malloc_unlock>
 80056e2:	bd70      	pop	{r4, r5, r6, pc}
 80056e4:	42a3      	cmp	r3, r4
 80056e6:	d908      	bls.n	80056fa <_free_r+0x42>
 80056e8:	6821      	ldr	r1, [r4, #0]
 80056ea:	1860      	adds	r0, r4, r1
 80056ec:	4283      	cmp	r3, r0
 80056ee:	d1f3      	bne.n	80056d8 <_free_r+0x20>
 80056f0:	6818      	ldr	r0, [r3, #0]
 80056f2:	685b      	ldr	r3, [r3, #4]
 80056f4:	1841      	adds	r1, r0, r1
 80056f6:	6021      	str	r1, [r4, #0]
 80056f8:	e7ee      	b.n	80056d8 <_free_r+0x20>
 80056fa:	001a      	movs	r2, r3
 80056fc:	685b      	ldr	r3, [r3, #4]
 80056fe:	2b00      	cmp	r3, #0
 8005700:	d001      	beq.n	8005706 <_free_r+0x4e>
 8005702:	42a3      	cmp	r3, r4
 8005704:	d9f9      	bls.n	80056fa <_free_r+0x42>
 8005706:	6811      	ldr	r1, [r2, #0]
 8005708:	1850      	adds	r0, r2, r1
 800570a:	42a0      	cmp	r0, r4
 800570c:	d10b      	bne.n	8005726 <_free_r+0x6e>
 800570e:	6820      	ldr	r0, [r4, #0]
 8005710:	1809      	adds	r1, r1, r0
 8005712:	1850      	adds	r0, r2, r1
 8005714:	6011      	str	r1, [r2, #0]
 8005716:	4283      	cmp	r3, r0
 8005718:	d1e0      	bne.n	80056dc <_free_r+0x24>
 800571a:	6818      	ldr	r0, [r3, #0]
 800571c:	685b      	ldr	r3, [r3, #4]
 800571e:	1841      	adds	r1, r0, r1
 8005720:	6011      	str	r1, [r2, #0]
 8005722:	6053      	str	r3, [r2, #4]
 8005724:	e7da      	b.n	80056dc <_free_r+0x24>
 8005726:	42a0      	cmp	r0, r4
 8005728:	d902      	bls.n	8005730 <_free_r+0x78>
 800572a:	230c      	movs	r3, #12
 800572c:	602b      	str	r3, [r5, #0]
 800572e:	e7d5      	b.n	80056dc <_free_r+0x24>
 8005730:	6821      	ldr	r1, [r4, #0]
 8005732:	1860      	adds	r0, r4, r1
 8005734:	4283      	cmp	r3, r0
 8005736:	d103      	bne.n	8005740 <_free_r+0x88>
 8005738:	6818      	ldr	r0, [r3, #0]
 800573a:	685b      	ldr	r3, [r3, #4]
 800573c:	1841      	adds	r1, r0, r1
 800573e:	6021      	str	r1, [r4, #0]
 8005740:	6063      	str	r3, [r4, #4]
 8005742:	6054      	str	r4, [r2, #4]
 8005744:	e7ca      	b.n	80056dc <_free_r+0x24>
 8005746:	46c0      	nop			; (mov r8, r8)
 8005748:	200023d0 	.word	0x200023d0

0800574c <_malloc_r>:
 800574c:	b5f8      	push	{r3, r4, r5, r6, r7, lr}
 800574e:	2303      	movs	r3, #3
 8005750:	1ccd      	adds	r5, r1, #3
 8005752:	439d      	bics	r5, r3
 8005754:	3508      	adds	r5, #8
 8005756:	0006      	movs	r6, r0
 8005758:	2d0c      	cmp	r5, #12
 800575a:	d21f      	bcs.n	800579c <_malloc_r+0x50>
 800575c:	250c      	movs	r5, #12
 800575e:	42a9      	cmp	r1, r5
 8005760:	d81e      	bhi.n	80057a0 <_malloc_r+0x54>
 8005762:	0030      	movs	r0, r6
 8005764:	f000 f920 	bl	80059a8 <__malloc_lock>
 8005768:	4925      	ldr	r1, [pc, #148]	; (8005800 <_malloc_r+0xb4>)
 800576a:	680a      	ldr	r2, [r1, #0]
 800576c:	0014      	movs	r4, r2
 800576e:	2c00      	cmp	r4, #0
 8005770:	d11a      	bne.n	80057a8 <_malloc_r+0x5c>
 8005772:	4f24      	ldr	r7, [pc, #144]	; (8005804 <_malloc_r+0xb8>)
 8005774:	683b      	ldr	r3, [r7, #0]
 8005776:	2b00      	cmp	r3, #0
 8005778:	d104      	bne.n	8005784 <_malloc_r+0x38>
 800577a:	0021      	movs	r1, r4
 800577c:	0030      	movs	r0, r6
 800577e:	f000 f8b7 	bl	80058f0 <_sbrk_r>
 8005782:	6038      	str	r0, [r7, #0]
 8005784:	0029      	movs	r1, r5
 8005786:	0030      	movs	r0, r6
 8005788:	f000 f8b2 	bl	80058f0 <_sbrk_r>
 800578c:	1c43      	adds	r3, r0, #1
 800578e:	d12b      	bne.n	80057e8 <_malloc_r+0x9c>
 8005790:	230c      	movs	r3, #12
 8005792:	0030      	movs	r0, r6
 8005794:	6033      	str	r3, [r6, #0]
 8005796:	f000 f90f 	bl	80059b8 <__malloc_unlock>
 800579a:	e003      	b.n	80057a4 <_malloc_r+0x58>
 800579c:	2d00      	cmp	r5, #0
 800579e:	dade      	bge.n	800575e <_malloc_r+0x12>
 80057a0:	230c      	movs	r3, #12
 80057a2:	6033      	str	r3, [r6, #0]
 80057a4:	2000      	movs	r0, #0
 80057a6:	bdf8      	pop	{r3, r4, r5, r6, r7, pc}
 80057a8:	6823      	ldr	r3, [r4, #0]
 80057aa:	1b5b      	subs	r3, r3, r5
 80057ac:	d419      	bmi.n	80057e2 <_malloc_r+0x96>
 80057ae:	2b0b      	cmp	r3, #11
 80057b0:	d903      	bls.n	80057ba <_malloc_r+0x6e>
 80057b2:	6023      	str	r3, [r4, #0]
 80057b4:	18e4      	adds	r4, r4, r3
 80057b6:	6025      	str	r5, [r4, #0]
 80057b8:	e003      	b.n	80057c2 <_malloc_r+0x76>
 80057ba:	6863      	ldr	r3, [r4, #4]
 80057bc:	42a2      	cmp	r2, r4
 80057be:	d10e      	bne.n	80057de <_malloc_r+0x92>
 80057c0:	600b      	str	r3, [r1, #0]
 80057c2:	0030      	movs	r0, r6
 80057c4:	f000 f8f8 	bl	80059b8 <__malloc_unlock>
 80057c8:	0020      	movs	r0, r4
 80057ca:	2207      	movs	r2, #7
 80057cc:	300b      	adds	r0, #11
 80057ce:	1d23      	adds	r3, r4, #4
 80057d0:	4390      	bics	r0, r2
 80057d2:	1ac2      	subs	r2, r0, r3
 80057d4:	4298      	cmp	r0, r3
 80057d6:	d0e6      	beq.n	80057a6 <_malloc_r+0x5a>
 80057d8:	1a1b      	subs	r3, r3, r0
 80057da:	50a3      	str	r3, [r4, r2]
 80057dc:	e7e3      	b.n	80057a6 <_malloc_r+0x5a>
 80057de:	6053      	str	r3, [r2, #4]
 80057e0:	e7ef      	b.n	80057c2 <_malloc_r+0x76>
 80057e2:	0022      	movs	r2, r4
 80057e4:	6864      	ldr	r4, [r4, #4]
 80057e6:	e7c2      	b.n	800576e <_malloc_r+0x22>
 80057e8:	2303      	movs	r3, #3
 80057ea:	1cc4      	adds	r4, r0, #3
 80057ec:	439c      	bics	r4, r3
 80057ee:	42a0      	cmp	r0, r4
 80057f0:	d0e1      	beq.n	80057b6 <_malloc_r+0x6a>
 80057f2:	1a21      	subs	r1, r4, r0
 80057f4:	0030      	movs	r0, r6
 80057f6:	f000 f87b 	bl	80058f0 <_sbrk_r>
 80057fa:	1c43      	adds	r3, r0, #1
 80057fc:	d1db      	bne.n	80057b6 <_malloc_r+0x6a>
 80057fe:	e7c7      	b.n	8005790 <_malloc_r+0x44>
 8005800:	200023d0 	.word	0x200023d0
 8005804:	200023d4 	.word	0x200023d4

08005808 <cleanup_glue>:
 8005808:	b570      	push	{r4, r5, r6, lr}
 800580a:	000d      	movs	r5, r1
 800580c:	6809      	ldr	r1, [r1, #0]
 800580e:	0004      	movs	r4, r0
 8005810:	2900      	cmp	r1, #0
 8005812:	d001      	beq.n	8005818 <cleanup_glue+0x10>
 8005814:	f7ff fff8 	bl	8005808 <cleanup_glue>
 8005818:	0029      	movs	r1, r5
 800581a:	0020      	movs	r0, r4
 800581c:	f7ff ff4c 	bl	80056b8 <_free_r>
 8005820:	bd70      	pop	{r4, r5, r6, pc}
	...

08005824 <_reclaim_reent>:
 8005824:	4b31      	ldr	r3, [pc, #196]	; (80058ec <_reclaim_reent+0xc8>)
 8005826:	b570      	push	{r4, r5, r6, lr}
 8005828:	681b      	ldr	r3, [r3, #0]
 800582a:	0004      	movs	r4, r0
 800582c:	4283      	cmp	r3, r0
 800582e:	d049      	beq.n	80058c4 <_reclaim_reent+0xa0>
 8005830:	6a43      	ldr	r3, [r0, #36]	; 0x24
 8005832:	2b00      	cmp	r3, #0
 8005834:	d00a      	beq.n	800584c <_reclaim_reent+0x28>
 8005836:	2500      	movs	r5, #0
 8005838:	68db      	ldr	r3, [r3, #12]
 800583a:	42ab      	cmp	r3, r5
 800583c:	d147      	bne.n	80058ce <_reclaim_reent+0xaa>
 800583e:	6a63      	ldr	r3, [r4, #36]	; 0x24
 8005840:	6819      	ldr	r1, [r3, #0]
 8005842:	2900      	cmp	r1, #0
 8005844:	d002      	beq.n	800584c <_reclaim_reent+0x28>
 8005846:	0020      	movs	r0, r4
 8005848:	f7ff ff36 	bl	80056b8 <_free_r>
 800584c:	6961      	ldr	r1, [r4, #20]
 800584e:	2900      	cmp	r1, #0
 8005850:	d002      	beq.n	8005858 <_reclaim_reent+0x34>
 8005852:	0020      	movs	r0, r4
 8005854:	f7ff ff30 	bl	80056b8 <_free_r>
 8005858:	6a61      	ldr	r1, [r4, #36]	; 0x24
 800585a:	2900      	cmp	r1, #0
 800585c:	d002      	beq.n	8005864 <_reclaim_reent+0x40>
 800585e:	0020      	movs	r0, r4
 8005860:	f7ff ff2a 	bl	80056b8 <_free_r>
 8005864:	6ba1      	ldr	r1, [r4, #56]	; 0x38
 8005866:	2900      	cmp	r1, #0
 8005868:	d002      	beq.n	8005870 <_reclaim_reent+0x4c>
 800586a:	0020      	movs	r0, r4
 800586c:	f7ff ff24 	bl	80056b8 <_free_r>
 8005870:	6be1      	ldr	r1, [r4, #60]	; 0x3c
 8005872:	2900      	cmp	r1, #0
 8005874:	d002      	beq.n	800587c <_reclaim_reent+0x58>
 8005876:	0020      	movs	r0, r4
 8005878:	f7ff ff1e 	bl	80056b8 <_free_r>
 800587c:	6c21      	ldr	r1, [r4, #64]	; 0x40
 800587e:	2900      	cmp	r1, #0
 8005880:	d002      	beq.n	8005888 <_reclaim_reent+0x64>
 8005882:	0020      	movs	r0, r4
 8005884:	f7ff ff18 	bl	80056b8 <_free_r>
 8005888:	6de1      	ldr	r1, [r4, #92]	; 0x5c
 800588a:	2900      	cmp	r1, #0
 800588c:	d002      	beq.n	8005894 <_reclaim_reent+0x70>
 800588e:	0020      	movs	r0, r4
 8005890:	f7ff ff12 	bl	80056b8 <_free_r>
 8005894:	6da1      	ldr	r1, [r4, #88]	; 0x58
 8005896:	2900      	cmp	r1, #0
 8005898:	d002      	beq.n	80058a0 <_reclaim_reent+0x7c>
 800589a:	0020      	movs	r0, r4
 800589c:	f7ff ff0c 	bl	80056b8 <_free_r>
 80058a0:	6b61      	ldr	r1, [r4, #52]	; 0x34
 80058a2:	2900      	cmp	r1, #0
 80058a4:	d002      	beq.n	80058ac <_reclaim_reent+0x88>
 80058a6:	0020      	movs	r0, r4
 80058a8:	f7ff ff06 	bl	80056b8 <_free_r>
 80058ac:	69a3      	ldr	r3, [r4, #24]
 80058ae:	2b00      	cmp	r3, #0
 80058b0:	d008      	beq.n	80058c4 <_reclaim_reent+0xa0>
 80058b2:	0020      	movs	r0, r4
 80058b4:	6aa3      	ldr	r3, [r4, #40]	; 0x28
 80058b6:	4798      	blx	r3
 80058b8:	6ca1      	ldr	r1, [r4, #72]	; 0x48
 80058ba:	2900      	cmp	r1, #0
 80058bc:	d002      	beq.n	80058c4 <_reclaim_reent+0xa0>
 80058be:	0020      	movs	r0, r4
 80058c0:	f7ff ffa2 	bl	8005808 <cleanup_glue>
 80058c4:	bd70      	pop	{r4, r5, r6, pc}
 80058c6:	5949      	ldr	r1, [r1, r5]
 80058c8:	2900      	cmp	r1, #0
 80058ca:	d108      	bne.n	80058de <_reclaim_reent+0xba>
 80058cc:	3504      	adds	r5, #4
 80058ce:	6a63      	ldr	r3, [r4, #36]	; 0x24
 80058d0:	68d9      	ldr	r1, [r3, #12]
 80058d2:	2d80      	cmp	r5, #128	; 0x80
 80058d4:	d1f7      	bne.n	80058c6 <_reclaim_reent+0xa2>
 80058d6:	0020      	movs	r0, r4
 80058d8:	f7ff feee 	bl	80056b8 <_free_r>
 80058dc:	e7af      	b.n	800583e <_reclaim_reent+0x1a>
 80058de:	680e      	ldr	r6, [r1, #0]
 80058e0:	0020      	movs	r0, r4
 80058e2:	f7ff fee9 	bl	80056b8 <_free_r>
 80058e6:	0031      	movs	r1, r6
 80058e8:	e7ee      	b.n	80058c8 <_reclaim_reent+0xa4>
 80058ea:	46c0      	nop			; (mov r8, r8)
 80058ec:	20000020 	.word	0x20000020

080058f0 <_sbrk_r>:
 80058f0:	2300      	movs	r3, #0
 80058f2:	b570      	push	{r4, r5, r6, lr}
 80058f4:	4d06      	ldr	r5, [pc, #24]	; (8005910 <_sbrk_r+0x20>)
 80058f6:	0004      	movs	r4, r0
 80058f8:	0008      	movs	r0, r1
 80058fa:	602b      	str	r3, [r5, #0]
 80058fc:	f7fa ff6c 	bl	80007d8 <_sbrk>
 8005900:	1c43      	adds	r3, r0, #1
 8005902:	d103      	bne.n	800590c <_sbrk_r+0x1c>
 8005904:	682b      	ldr	r3, [r5, #0]
 8005906:	2b00      	cmp	r3, #0
 8005908:	d000      	beq.n	800590c <_sbrk_r+0x1c>
 800590a:	6023      	str	r3, [r4, #0]
 800590c:	bd70      	pop	{r4, r5, r6, pc}
 800590e:	46c0      	nop			; (mov r8, r8)
 8005910:	20002d70 	.word	0x20002d70

08005914 <_raise_r>:
 8005914:	b570      	push	{r4, r5, r6, lr}
 8005916:	0004      	movs	r4, r0
 8005918:	000d      	movs	r5, r1
 800591a:	291f      	cmp	r1, #31
 800591c:	d904      	bls.n	8005928 <_raise_r+0x14>
 800591e:	2316      	movs	r3, #22
 8005920:	6003      	str	r3, [r0, #0]
 8005922:	2001      	movs	r0, #1
 8005924:	4240      	negs	r0, r0
 8005926:	bd70      	pop	{r4, r5, r6, pc}
 8005928:	6c43      	ldr	r3, [r0, #68]	; 0x44
 800592a:	2b00      	cmp	r3, #0
 800592c:	d004      	beq.n	8005938 <_raise_r+0x24>
 800592e:	008a      	lsls	r2, r1, #2
 8005930:	189b      	adds	r3, r3, r2
 8005932:	681a      	ldr	r2, [r3, #0]
 8005934:	2a00      	cmp	r2, #0
 8005936:	d108      	bne.n	800594a <_raise_r+0x36>
 8005938:	0020      	movs	r0, r4
 800593a:	f000 f831 	bl	80059a0 <_getpid_r>
 800593e:	002a      	movs	r2, r5
 8005940:	0001      	movs	r1, r0
 8005942:	0020      	movs	r0, r4
 8005944:	f000 f81a 	bl	800597c <_kill_r>
 8005948:	e7ed      	b.n	8005926 <_raise_r+0x12>
 800594a:	2000      	movs	r0, #0
 800594c:	2a01      	cmp	r2, #1
 800594e:	d0ea      	beq.n	8005926 <_raise_r+0x12>
 8005950:	1c51      	adds	r1, r2, #1
 8005952:	d103      	bne.n	800595c <_raise_r+0x48>
 8005954:	2316      	movs	r3, #22
 8005956:	3001      	adds	r0, #1
 8005958:	6023      	str	r3, [r4, #0]
 800595a:	e7e4      	b.n	8005926 <_raise_r+0x12>
 800595c:	2400      	movs	r4, #0
 800595e:	0028      	movs	r0, r5
 8005960:	601c      	str	r4, [r3, #0]
 8005962:	4790      	blx	r2
 8005964:	0020      	movs	r0, r4
 8005966:	e7de      	b.n	8005926 <_raise_r+0x12>

08005968 <raise>:
 8005968:	b510      	push	{r4, lr}
 800596a:	4b03      	ldr	r3, [pc, #12]	; (8005978 <raise+0x10>)
 800596c:	0001      	movs	r1, r0
 800596e:	6818      	ldr	r0, [r3, #0]
 8005970:	f7ff ffd0 	bl	8005914 <_raise_r>
 8005974:	bd10      	pop	{r4, pc}
 8005976:	46c0      	nop			; (mov r8, r8)
 8005978:	20000020 	.word	0x20000020

0800597c <_kill_r>:
 800597c:	2300      	movs	r3, #0
 800597e:	b570      	push	{r4, r5, r6, lr}
 8005980:	4d06      	ldr	r5, [pc, #24]	; (800599c <_kill_r+0x20>)
 8005982:	0004      	movs	r4, r0
 8005984:	0008      	movs	r0, r1
 8005986:	0011      	movs	r1, r2
 8005988:	602b      	str	r3, [r5, #0]
 800598a:	f7fa ff17 	bl	80007bc <_kill>
 800598e:	1c43      	adds	r3, r0, #1
 8005990:	d103      	bne.n	800599a <_kill_r+0x1e>
 8005992:	682b      	ldr	r3, [r5, #0]
 8005994:	2b00      	cmp	r3, #0
 8005996:	d000      	beq.n	800599a <_kill_r+0x1e>
 8005998:	6023      	str	r3, [r4, #0]
 800599a:	bd70      	pop	{r4, r5, r6, pc}
 800599c:	20002d70 	.word	0x20002d70

080059a0 <_getpid_r>:
 80059a0:	b510      	push	{r4, lr}
 80059a2:	f7fa ff09 	bl	80007b8 <_getpid>
 80059a6:	bd10      	pop	{r4, pc}

080059a8 <__malloc_lock>:
 80059a8:	b510      	push	{r4, lr}
 80059aa:	4802      	ldr	r0, [pc, #8]	; (80059b4 <__malloc_lock+0xc>)
 80059ac:	f7ff fe5c 	bl	8005668 <__retarget_lock_acquire_recursive>
 80059b0:	bd10      	pop	{r4, pc}
 80059b2:	46c0      	nop			; (mov r8, r8)
 80059b4:	20002d68 	.word	0x20002d68

080059b8 <__malloc_unlock>:
 80059b8:	b510      	push	{r4, lr}
 80059ba:	4802      	ldr	r0, [pc, #8]	; (80059c4 <__malloc_unlock+0xc>)
 80059bc:	f7ff fe55 	bl	800566a <__retarget_lock_release_recursive>
 80059c0:	bd10      	pop	{r4, pc}
 80059c2:	46c0      	nop			; (mov r8, r8)
 80059c4:	20002d68 	.word	0x20002d68

080059c8 <_init>:
 80059c8:	b5f8      	push	{r3, r4, r5, r6, r7, lr}
 80059ca:	46c0      	nop			; (mov r8, r8)
 80059cc:	bcf8      	pop	{r3, r4, r5, r6, r7}
 80059ce:	bc08      	pop	{r3}
 80059d0:	469e      	mov	lr, r3
 80059d2:	4770      	bx	lr

080059d4 <_fini>:
 80059d4:	b5f8      	push	{r3, r4, r5, r6, r7, lr}
 80059d6:	46c0      	nop			; (mov r8, r8)
 80059d8:	bcf8      	pop	{r3, r4, r5, r6, r7}
 80059da:	bc08      	pop	{r3}
 80059dc:	469e      	mov	lr, r3
 80059de:	4770      	bx	lr
